Archive member included to satisfy reference by file (symbol)

/home/badr/hackinvent/Ada_Drivers_Library/boards/stm32h743_nucleo/obj/sfp_lib_Debug/libada_drivers_library.a(stm32-board.o)
                              b__spi.o (stm32__board___elabs)
/home/badr/hackinvent/Ada_Drivers_Library/boards/stm32h743_nucleo/obj/sfp_lib_Debug/libada_drivers_library.a(stm32-device.o)
                              spi.o (stm32__device__enable_clock_main)
/home/badr/hackinvent/Ada_Drivers_Library/boards/stm32h743_nucleo/obj/sfp_lib_Debug/libada_drivers_library.a(stm32-exti.o)
                              b__spi.o (stm32__exti_E)
/home/badr/hackinvent/Ada_Drivers_Library/boards/stm32h743_nucleo/obj/sfp_lib_Debug/libada_drivers_library.a(stm32-gpio.o)
                              /home/badr/hackinvent/Ada_Drivers_Library/boards/stm32h743_nucleo/obj/sfp_lib_Debug/libada_drivers_library.a(stm32-board.o) (stm32__gpio__gpio_port_configurationIP)
/home/badr/hackinvent/Ada_Drivers_Library/boards/stm32h743_nucleo/obj/sfp_lib_Debug/libada_drivers_library.a(stm32-rcc.o)
                              /home/badr/hackinvent/Ada_Drivers_Library/boards/stm32h743_nucleo/obj/sfp_lib_Debug/libada_drivers_library.a(stm32-gpio.o) (stm32__rcc__syscfg_clock_enable)
/home/badr/hackinvent/Ada_Drivers_Library/boards/stm32h743_nucleo/obj/sfp_lib_Debug/libada_drivers_library.a(stm32-spi.o)
                              /home/badr/hackinvent/Ada_Drivers_Library/boards/stm32h743_nucleo/obj/sfp_lib_Debug/libada_drivers_library.a(stm32-device.o) (stm32__spi__spi_portIP)
/home/badr/hackinvent/Ada_Drivers_Library/boards/stm32h743_nucleo/obj/sfp_lib_Debug/libada_drivers_library.a(stm32-syscfg.o)
                              /home/badr/hackinvent/Ada_Drivers_Library/boards/stm32h743_nucleo/obj/sfp_lib_Debug/libada_drivers_library.a(stm32-gpio.o) (stm32__syscfg__connect_external_interrupt__2)
/home/badr/hackinvent/Ada_Drivers_Library/boards/stm32h743_nucleo/obj/sfp_lib_Debug/libada_drivers_library.a(hal-gpio.o)
                              /home/badr/hackinvent/Ada_Drivers_Library/boards/stm32h743_nucleo/obj/sfp_lib_Debug/libada_drivers_library.a(stm32-gpio.o) (hal__gpio__gpio_pointT)
/home/badr/hackinvent/Ada_Drivers_Library/boards/stm32h743_nucleo/obj/sfp_lib_Debug/libada_drivers_library.a(hal-spi.o)
                              /home/badr/hackinvent/Ada_Drivers_Library/boards/stm32h743_nucleo/obj/sfp_lib_Debug/libada_drivers_library.a(stm32-spi.o) (hal__spi__spi_portT)
/home/badr/GNAT/2018-arm-elf/arm-eabi/lib/gnat/ravenscar-sfp-stm32h743nucleo/adalib/libgnarl.a(a-reatim.o)
                              spi.o (ada__real_time__Oadd)
/home/badr/GNAT/2018-arm-elf/arm-eabi/lib/gnat/ravenscar-sfp-stm32h743nucleo/adalib/libgnarl.a(a-retide.o)
                              spi.o (ada__real_time__delays__delay_until)
/home/badr/GNAT/2018-arm-elf/arm-eabi/lib/gnat/ravenscar-sfp-stm32h743nucleo/adalib/libgnarl.a(s-bbtiev.o)
                              b__spi.o (system__bb__timing_events___elabb)
/home/badr/GNAT/2018-arm-elf/arm-eabi/lib/gnat/ravenscar-sfp-stm32h743nucleo/adalib/libgnarl.a(s-bbtime.o)
                              /home/badr/GNAT/2018-arm-elf/arm-eabi/lib/gnat/ravenscar-sfp-stm32h743nucleo/adalib/libgnarl.a(s-bbtiev.o) (system__bb__time__get_next_timeout)
/home/badr/GNAT/2018-arm-elf/arm-eabi/lib/gnat/ravenscar-sfp-stm32h743nucleo/adalib/libgnarl.a(s-taprop.o)
                              /home/badr/GNAT/2018-arm-elf/arm-eabi/lib/gnat/ravenscar-sfp-stm32h743nucleo/adalib/libgnarl.a(a-retide.o) (system__task_primitives__operations(short,...)(long, float))
/home/badr/GNAT/2018-arm-elf/arm-eabi/lib/gnat/ravenscar-sfp-stm32h743nucleo/adalib/libgnarl.a(s-tasdeb.o)
                              /home/badr/GNAT/2018-arm-elf/arm-eabi/lib/gnat/ravenscar-sfp-stm32h743nucleo/adalib/libgnarl.a(s-taprop.o) (system__tasking__debug__add_task_id)
/home/badr/GNAT/2018-arm-elf/arm-eabi/lib/gnat/ravenscar-sfp-stm32h743nucleo/adalib/libgnarl.a(s-taskin.o)
                              /home/badr/GNAT/2018-arm-elf/arm-eabi/lib/gnat/ravenscar-sfp-stm32h743nucleo/adalib/libgnarl.a(s-taprop.o) (system__tasking__initialize_atcb)
/home/badr/GNAT/2018-arm-elf/arm-eabi/lib/gnat/ravenscar-sfp-stm32h743nucleo/adalib/libgnarl.a(s-bbbosu.o)
                              /home/badr/GNAT/2018-arm-elf/arm-eabi/lib/gnat/ravenscar-sfp-stm32h743nucleo/adalib/libgnarl.a(s-bbtime.o) (system__bb__board_support__time__max_timer_interval)
/home/badr/GNAT/2018-arm-elf/arm-eabi/lib/gnat/ravenscar-sfp-stm32h743nucleo/adalib/libgnarl.a(s-bbcppr.o)
                              /home/badr/GNAT/2018-arm-elf/arm-eabi/lib/gnat/ravenscar-sfp-stm32h743nucleo/adalib/libgnarl.a(s-bbbosu.o) (system__bb__cpu_primitives__enable_interrupts)
/home/badr/GNAT/2018-arm-elf/arm-eabi/lib/gnat/ravenscar-sfp-stm32h743nucleo/adalib/libgnarl.a(s-bbinte.o)
                              /home/badr/GNAT/2018-arm-elf/arm-eabi/lib/gnat/ravenscar-sfp-stm32h743nucleo/adalib/libgnarl.a(s-bbbosu.o) (system__bb__interrupts__attach_handler)
/home/badr/GNAT/2018-arm-elf/arm-eabi/lib/gnat/ravenscar-sfp-stm32h743nucleo/adalib/libgnarl.a(s-bbprot.o)
                              /home/badr/GNAT/2018-arm-elf/arm-eabi/lib/gnat/ravenscar-sfp-stm32h743nucleo/adalib/libgnarl.a(s-bbtime.o) (system__bb__protection__enter_kernel)
/home/badr/GNAT/2018-arm-elf/arm-eabi/lib/gnat/ravenscar-sfp-stm32h743nucleo/adalib/libgnarl.a(s-bbthqu.o)
                              /home/badr/GNAT/2018-arm-elf/arm-eabi/lib/gnat/ravenscar-sfp-stm32h743nucleo/adalib/libgnarl.a(s-bbtiev.o) (system__bb__threads__queues__change_priority)
/home/badr/GNAT/2018-arm-elf/arm-eabi/lib/gnat/ravenscar-sfp-stm32h743nucleo/adalib/libgnarl.a(s-bbthre.o)
                              /home/badr/GNAT/2018-arm-elf/arm-eabi/lib/gnat/ravenscar-sfp-stm32h743nucleo/adalib/libgnarl.a(s-taprop.o) (system__bb__threads__get_affinity)
/home/badr/GNAT/2018-arm-elf/arm-eabi/lib/gnat/ravenscar-sfp-stm32h743nucleo/adalib/libgnarl.a(s-bcpcst.o)
                              /home/badr/GNAT/2018-arm-elf/arm-eabi/lib/gnat/ravenscar-sfp-stm32h743nucleo/adalib/libgnarl.a(s-bbcppr.o) (system__bb__cpu_primitives__context_switch_trigger__initialize_context_switch)
/home/badr/GNAT/2018-arm-elf/arm-eabi/lib/gnat/ravenscar-sfp-stm32h743nucleo/adalib/libgnarl.a(handler.o)
                              /home/badr/GNAT/2018-arm-elf/arm-eabi/lib/gnat/ravenscar-sfp-stm32h743nucleo/adalib/libgnarl.a(s-bbcppr.o) (__vectors)
/home/badr/GNAT/2018-arm-elf/arm-eabi/lib/gnat/ravenscar-sfp-stm32h743nucleo/adalib/libgnat.a(a-elchha.o)
                              /home/badr/hackinvent/Ada_Drivers_Library/boards/stm32h743_nucleo/obj/sfp_lib_Debug/libada_drivers_library.a(stm32-board.o) (__gnat_last_chance_handler)
/home/badr/GNAT/2018-arm-elf/arm-eabi/lib/gnat/ravenscar-sfp-stm32h743nucleo/adalib/libgnat.a(a-except.o)
                              /home/badr/hackinvent/Ada_Drivers_Library/boards/stm32h743_nucleo/obj/sfp_lib_Debug/libada_drivers_library.a(stm32-device.o) (ada__exceptions__empty_c_string___UNC)
/home/badr/GNAT/2018-arm-elf/arm-eabi/lib/gnat/ravenscar-sfp-stm32h743nucleo/adalib/libgnat.a(breakpoint_handler-cortexm.o)
                              /home/badr/GNAT/2018-arm-elf/arm-eabi/lib/gnat/ravenscar-sfp-stm32h743nucleo/adalib/libgnarl.a(handler.o) (__gnat_bkpt_trap)
/home/badr/GNAT/2018-arm-elf/arm-eabi/lib/gnat/ravenscar-sfp-stm32h743nucleo/adalib/libgnat.a(g-io.o)
                              /home/badr/GNAT/2018-arm-elf/arm-eabi/lib/gnat/ravenscar-sfp-stm32h743nucleo/adalib/libgnat.a(a-elchha.o) (gnat__io__put__2)
/home/badr/GNAT/2018-arm-elf/arm-eabi/lib/gnat/ravenscar-sfp-stm32h743nucleo/adalib/libgnat.a(s-assert.o)
                              /home/badr/hackinvent/Ada_Drivers_Library/boards/stm32h743_nucleo/obj/sfp_lib_Debug/libada_drivers_library.a(stm32-gpio.o) (system__assertions__raise_assert_failure)
/home/badr/GNAT/2018-arm-elf/arm-eabi/lib/gnat/ravenscar-sfp-stm32h743nucleo/adalib/libgnat.a(s-macres.o)
                              /home/badr/GNAT/2018-arm-elf/arm-eabi/lib/gnat/ravenscar-sfp-stm32h743nucleo/adalib/libgnat.a(a-elchha.o) (system__machine_reset__stop)
/home/badr/GNAT/2018-arm-elf/arm-eabi/lib/gnat/ravenscar-sfp-stm32h743nucleo/adalib/libgnat.a(s-memcop.o)
                              /home/badr/hackinvent/Ada_Drivers_Library/boards/stm32h743_nucleo/obj/sfp_lib_Debug/libada_drivers_library.a(stm32-device.o) (memcpy)
/home/badr/GNAT/2018-arm-elf/arm-eabi/lib/gnat/ravenscar-sfp-stm32h743nucleo/adalib/libgnat.a(s-memset.o)
                              /home/badr/GNAT/2018-arm-elf/arm-eabi/lib/gnat/ravenscar-sfp-stm32h743nucleo/adalib/libgnarl.a(s-bbcppr.o) (memset)
/home/badr/GNAT/2018-arm-elf/arm-eabi/lib/gnat/ravenscar-sfp-stm32h743nucleo/adalib/libgnat.a(s-parame.o)
                              /home/badr/GNAT/2018-arm-elf/arm-eabi/lib/gnat/ravenscar-sfp-stm32h743nucleo/adalib/libgnarl.a(s-taskin.o) (system__parameters__adjust_storage_size)
/home/badr/GNAT/2018-arm-elf/arm-eabi/lib/gnat/ravenscar-sfp-stm32h743nucleo/adalib/libgnat.a(s-secsta.o)
                              b__spi.o (system__secondary_stack__ss_stackIP)
/home/badr/GNAT/2018-arm-elf/arm-eabi/lib/gnat/ravenscar-sfp-stm32h743nucleo/adalib/libgnat.a(s-textio.o)
                              /home/badr/GNAT/2018-arm-elf/arm-eabi/lib/gnat/ravenscar-sfp-stm32h743nucleo/adalib/libgnat.a(g-io.o) (system__text_io__initialize)
/home/badr/GNAT/2018-arm-elf/arm-eabi/lib/gnat/ravenscar-sfp-stm32h743nucleo/adalib/libgnat.a(start-rom.o)
                              (_start_rom)
/home/badr/GNAT/2018-arm-elf/arm-eabi/lib/gnat/ravenscar-sfp-stm32h743nucleo/adalib/libgnat.a(s-semiho.o)
                              /home/badr/GNAT/2018-arm-elf/arm-eabi/lib/gnat/ravenscar-sfp-stm32h743nucleo/adalib/libgnat.a(s-textio.o) (system__semihosting__put)
/home/badr/GNAT/2018-arm-elf/arm-eabi/lib/gnat/ravenscar-sfp-stm32h743nucleo/adalib/libgnat.a(start-common.o)
                              /home/badr/GNAT/2018-arm-elf/arm-eabi/lib/gnat/ravenscar-sfp-stm32h743nucleo/adalib/libgnat.a(start-rom.o) (_stm32_start_common)
/home/badr/GNAT/2018-arm-elf/bin/../lib/gcc/arm-eabi/7.3.1/thumb/v7e-m/fpv5/hard/libgcc.a(_aeabi_ldivmod.o)
                              /home/badr/GNAT/2018-arm-elf/arm-eabi/lib/gnat/ravenscar-sfp-stm32h743nucleo/adalib/libgnarl.a(a-reatim.o) (__aeabi_ldivmod)
/home/badr/GNAT/2018-arm-elf/bin/../lib/gcc/arm-eabi/7.3.1/thumb/v7e-m/fpv5/hard/libgcc.a(_aeabi_uldivmod.o)
                              /home/badr/GNAT/2018-arm-elf/arm-eabi/lib/gnat/ravenscar-sfp-stm32h743nucleo/adalib/libgnarl.a(a-reatim.o) (__aeabi_uldivmod)
/home/badr/GNAT/2018-arm-elf/bin/../lib/gcc/arm-eabi/7.3.1/thumb/v7e-m/fpv5/hard/libgcc.a(_udivmoddi4.o)
                              /home/badr/GNAT/2018-arm-elf/bin/../lib/gcc/arm-eabi/7.3.1/thumb/v7e-m/fpv5/hard/libgcc.a(_aeabi_ldivmod.o) (__udivmoddi4)
/home/badr/GNAT/2018-arm-elf/bin/../lib/gcc/arm-eabi/7.3.1/thumb/v7e-m/fpv5/hard/libgcc.a(_dvmd_tls.o)
                              /home/badr/GNAT/2018-arm-elf/bin/../lib/gcc/arm-eabi/7.3.1/thumb/v7e-m/fpv5/hard/libgcc.a(_aeabi_ldivmod.o) (__aeabi_ldiv0)

Memory Configuration

Name             Origin             Length             Attributes
ITCMRAM          0x0000000000000000 0x0000000000010000 xrw
FLASH            0x0000000008000000 0x0000000000200000 xr
DTCMRAM          0x0000000020000000 0x0000000000020000 xrw
RAM_D1           0x0000000024000000 0x0000000000080000 xrw
RAM_D2           0x0000000030000000 0x0000000000048000 xrw
RAM_D3           0x0000000038000000 0x0000000000010000 xrw
*default*        0x0000000000000000 0xffffffffffffffff

Linker script and memory map

LOAD spi.o
LOAD b__spi.o
LOAD /home/badr/hackinvent/Ada_Drivers_Library/boards/stm32h743_nucleo/obj/sfp_lib_Debug/libada_drivers_library.a
LOAD /home/badr/GNAT/2018-arm-elf/arm-eabi/lib/gnat/ravenscar-sfp-stm32h743nucleo/adalib/libgnarl.a
LOAD /home/badr/GNAT/2018-arm-elf/arm-eabi/lib/gnat/ravenscar-sfp-stm32h743nucleo/adalib/libgnat.a
START GROUP
LOAD /home/badr/GNAT/2018-arm-elf/bin/../lib/gcc/arm-eabi/7.3.1/thumb/v7e-m/fpv5/hard/libgcc.a
END GROUP
                0x0000000020020000                _estack = 0x20020000
                0x0000000000000200                _Min_Heap_Size = 0x200
                0x0000000000000400                _Min_Stack_Size = 0x400
                0x0000000000000000                __DYNAMIC = 0x0
                0x0000000000001000                _DEFAULT_STACK_SIZE = 0x1000

.text           0x0000000008000000     0xb8f4
 *(.vectors)
 .vectors       0x0000000008000000       0x14 /home/badr/GNAT/2018-arm-elf/arm-eabi/lib/gnat/ravenscar-sfp-stm32h743nucleo/adalib/libgnat.a(start-rom.o)
 *(.text .text.* .gnu.linkonce.t*)
 .text          0x0000000008000014       0x78 spi.o
                0x0000000008000040                _ada_spi
 .text          0x000000000800008c      0x168 b__spi.o
                0x000000000800008c                ada_main__Tsec_default_sized_stacksBIP
                0x00000000080000d0                adainit
                0x00000000080001bc                main
                0x00000000080001d8                ada_main___elabb
 .text          0x00000000080001f4        0x0 /home/badr/hackinvent/Ada_Drivers_Library/boards/stm32h743_nucleo/obj/sfp_lib_Debug/libada_drivers_library.a(stm32-board.o)
 .text.stm32__board__all_leds_off
                0x00000000080001f4       0x1c /home/badr/hackinvent/Ada_Drivers_Library/boards/stm32h743_nucleo/obj/sfp_lib_Debug/libada_drivers_library.a(stm32-board.o)
                0x00000000080001f4                stm32__board__all_leds_off
 .text.stm32__board__all_leds_on
                0x0000000008000210       0x1c /home/badr/hackinvent/Ada_Drivers_Library/boards/stm32h743_nucleo/obj/sfp_lib_Debug/libada_drivers_library.a(stm32-board.o)
                0x0000000008000210                stm32__board__all_leds_on
 .text.stm32__board__initialize_leds
                0x000000000800022c       0x2c /home/badr/hackinvent/Ada_Drivers_Library/boards/stm32h743_nucleo/obj/sfp_lib_Debug/libada_drivers_library.a(stm32-board.o)
                0x000000000800022c                stm32__board__initialize_leds
 .text.stm32__board__writeregister_spi4
                0x0000000008000258       0x84 /home/badr/hackinvent/Ada_Drivers_Library/boards/stm32h743_nucleo/obj/sfp_lib_Debug/libada_drivers_library.a(stm32-board.o)
                0x0000000008000258                stm32__board__writeregister_spi4
 .text.stm32__board__initialize_spi4
                0x00000000080002dc       0xa4 /home/badr/hackinvent/Ada_Drivers_Library/boards/stm32h743_nucleo/obj/sfp_lib_Debug/libada_drivers_library.a(stm32-board.o)
                0x00000000080002dc                stm32__board__initialize_spi4
 .text.stm32__board___elabs
                0x0000000008000380       0x98 /home/badr/hackinvent/Ada_Drivers_Library/boards/stm32h743_nucleo/obj/sfp_lib_Debug/libada_drivers_library.a(stm32-board.o)
                0x0000000008000380                stm32__board___elabs
 .text          0x0000000008000418        0x0 /home/badr/hackinvent/Ada_Drivers_Library/boards/stm32h743_nucleo/obj/sfp_lib_Debug/libada_drivers_library.a(stm32-device.o)
 .text.stm32__device__rcc_system_clocksIP
                0x0000000008000418       0x14 /home/badr/hackinvent/Ada_Drivers_Library/boards/stm32h743_nucleo/obj/sfp_lib_Debug/libada_drivers_library.a(stm32-device.o)
                0x0000000008000418                stm32__device__rcc_system_clocksIP
 .text.stm32__device__enable_clock_main
                0x000000000800042c      0x364 /home/badr/hackinvent/Ada_Drivers_Library/boards/stm32h743_nucleo/obj/sfp_lib_Debug/libada_drivers_library.a(stm32-device.o)
                0x000000000800042c                stm32__device__enable_clock_main
 .text.stm32__device__enable_clock
                0x0000000008000790      0x2f0 /home/badr/hackinvent/Ada_Drivers_Library/boards/stm32h743_nucleo/obj/sfp_lib_Debug/libada_drivers_library.a(stm32-device.o)
                0x0000000008000790                stm32__device__enable_clock
 .text.stm32__device__enable_clock__2
                0x0000000008000a80       0x18 /home/badr/hackinvent/Ada_Drivers_Library/boards/stm32h743_nucleo/obj/sfp_lib_Debug/libada_drivers_library.a(stm32-device.o)
                0x0000000008000a80                stm32__device__enable_clock__2
 .text.stm32__device__enable_clock__3
                0x0000000008000a98       0x4c /home/badr/hackinvent/Ada_Drivers_Library/boards/stm32h743_nucleo/obj/sfp_lib_Debug/libada_drivers_library.a(stm32-device.o)
                0x0000000008000a98                stm32__device__enable_clock__3
 .text.stm32__device__reset
                0x0000000008000ae4      0x3a4 /home/badr/hackinvent/Ada_Drivers_Library/boards/stm32h743_nucleo/obj/sfp_lib_Debug/libada_drivers_library.a(stm32-device.o)
                0x0000000008000ae4                stm32__device__reset
 .text.stm32__device__reset__2
                0x0000000008000e88       0x18 /home/badr/hackinvent/Ada_Drivers_Library/boards/stm32h743_nucleo/obj/sfp_lib_Debug/libada_drivers_library.a(stm32-device.o)
                0x0000000008000e88                stm32__device__reset__2
 .text.stm32__device__reset__3
                0x0000000008000ea0       0xbc /home/badr/hackinvent/Ada_Drivers_Library/boards/stm32h743_nucleo/obj/sfp_lib_Debug/libada_drivers_library.a(stm32-device.o)
                0x0000000008000ea0                stm32__device__reset__3
 .text.stm32__device__gpio_port_representation
                0x0000000008000f5c       0xd0 /home/badr/hackinvent/Ada_Drivers_Library/boards/stm32h743_nucleo/obj/sfp_lib_Debug/libada_drivers_library.a(stm32-device.o)
                0x0000000008000f5c                stm32__device__gpio_port_representation
 .text.stm32__device__enable_clock__4
                0x000000000800102c      0x254 /home/badr/hackinvent/Ada_Drivers_Library/boards/stm32h743_nucleo/obj/sfp_lib_Debug/libada_drivers_library.a(stm32-device.o)
                0x000000000800102c                stm32__device__enable_clock__4
 .text.stm32__device__reset__4
                0x0000000008001280      0x2b4 /home/badr/hackinvent/Ada_Drivers_Library/boards/stm32h743_nucleo/obj/sfp_lib_Debug/libada_drivers_library.a(stm32-device.o)
                0x0000000008001280                stm32__device__reset__4
 .text.stm32__device__system_clock_frequencies
                0x0000000008001534       0xf8 /home/badr/hackinvent/Ada_Drivers_Library/boards/stm32h743_nucleo/obj/sfp_lib_Debug/libada_drivers_library.a(stm32-device.o)
                0x0000000008001534                stm32__device__system_clock_frequencies
 .text.stm32__device___elabs
                0x000000000800162c     0x10c0 /home/badr/hackinvent/Ada_Drivers_Library/boards/stm32h743_nucleo/obj/sfp_lib_Debug/libada_drivers_library.a(stm32-device.o)
                0x000000000800162c                stm32__device___elabs
 .text          0x00000000080026ec        0x0 /home/badr/hackinvent/Ada_Drivers_Library/boards/stm32h743_nucleo/obj/sfp_lib_Debug/libada_drivers_library.a(stm32-exti.o)
 .text.stm32__exti__enable_external_interrupt
                0x00000000080026ec       0x1c /home/badr/hackinvent/Ada_Drivers_Library/boards/stm32h743_nucleo/obj/sfp_lib_Debug/libada_drivers_library.a(stm32-exti.o)
                0x00000000080026ec                stm32__exti__enable_external_interrupt
 .text.stm32__exti__disable_external_interrupt
                0x0000000008002708       0x18 /home/badr/hackinvent/Ada_Drivers_Library/boards/stm32h743_nucleo/obj/sfp_lib_Debug/libada_drivers_library.a(stm32-exti.o)
                0x0000000008002708                stm32__exti__disable_external_interrupt
 .text.stm32__exti__enable_external_event
                0x0000000008002720       0x1c /home/badr/hackinvent/Ada_Drivers_Library/boards/stm32h743_nucleo/obj/sfp_lib_Debug/libada_drivers_library.a(stm32-exti.o)
                0x0000000008002720                stm32__exti__enable_external_event
 .text.stm32__exti__disable_external_event
                0x000000000800273c       0x18 /home/badr/hackinvent/Ada_Drivers_Library/boards/stm32h743_nucleo/obj/sfp_lib_Debug/libada_drivers_library.a(stm32-exti.o)
                0x000000000800273c                stm32__exti__disable_external_event
 .text.stm32__exti__generate_swi
                0x0000000008002754       0x18 /home/badr/hackinvent/Ada_Drivers_Library/boards/stm32h743_nucleo/obj/sfp_lib_Debug/libada_drivers_library.a(stm32-exti.o)
                0x0000000008002754                stm32__exti__generate_swi
 .text.stm32__exti__external_interrupt_pending
                0x000000000800276c       0x1c /home/badr/hackinvent/Ada_Drivers_Library/boards/stm32h743_nucleo/obj/sfp_lib_Debug/libada_drivers_library.a(stm32-exti.o)
                0x000000000800276c                stm32__exti__external_interrupt_pending
 .text.stm32__exti__clear_external_interrupt
                0x0000000008002788       0x18 /home/badr/hackinvent/Ada_Drivers_Library/boards/stm32h743_nucleo/obj/sfp_lib_Debug/libada_drivers_library.a(stm32-exti.o)
                0x0000000008002788                stm32__exti__clear_external_interrupt
 .text          0x00000000080027a0        0x0 /home/badr/hackinvent/Ada_Drivers_Library/boards/stm32h743_nucleo/obj/sfp_lib_Debug/libada_drivers_library.a(stm32-gpio.o)
 .text.stm32__gpio__gpio_pinRP
                0x00000000080027a0       0xd0 /home/badr/hackinvent/Ada_Drivers_Library/boards/stm32h743_nucleo/obj/sfp_lib_Debug/libada_drivers_library.a(stm32-gpio.o)
                0x00000000080027a0                stm32__gpio__gpio_pinRP
 .text.stm32__gpio__gpio_pinsIP
                0x0000000008002870       0x14 /home/badr/hackinvent/Ada_Drivers_Library/boards/stm32h743_nucleo/obj/sfp_lib_Debug/libada_drivers_library.a(stm32-gpio.o)
                0x0000000008002870                stm32__gpio__gpio_pinsIP
 .text.stm32__gpio__gpio_portEQ
                0x0000000008002884       0x18 /home/badr/hackinvent/Ada_Drivers_Library/boards/stm32h743_nucleo/obj/sfp_lib_Debug/libada_drivers_library.a(stm32-gpio.o)
                0x0000000008002884                stm32__gpio__gpio_portEQ
 .text.stm32__gpio__gpio_port_configurationD2
                0x000000000800289c       0x24 /home/badr/hackinvent/Ada_Drivers_Library/boards/stm32h743_nucleo/obj/sfp_lib_Debug/libada_drivers_library.a(stm32-gpio.o)
                0x000000000800289c                stm32__gpio__gpio_port_configurationD2
 .text.stm32__gpio__gpio_port_configurationD3
                0x00000000080028c0       0x24 /home/badr/hackinvent/Ada_Drivers_Library/boards/stm32h743_nucleo/obj/sfp_lib_Debug/libada_drivers_library.a(stm32-gpio.o)
                0x00000000080028c0                stm32__gpio__gpio_port_configurationD3
 .text.stm32__gpio__gpio_port_configurationEQ
                0x00000000080028e4       0x90 /home/badr/hackinvent/Ada_Drivers_Library/boards/stm32h743_nucleo/obj/sfp_lib_Debug/libada_drivers_library.a(stm32-gpio.o)
                0x00000000080028e4                stm32__gpio__gpio_port_configurationEQ
 .text.stm32__gpio__gpio_port_configurationIP
                0x0000000008002974       0x28 /home/badr/hackinvent/Ada_Drivers_Library/boards/stm32h743_nucleo/obj/sfp_lib_Debug/libada_drivers_library.a(stm32-gpio.o)
                0x0000000008002974                stm32__gpio__gpio_port_configurationIP
 .text.stm32__gpio__gpio_pointIP
                0x000000000800299c       0x2c /home/badr/hackinvent/Ada_Drivers_Library/boards/stm32h743_nucleo/obj/sfp_lib_Debug/libada_drivers_library.a(stm32-gpio.o)
                0x000000000800299c                stm32__gpio__gpio_pointIP
 .text.stm32__gpio___size__2
                0x00000000080029c8       0x1c /home/badr/hackinvent/Ada_Drivers_Library/boards/stm32h743_nucleo/obj/sfp_lib_Debug/libada_drivers_library.a(stm32-gpio.o)
                0x00000000080029c8                stm32__gpio___size__2
 .text.stm32__gpio__Oeq
                0x00000000080029e4       0x34 /home/badr/hackinvent/Ada_Drivers_Library/boards/stm32h743_nucleo/obj/sfp_lib_Debug/libada_drivers_library.a(stm32-gpio.o)
                0x00000000080029e4                stm32__gpio__Oeq
 .text.stm32__gpio___assign
                0x0000000008002a18       0x24 /home/badr/hackinvent/Ada_Drivers_Library/boards/stm32h743_nucleo/obj/sfp_lib_Debug/libada_drivers_library.a(stm32-gpio.o)
                0x0000000008002a18                stm32__gpio___assign
 .text.stm32__gpio__gpio_pointsIP
                0x0000000008002a3c       0x44 /home/badr/hackinvent/Ada_Drivers_Library/boards/stm32h743_nucleo/obj/sfp_lib_Debug/libada_drivers_library.a(stm32-gpio.o)
                0x0000000008002a3c                stm32__gpio__gpio_pointsIP
 .text.stm32__gpio__support
                0x0000000008002a80       0x2c /home/badr/hackinvent/Ada_Drivers_Library/boards/stm32h743_nucleo/obj/sfp_lib_Debug/libada_drivers_library.a(stm32-gpio.o)
                0x0000000008002a80                stm32__gpio__support
 .text.stm32__gpio__any_set
                0x0000000008002aac       0x5c /home/badr/hackinvent/Ada_Drivers_Library/boards/stm32h743_nucleo/obj/sfp_lib_Debug/libada_drivers_library.a(stm32-gpio.o)
                0x0000000008002aac                stm32__gpio__any_set
 .text.stm32__gpio__mode
                0x0000000008002b08       0x58 /home/badr/hackinvent/Ada_Drivers_Library/boards/stm32h743_nucleo/obj/sfp_lib_Debug/libada_drivers_library.a(stm32-gpio.o)
                0x0000000008002b08                stm32__gpio__mode
 .text.stm32__gpio__pin_io_mode
                0x0000000008002b60       0x60 /home/badr/hackinvent/Ada_Drivers_Library/boards/stm32h743_nucleo/obj/sfp_lib_Debug/libada_drivers_library.a(stm32-gpio.o)
                0x0000000008002b60                stm32__gpio__pin_io_mode
 .text.stm32__gpio__set_mode
                0x0000000008002bc0      0x110 /home/badr/hackinvent/Ada_Drivers_Library/boards/stm32h743_nucleo/obj/sfp_lib_Debug/libada_drivers_library.a(stm32-gpio.o)
                0x0000000008002bc0                stm32__gpio__set_mode
 .text.stm32__gpio__pull_resistor
                0x0000000008002cd0       0xb8 /home/badr/hackinvent/Ada_Drivers_Library/boards/stm32h743_nucleo/obj/sfp_lib_Debug/libada_drivers_library.a(stm32-gpio.o)
                0x0000000008002cd0                stm32__gpio__pull_resistor
 .text.stm32__gpio__set_pull_resistor
                0x0000000008002d88      0x168 /home/badr/hackinvent/Ada_Drivers_Library/boards/stm32h743_nucleo/obj/sfp_lib_Debug/libada_drivers_library.a(stm32-gpio.o)
                0x0000000008002d88                stm32__gpio__set_pull_resistor
 .text.stm32__gpio__set
                0x0000000008002ef0       0x68 /home/badr/hackinvent/Ada_Drivers_Library/boards/stm32h743_nucleo/obj/sfp_lib_Debug/libada_drivers_library.a(stm32-gpio.o)
                0x0000000008002ef0                stm32__gpio__set
 .text.stm32__gpio__all_set
                0x0000000008002f58       0x64 /home/badr/hackinvent/Ada_Drivers_Library/boards/stm32h743_nucleo/obj/sfp_lib_Debug/libada_drivers_library.a(stm32-gpio.o)
                0x0000000008002f58                stm32__gpio__all_set
 .text.stm32__gpio__set__2
                0x0000000008002fbc       0x3c /home/badr/hackinvent/Ada_Drivers_Library/boards/stm32h743_nucleo/obj/sfp_lib_Debug/libada_drivers_library.a(stm32-gpio.o)
                0x0000000008002fbc                stm32__gpio__set__2
 .text.stm32__gpio__set__4
                0x0000000008002ff8       0x50 /home/badr/hackinvent/Ada_Drivers_Library/boards/stm32h743_nucleo/obj/sfp_lib_Debug/libada_drivers_library.a(stm32-gpio.o)
                0x0000000008002ff8                stm32__gpio__set__4
 .text.stm32__gpio__clear
                0x0000000008003048       0x3c /home/badr/hackinvent/Ada_Drivers_Library/boards/stm32h743_nucleo/obj/sfp_lib_Debug/libada_drivers_library.a(stm32-gpio.o)
                0x0000000008003048                stm32__gpio__clear
 .text.stm32__gpio__clear__2
                0x0000000008003084       0x50 /home/badr/hackinvent/Ada_Drivers_Library/boards/stm32h743_nucleo/obj/sfp_lib_Debug/libada_drivers_library.a(stm32-gpio.o)
                0x0000000008003084                stm32__gpio__clear__2
 .text.stm32__gpio__toggle
                0x00000000080030d4       0x78 /home/badr/hackinvent/Ada_Drivers_Library/boards/stm32h743_nucleo/obj/sfp_lib_Debug/libada_drivers_library.a(stm32-gpio.o)
                0x00000000080030d4                stm32__gpio__toggle
 .text.stm32__gpio__toggle__2
                0x000000000800314c       0x50 /home/badr/hackinvent/Ada_Drivers_Library/boards/stm32h743_nucleo/obj/sfp_lib_Debug/libada_drivers_library.a(stm32-gpio.o)
                0x000000000800314c                stm32__gpio__toggle__2
 .text.stm32__gpio__locked
                0x000000000800319c       0x4c /home/badr/hackinvent/Ada_Drivers_Library/boards/stm32h743_nucleo/obj/sfp_lib_Debug/libada_drivers_library.a(stm32-gpio.o)
                0x000000000800319c                stm32__gpio__locked
 .text.stm32__gpio__lock_the_pin
                0x00000000080031e8       0x34 /home/badr/hackinvent/Ada_Drivers_Library/boards/stm32h743_nucleo/obj/sfp_lib_Debug/libada_drivers_library.a(stm32-gpio.o)
 .text.stm32__gpio__lock___postconditions.6857
                0x000000000800321c       0x3c /home/badr/hackinvent/Ada_Drivers_Library/boards/stm32h743_nucleo/obj/sfp_lib_Debug/libada_drivers_library.a(stm32-gpio.o)
 .text.stm32__gpio__lock
                0x0000000008003258       0x88 /home/badr/hackinvent/Ada_Drivers_Library/boards/stm32h743_nucleo/obj/sfp_lib_Debug/libada_drivers_library.a(stm32-gpio.o)
                0x0000000008003258                stm32__gpio__lock
 .text.stm32__gpio__lock__2
                0x00000000080032e0       0x70 /home/badr/hackinvent/Ada_Drivers_Library/boards/stm32h743_nucleo/obj/sfp_lib_Debug/libada_drivers_library.a(stm32-gpio.o)
                0x00000000080032e0                stm32__gpio__lock__2
 .text.stm32__gpio__configure_io
                0x0000000008003350      0x370 /home/badr/hackinvent/Ada_Drivers_Library/boards/stm32h743_nucleo/obj/sfp_lib_Debug/libada_drivers_library.a(stm32-gpio.o)
                0x0000000008003350                stm32__gpio__configure_io
 .text.stm32__gpio__configure_io__2
                0x00000000080036c0       0x50 /home/badr/hackinvent/Ada_Drivers_Library/boards/stm32h743_nucleo/obj/sfp_lib_Debug/libada_drivers_library.a(stm32-gpio.o)
                0x00000000080036c0                stm32__gpio__configure_io__2
 .text.stm32__gpio__configure_alternate_function
                0x0000000008003710      0x118 /home/badr/hackinvent/Ada_Drivers_Library/boards/stm32h743_nucleo/obj/sfp_lib_Debug/libada_drivers_library.a(stm32-gpio.o)
                0x0000000008003710                stm32__gpio__configure_alternate_function
 .text.stm32__gpio__configure_alternate_function__2
                0x0000000008003828       0x54 /home/badr/hackinvent/Ada_Drivers_Library/boards/stm32h743_nucleo/obj/sfp_lib_Debug/libada_drivers_library.a(stm32-gpio.o)
                0x0000000008003828                stm32__gpio__configure_alternate_function__2
 .text.stm32__gpio__interrupt_line_number
                0x000000000800387c       0x60 /home/badr/hackinvent/Ada_Drivers_Library/boards/stm32h743_nucleo/obj/sfp_lib_Debug/libada_drivers_library.a(stm32-gpio.o)
                0x000000000800387c                stm32__gpio__interrupt_line_number
 .text.stm32__gpio__configure_trigger
                0x00000000080038dc       0x9c /home/badr/hackinvent/Ada_Drivers_Library/boards/stm32h743_nucleo/obj/sfp_lib_Debug/libada_drivers_library.a(stm32-gpio.o)
                0x00000000080038dc                stm32__gpio__configure_trigger
 .text.stm32__gpio__configure_trigger__2
                0x0000000008003978       0x54 /home/badr/hackinvent/Ada_Drivers_Library/boards/stm32h743_nucleo/obj/sfp_lib_Debug/libada_drivers_library.a(stm32-gpio.o)
                0x0000000008003978                stm32__gpio__configure_trigger__2
 .text.stm32__gpio___elabb
                0x00000000080039cc       0x68 /home/badr/hackinvent/Ada_Drivers_Library/boards/stm32h743_nucleo/obj/sfp_lib_Debug/libada_drivers_library.a(stm32-gpio.o)
                0x00000000080039cc                stm32__gpio___elabb
 .text._GLOBAL__SZ39_stm32__gpio
                0x0000000008003a34       0x34 /home/badr/hackinvent/Ada_Drivers_Library/boards/stm32h743_nucleo/obj/sfp_lib_Debug/libada_drivers_library.a(stm32-gpio.o)
 .text          0x0000000008003a68        0x0 /home/badr/hackinvent/Ada_Drivers_Library/boards/stm32h743_nucleo/obj/sfp_lib_Debug/libada_drivers_library.a(stm32-rcc.o)
 .text.stm32__rcc__syscfg_clock_enable
                0x0000000008003a68       0x24 /home/badr/hackinvent/Ada_Drivers_Library/boards/stm32h743_nucleo/obj/sfp_lib_Debug/libada_drivers_library.a(stm32-rcc.o)
                0x0000000008003a68                stm32__rcc__syscfg_clock_enable
 .text          0x0000000008003a8c        0x0 /home/badr/hackinvent/Ada_Drivers_Library/boards/stm32h743_nucleo/obj/sfp_lib_Debug/libada_drivers_library.a(stm32-spi.o)
 .text.stm32__spi__spi_portIP
                0x0000000008003a8c       0x30 /home/badr/hackinvent/Ada_Drivers_Library/boards/stm32h743_nucleo/obj/sfp_lib_Debug/libada_drivers_library.a(stm32-spi.o)
                0x0000000008003a8c                stm32__spi__spi_portIP
 .text.stm32__spi___size__2
                0x0000000008003abc       0x1c /home/badr/hackinvent/Ada_Drivers_Library/boards/stm32h743_nucleo/obj/sfp_lib_Debug/libada_drivers_library.a(stm32-spi.o)
                0x0000000008003abc                stm32__spi___size__2
 .text.stm32__spi__spi_configurationIP
                0x0000000008003ad8       0x14 /home/badr/hackinvent/Ada_Drivers_Library/boards/stm32h743_nucleo/obj/sfp_lib_Debug/libada_drivers_library.a(stm32-spi.o)
                0x0000000008003ad8                stm32__spi__spi_configurationIP
 .text.stm32__spi__uint8_bufferIP
                0x0000000008003aec       0x14 /home/badr/hackinvent/Ada_Drivers_Library/boards/stm32h743_nucleo/obj/sfp_lib_Debug/libada_drivers_library.a(stm32-spi.o)
                0x0000000008003aec                stm32__spi__uint8_bufferIP
 .text.stm32__spi__testconfigure
                0x0000000008003b00       0xe0 /home/badr/hackinvent/Ada_Drivers_Library/boards/stm32h743_nucleo/obj/sfp_lib_Debug/libada_drivers_library.a(stm32-spi.o)
                0x0000000008003b00                stm32__spi__testconfigure
 .text.stm32__spi__testtrasmit
                0x0000000008003be0       0xa0 /home/badr/hackinvent/Ada_Drivers_Library/boards/stm32h743_nucleo/obj/sfp_lib_Debug/libada_drivers_library.a(stm32-spi.o)
                0x0000000008003be0                stm32__spi__testtrasmit
 .text.stm32__spi__configure
                0x0000000008003c80      0x2e4 /home/badr/hackinvent/Ada_Drivers_Library/boards/stm32h743_nucleo/obj/sfp_lib_Debug/libada_drivers_library.a(stm32-spi.o)
                0x0000000008003c80                stm32__spi__configure
 .text.stm32__spi__enable
                0x0000000008003f64       0x54 /home/badr/hackinvent/Ada_Drivers_Library/boards/stm32h743_nucleo/obj/sfp_lib_Debug/libada_drivers_library.a(stm32-spi.o)
                0x0000000008003f64                stm32__spi__enable
 .text.stm32__spi__disable
                0x0000000008003fb8       0x3c /home/badr/hackinvent/Ada_Drivers_Library/boards/stm32h743_nucleo/obj/sfp_lib_Debug/libada_drivers_library.a(stm32-spi.o)
                0x0000000008003fb8                stm32__spi__disable
 .text.stm32__spi__enabled
                0x0000000008003ff4       0x3c /home/badr/hackinvent/Ada_Drivers_Library/boards/stm32h743_nucleo/obj/sfp_lib_Debug/libada_drivers_library.a(stm32-spi.o)
                0x0000000008003ff4                stm32__spi__enabled
 .text.stm32__spi__send
                0x0000000008004030       0x38 /home/badr/hackinvent/Ada_Drivers_Library/boards/stm32h743_nucleo/obj/sfp_lib_Debug/libada_drivers_library.a(stm32-spi.o)
                0x0000000008004030                stm32__spi__send
 .text.stm32__spi__data
                0x0000000008004068       0x1c /home/badr/hackinvent/Ada_Drivers_Library/boards/stm32h743_nucleo/obj/sfp_lib_Debug/libada_drivers_library.a(stm32-spi.o)
                0x0000000008004068                stm32__spi__data
 .text.stm32__spi__send__2
                0x0000000008004084       0x3c /home/badr/hackinvent/Ada_Drivers_Library/boards/stm32h743_nucleo/obj/sfp_lib_Debug/libada_drivers_library.a(stm32-spi.o)
                0x0000000008004084                stm32__spi__send__2
 .text.stm32__spi__data__2
                0x00000000080040c0       0x2c /home/badr/hackinvent/Ada_Drivers_Library/boards/stm32h743_nucleo/obj/sfp_lib_Debug/libada_drivers_library.a(stm32-spi.o)
                0x00000000080040c0                stm32__spi__data__2
 .text.stm32__spi__send__3
                0x00000000080040ec       0x3c /home/badr/hackinvent/Ada_Drivers_Library/boards/stm32h743_nucleo/obj/sfp_lib_Debug/libada_drivers_library.a(stm32-spi.o)
                0x00000000080040ec                stm32__spi__send__3
 .text.stm32__spi__data__3
                0x0000000008004128       0x30 /home/badr/hackinvent/Ada_Drivers_Library/boards/stm32h743_nucleo/obj/sfp_lib_Debug/libada_drivers_library.a(stm32-spi.o)
                0x0000000008004128                stm32__spi__data__3
 .text.stm32__spi__is_busy
                0x0000000008004158       0x44 /home/badr/hackinvent/Ada_Drivers_Library/boards/stm32h743_nucleo/obj/sfp_lib_Debug/libada_drivers_library.a(stm32-spi.o)
                0x0000000008004158                stm32__spi__is_busy
 .text.stm32__spi__tx_is_empty
                0x000000000800419c       0x24 /home/badr/hackinvent/Ada_Drivers_Library/boards/stm32h743_nucleo/obj/sfp_lib_Debug/libada_drivers_library.a(stm32-spi.o)
                0x000000000800419c                stm32__spi__tx_is_empty
 .text.stm32__spi__rx_is_empty
                0x00000000080041c0       0x30 /home/badr/hackinvent/Ada_Drivers_Library/boards/stm32h743_nucleo/obj/sfp_lib_Debug/libada_drivers_library.a(stm32-spi.o)
                0x00000000080041c0                stm32__spi__rx_is_empty
 .text.stm32__spi__busy
                0x00000000080041f0       0x30 /home/badr/hackinvent/Ada_Drivers_Library/boards/stm32h743_nucleo/obj/sfp_lib_Debug/libada_drivers_library.a(stm32-spi.o)
                0x00000000080041f0                stm32__spi__busy
 .text.stm32__spi__current_mode
                0x0000000008004220       0x50 /home/badr/hackinvent/Ada_Drivers_Library/boards/stm32h743_nucleo/obj/sfp_lib_Debug/libada_drivers_library.a(stm32-spi.o)
                0x0000000008004220                stm32__spi__current_mode
 .text.stm32__spi__current_data_direction
                0x0000000008004270       0xa4 /home/badr/hackinvent/Ada_Drivers_Library/boards/stm32h743_nucleo/obj/sfp_lib_Debug/libada_drivers_library.a(stm32-spi.o)
                0x0000000008004270                stm32__spi__current_data_direction
 .text.stm32__spi__crc_enabled
                0x0000000008004314       0x24 /home/badr/hackinvent/Ada_Drivers_Library/boards/stm32h743_nucleo/obj/sfp_lib_Debug/libada_drivers_library.a(stm32-spi.o)
                0x0000000008004314                stm32__spi__crc_enabled
 .text.stm32__spi__channel_side_indicated
                0x0000000008004338       0x18 /home/badr/hackinvent/Ada_Drivers_Library/boards/stm32h743_nucleo/obj/sfp_lib_Debug/libada_drivers_library.a(stm32-spi.o)
                0x0000000008004338                stm32__spi__channel_side_indicated
 .text.stm32__spi__underrun_indicated
                0x0000000008004350       0x24 /home/badr/hackinvent/Ada_Drivers_Library/boards/stm32h743_nucleo/obj/sfp_lib_Debug/libada_drivers_library.a(stm32-spi.o)
                0x0000000008004350                stm32__spi__underrun_indicated
 .text.stm32__spi__crc_error_indicated
                0x0000000008004374       0x24 /home/badr/hackinvent/Ada_Drivers_Library/boards/stm32h743_nucleo/obj/sfp_lib_Debug/libada_drivers_library.a(stm32-spi.o)
                0x0000000008004374                stm32__spi__crc_error_indicated
 .text.stm32__spi__mode_fault_indicated
                0x0000000008004398       0x24 /home/badr/hackinvent/Ada_Drivers_Library/boards/stm32h743_nucleo/obj/sfp_lib_Debug/libada_drivers_library.a(stm32-spi.o)
                0x0000000008004398                stm32__spi__mode_fault_indicated
 .text.stm32__spi__overrun_indicated
                0x00000000080043bc       0x24 /home/badr/hackinvent/Ada_Drivers_Library/boards/stm32h743_nucleo/obj/sfp_lib_Debug/libada_drivers_library.a(stm32-spi.o)
                0x00000000080043bc                stm32__spi__overrun_indicated
 .text.stm32__spi__frame_fmt_error_indicated
                0x00000000080043e0       0x24 /home/badr/hackinvent/Ada_Drivers_Library/boards/stm32h743_nucleo/obj/sfp_lib_Debug/libada_drivers_library.a(stm32-spi.o)
                0x00000000080043e0                stm32__spi__frame_fmt_error_indicated
 .text.stm32__spi__clear_overrun
                0x0000000008004404       0x40 /home/badr/hackinvent/Ada_Drivers_Library/boards/stm32h743_nucleo/obj/sfp_lib_Debug/libada_drivers_library.a(stm32-spi.o)
                0x0000000008004404                stm32__spi__clear_overrun
 .text.stm32__spi__reset_crc
                0x0000000008004444       0x5c /home/badr/hackinvent/Ada_Drivers_Library/boards/stm32h743_nucleo/obj/sfp_lib_Debug/libada_drivers_library.a(stm32-spi.o)
                0x0000000008004444                stm32__spi__reset_crc
 .text.stm32__spi__is_data_frame_16bit
                0x00000000080044a0       0x4c /home/badr/hackinvent/Ada_Drivers_Library/boards/stm32h743_nucleo/obj/sfp_lib_Debug/libada_drivers_library.a(stm32-spi.o)
                0x00000000080044a0                stm32__spi__is_data_frame_16bit
 .text.stm32__spi__data_size
                0x00000000080044ec       0x4c /home/badr/hackinvent/Ada_Drivers_Library/boards/stm32h743_nucleo/obj/sfp_lib_Debug/libada_drivers_library.a(stm32-spi.o)
                0x00000000080044ec                stm32__spi__data_size
 .text.stm32__spi__transmit
                0x0000000008004538       0xd4 /home/badr/hackinvent/Ada_Drivers_Library/boards/stm32h743_nucleo/obj/sfp_lib_Debug/libada_drivers_library.a(stm32-spi.o)
                0x0000000008004538                stm32__spi__transmit
 .text.stm32__spi__transmit__2
                0x000000000800460c       0xd8 /home/badr/hackinvent/Ada_Drivers_Library/boards/stm32h743_nucleo/obj/sfp_lib_Debug/libada_drivers_library.a(stm32-spi.o)
                0x000000000800460c                stm32__spi__transmit__2
 .text.stm32__spi__transmit__3
                0x00000000080046e4       0xa0 /home/badr/hackinvent/Ada_Drivers_Library/boards/stm32h743_nucleo/obj/sfp_lib_Debug/libada_drivers_library.a(stm32-spi.o)
                0x00000000080046e4                stm32__spi__transmit__3
 .text.stm32__spi__receive
                0x0000000008004784       0xcc /home/badr/hackinvent/Ada_Drivers_Library/boards/stm32h743_nucleo/obj/sfp_lib_Debug/libada_drivers_library.a(stm32-spi.o)
                0x0000000008004784                stm32__spi(long double,...)(char,...)(int, void,...)
 .text.stm32__spi__receive__2
                0x0000000008004850       0xcc /home/badr/hackinvent/Ada_Drivers_Library/boards/stm32h743_nucleo/obj/sfp_lib_Debug/libada_drivers_library.a(stm32-spi.o)
                0x0000000008004850                stm32__spi__receive__2
 .text.stm32__spi__receive__3
                0x000000000800491c       0xf4 /home/badr/hackinvent/Ada_Drivers_Library/boards/stm32h743_nucleo/obj/sfp_lib_Debug/libada_drivers_library.a(stm32-spi.o)
                0x000000000800491c                stm32__spi__receive__3
 .text.stm32__spi__transmit_receive
                0x0000000008004a10      0x144 /home/badr/hackinvent/Ada_Drivers_Library/boards/stm32h743_nucleo/obj/sfp_lib_Debug/libada_drivers_library.a(stm32-spi.o)
                0x0000000008004a10                stm32__spi__transmit_receive
 .text.stm32__spi__transmit_receive__2
                0x0000000008004b54      0x110 /home/badr/hackinvent/Ada_Drivers_Library/boards/stm32h743_nucleo/obj/sfp_lib_Debug/libada_drivers_library.a(stm32-spi.o)
                0x0000000008004b54                stm32__spi__transmit_receive__2
 .text.stm32__spi__data_rx_register_address
                0x0000000008004c64       0x38 /home/badr/hackinvent/Ada_Drivers_Library/boards/stm32h743_nucleo/obj/sfp_lib_Debug/libada_drivers_library.a(stm32-spi.o)
                0x0000000008004c64                stm32__spi__data_rx_register_address
 .text.stm32__spi__data_tx_register_address
                0x0000000008004c9c       0x38 /home/badr/hackinvent/Ada_Drivers_Library/boards/stm32h743_nucleo/obj/sfp_lib_Debug/libada_drivers_library.a(stm32-spi.o)
                0x0000000008004c9c                stm32__spi__data_tx_register_address
 .text.stm32__spi__send_receive_16bit_mode
                0x0000000008004cd4      0x320 /home/badr/hackinvent/Ada_Drivers_Library/boards/stm32h743_nucleo/obj/sfp_lib_Debug/libada_drivers_library.a(stm32-spi.o)
                0x0000000008004cd4                stm32__spi__send_receive_16bit_mode
 .text.stm32__spi__send_receive_8bit_mode
                0x0000000008004ff4      0x2dc /home/badr/hackinvent/Ada_Drivers_Library/boards/stm32h743_nucleo/obj/sfp_lib_Debug/libada_drivers_library.a(stm32-spi.o)
                0x0000000008004ff4                stm32__spi__send_receive_8bit_mode
 .text.stm32__spi__send_16bit_mode
                0x00000000080052d0      0x1c8 /home/badr/hackinvent/Ada_Drivers_Library/boards/stm32h743_nucleo/obj/sfp_lib_Debug/libada_drivers_library.a(stm32-spi.o)
                0x00000000080052d0                stm32__spi__send_16bit_mode
 .text.stm32__spi__send_8bit_mode
                0x0000000008005498      0x1b8 /home/badr/hackinvent/Ada_Drivers_Library/boards/stm32h743_nucleo/obj/sfp_lib_Debug/libada_drivers_library.a(stm32-spi.o)
                0x0000000008005498                stm32__spi__send_8bit_mode
 .text.stm32__spi__receive_16bit_mode
                0x0000000008005650       0xb8 /home/badr/hackinvent/Ada_Drivers_Library/boards/stm32h743_nucleo/obj/sfp_lib_Debug/libada_drivers_library.a(stm32-spi.o)
                0x0000000008005650                stm32__spi__receive_16bit_mode
 .text.stm32__spi__receive_8bit_mode
                0x0000000008005708       0xb0 /home/badr/hackinvent/Ada_Drivers_Library/boards/stm32h743_nucleo/obj/sfp_lib_Debug/libada_drivers_library.a(stm32-spi.o)
                0x0000000008005708                stm32__spi__receive_8bit_mode
 .text.stm32__spi___elabb
                0x00000000080057b8      0x144 /home/badr/hackinvent/Ada_Drivers_Library/boards/stm32h743_nucleo/obj/sfp_lib_Debug/libada_drivers_library.a(stm32-spi.o)
                0x00000000080057b8                stm32__spi___elabb
 .text          0x00000000080058fc        0x0 /home/badr/hackinvent/Ada_Drivers_Library/boards/stm32h743_nucleo/obj/sfp_lib_Debug/libada_drivers_library.a(stm32-syscfg.o)
 .text.stm32__syscfg__connect_external_interrupt__4
                0x00000000080058fc      0x214 /home/badr/hackinvent/Ada_Drivers_Library/boards/stm32h743_nucleo/obj/sfp_lib_Debug/libada_drivers_library.a(stm32-syscfg.o)
                0x00000000080058fc                stm32__syscfg__connect_external_interrupt__4
 .text.stm32__syscfg__connect_external_interrupt
                0x0000000008005b10       0x3c /home/badr/hackinvent/Ada_Drivers_Library/boards/stm32h743_nucleo/obj/sfp_lib_Debug/libada_drivers_library.a(stm32-syscfg.o)
                0x0000000008005b10                stm32__syscfg__connect_external_interrupt
 .text.stm32__syscfg__connect_external_interrupt__2
                0x0000000008005b4c       0x34 /home/badr/hackinvent/Ada_Drivers_Library/boards/stm32h743_nucleo/obj/sfp_lib_Debug/libada_drivers_library.a(stm32-syscfg.o)
                0x0000000008005b4c                stm32__syscfg__connect_external_interrupt__2
 .text.stm32__syscfg__connect_external_interrupt__3
                0x0000000008005b80       0x44 /home/badr/hackinvent/Ada_Drivers_Library/boards/stm32h743_nucleo/obj/sfp_lib_Debug/libada_drivers_library.a(stm32-syscfg.o)
                0x0000000008005b80                stm32__syscfg__connect_external_interrupt__3
 .text.stm32__syscfg__clear_external_interrupt
                0x0000000008005bc4       0x44 /home/badr/hackinvent/Ada_Drivers_Library/boards/stm32h743_nucleo/obj/sfp_lib_Debug/libada_drivers_library.a(stm32-syscfg.o)
                0x0000000008005bc4                stm32__syscfg__clear_external_interrupt
 .text          0x0000000008005c08        0x0 /home/badr/hackinvent/Ada_Drivers_Library/boards/stm32h743_nucleo/obj/sfp_lib_Debug/libada_drivers_library.a(hal-gpio.o)
 .text          0x0000000008005c08        0x0 /home/badr/hackinvent/Ada_Drivers_Library/boards/stm32h743_nucleo/obj/sfp_lib_Debug/libada_drivers_library.a(hal-spi.o)
 .text.hal__spi__spi_data_8bIP
                0x0000000008005c08       0x14 /home/badr/hackinvent/Ada_Drivers_Library/boards/stm32h743_nucleo/obj/sfp_lib_Debug/libada_drivers_library.a(hal-spi.o)
                0x0000000008005c08                hal__spi__spi_data_8bIP
 .text.hal__spi__spi_data_16bIP
                0x0000000008005c1c       0x14 /home/badr/hackinvent/Ada_Drivers_Library/boards/stm32h743_nucleo/obj/sfp_lib_Debug/libada_drivers_library.a(hal-spi.o)
                0x0000000008005c1c                hal__spi__spi_data_16bIP
 .text          0x0000000008005c30        0x0 /home/badr/GNAT/2018-arm-elf/arm-eabi/lib/gnat/ravenscar-sfp-stm32h743nucleo/adalib/libgnarl.a(a-reatim.o)
 .text.ada__real_time__Oadd__2
                0x0000000008005c30       0x2c /home/badr/GNAT/2018-arm-elf/arm-eabi/lib/gnat/ravenscar-sfp-stm32h743nucleo/adalib/libgnarl.a(a-reatim.o)
                0x0000000008005c30                ada__real_time__Oadd__2
 .text.ada__real_time__Omultiply
                0x0000000008005c5c      0x100 /home/badr/GNAT/2018-arm-elf/arm-eabi/lib/gnat/ravenscar-sfp-stm32h743nucleo/adalib/libgnarl.a(a-reatim.o)
                0x0000000008005c5c                ada__real_time__Omultiply
 .text.ada__real_time__Omultiply__2
                0x0000000008005d5c       0x28 /home/badr/GNAT/2018-arm-elf/arm-eabi/lib/gnat/ravenscar-sfp-stm32h743nucleo/adalib/libgnarl.a(a-reatim.o)
                0x0000000008005d5c                ada__real_time__Omultiply__2
 .text.ada__real_time__Oadd
                0x0000000008005d84       0xec /home/badr/GNAT/2018-arm-elf/arm-eabi/lib/gnat/ravenscar-sfp-stm32h743nucleo/adalib/libgnarl.a(a-reatim.o)
                0x0000000008005d84                ada__real_time__Oadd
 .text.ada__real_time__Oadd__3
                0x0000000008005e70       0x5c /home/badr/GNAT/2018-arm-elf/arm-eabi/lib/gnat/ravenscar-sfp-stm32h743nucleo/adalib/libgnarl.a(a-reatim.o)
                0x0000000008005e70                ada__real_time__Oadd__3
 .text.ada__real_time__Osubtract
                0x0000000008005ecc       0xe8 /home/badr/GNAT/2018-arm-elf/arm-eabi/lib/gnat/ravenscar-sfp-stm32h743nucleo/adalib/libgnarl.a(a-reatim.o)
                0x0000000008005ecc                ada__real_time__Osubtract
 .text.ada__real_time__Osubtract__2
                0x0000000008005fb4      0x104 /home/badr/GNAT/2018-arm-elf/arm-eabi/lib/gnat/ravenscar-sfp-stm32h743nucleo/adalib/libgnarl.a(a-reatim.o)
                0x0000000008005fb4                ada__real_time__Osubtract__2
 .text.ada__real_time__Osubtract__3
                0x00000000080060b8       0x60 /home/badr/GNAT/2018-arm-elf/arm-eabi/lib/gnat/ravenscar-sfp-stm32h743nucleo/adalib/libgnarl.a(a-reatim.o)
                0x00000000080060b8                ada__real_time__Osubtract__3
 .text.ada__real_time__Osubtract__4
                0x0000000008006118       0x3c /home/badr/GNAT/2018-arm-elf/arm-eabi/lib/gnat/ravenscar-sfp-stm32h743nucleo/adalib/libgnarl.a(a-reatim.o)
                0x0000000008006118                ada__real_time__Osubtract__4
 .text.ada__real_time__Odivide
                0x0000000008006154       0x84 /home/badr/GNAT/2018-arm-elf/arm-eabi/lib/gnat/ravenscar-sfp-stm32h743nucleo/adalib/libgnarl.a(a-reatim.o)
                0x0000000008006154                ada__real_time(double &&, int, void, int, double,...)
 .text.ada__real_time__Odivide__2
                0x00000000080061d8       0x64 /home/badr/GNAT/2018-arm-elf/arm-eabi/lib/gnat/ravenscar-sfp-stm32h743nucleo/adalib/libgnarl.a(a-reatim.o)
                0x00000000080061d8                ada__real_time__Odivide__2
 .text.ada__real_time__clock
                0x000000000800623c       0x14 /home/badr/GNAT/2018-arm-elf/arm-eabi/lib/gnat/ravenscar-sfp-stm32h743nucleo/adalib/libgnarl.a(a-reatim.o)
                0x000000000800623c                ada__real_time__clock
 .text.ada__real_time__microseconds
                0x0000000008006250       0x48 /home/badr/GNAT/2018-arm-elf/arm-eabi/lib/gnat/ravenscar-sfp-stm32h743nucleo/adalib/libgnarl.a(a-reatim.o)
                0x0000000008006250                ada__real_time__microseconds
 .text.ada__real_time__milliseconds
                0x0000000008006298       0x48 /home/badr/GNAT/2018-arm-elf/arm-eabi/lib/gnat/ravenscar-sfp-stm32h743nucleo/adalib/libgnarl.a(a-reatim.o)
                0x0000000008006298                ada__real_time__milliseconds
 .text.ada__real_time__minutes
                0x00000000080062e0       0xd0 /home/badr/GNAT/2018-arm-elf/arm-eabi/lib/gnat/ravenscar-sfp-stm32h743nucleo/adalib/libgnarl.a(a-reatim.o)
                0x00000000080062e0                ada__real_time__minutes
 .text.ada__real_time__mul_div
                0x00000000080063b0      0x22c /home/badr/GNAT/2018-arm-elf/arm-eabi/lib/gnat/ravenscar-sfp-stm32h743nucleo/adalib/libgnarl.a(a-reatim.o)
 *fill*         0x00000000080065dc        0x4 
 .text.ada__real_time__nanoseconds
                0x00000000080065e0       0x4c /home/badr/GNAT/2018-arm-elf/arm-eabi/lib/gnat/ravenscar-sfp-stm32h743nucleo/adalib/libgnarl.a(a-reatim.o)
                0x00000000080065e0                ada__real_time__nanoseconds
 .text.ada__real_time__rounded_div
                0x000000000800662c       0xb0 /home/badr/GNAT/2018-arm-elf/arm-eabi/lib/gnat/ravenscar-sfp-stm32h743nucleo/adalib/libgnarl.a(a-reatim.o)
                0x000000000800662c                ada__real_time__rounded_div
 .text.ada__real_time__seconds
                0x00000000080066dc       0x38 /home/badr/GNAT/2018-arm-elf/arm-eabi/lib/gnat/ravenscar-sfp-stm32h743nucleo/adalib/libgnarl.a(a-reatim.o)
                0x00000000080066dc                ada__real_time__seconds
 *fill*         0x0000000008006714        0x4 
 .text.ada__real_time__split
                0x0000000008006718       0x84 /home/badr/GNAT/2018-arm-elf/arm-eabi/lib/gnat/ravenscar-sfp-stm32h743nucleo/adalib/libgnarl.a(a-reatim.o)
                0x0000000008006718                ada__real_time__split
 *fill*         0x000000000800679c        0x4 
 .text.ada__real_time__time_of
                0x00000000080067a0      0x1c0 /home/badr/GNAT/2018-arm-elf/arm-eabi/lib/gnat/ravenscar-sfp-stm32h743nucleo/adalib/libgnarl.a(a-reatim.o)
                0x00000000080067a0                ada__real_time__time_of
 .text.ada__real_time__to_duration
                0x0000000008006960       0x30 /home/badr/GNAT/2018-arm-elf/arm-eabi/lib/gnat/ravenscar-sfp-stm32h743nucleo/adalib/libgnarl.a(a-reatim.o)
                0x0000000008006960                ada__real_time__to_duration
 .text.ada__real_time__to_time_span
                0x0000000008006990       0x30 /home/badr/GNAT/2018-arm-elf/arm-eabi/lib/gnat/ravenscar-sfp-stm32h743nucleo/adalib/libgnarl.a(a-reatim.o)
                0x0000000008006990                ada__real_time__to_time_span
 .text.ada__real_time___elabb
                0x00000000080069c0        0xc /home/badr/GNAT/2018-arm-elf/arm-eabi/lib/gnat/ravenscar-sfp-stm32h743nucleo/adalib/libgnarl.a(a-reatim.o)
                0x00000000080069c0                ada__real_time___elabb
 .text          0x00000000080069cc        0x0 /home/badr/GNAT/2018-arm-elf/arm-eabi/lib/gnat/ravenscar-sfp-stm32h743nucleo/adalib/libgnarl.a(a-retide.o)
 .text.ada__real_time__delays__delay_until
                0x00000000080069cc       0x40 /home/badr/GNAT/2018-arm-elf/arm-eabi/lib/gnat/ravenscar-sfp-stm32h743nucleo/adalib/libgnarl.a(a-retide.o)
                0x00000000080069cc                ada__real_time__delays__delay_until
 .text.ada__real_time__delays__to_duration
                0x0000000008006a0c       0x20 /home/badr/GNAT/2018-arm-elf/arm-eabi/lib/gnat/ravenscar-sfp-stm32h743nucleo/adalib/libgnarl.a(a-retide.o)
                0x0000000008006a0c                ada__real_time__delays__to_duration
 .text          0x0000000008006a2c        0x0 /home/badr/GNAT/2018-arm-elf/arm-eabi/lib/gnat/ravenscar-sfp-stm32h743nucleo/adalib/libgnarl.a(s-bbtiev.o)
 .text.system__bb__timing_events__timing_eventIP
                0x0000000008006a2c       0x44 /home/badr/GNAT/2018-arm-elf/arm-eabi/lib/gnat/ravenscar-sfp-stm32h743nucleo/adalib/libgnarl.a(s-bbtiev.o)
                0x0000000008006a2c                system__bb__timing_events__timing_eventIP
 .text.system__bb__timing_events___size
                0x0000000008006a70       0x1c /home/badr/GNAT/2018-arm-elf/arm-eabi/lib/gnat/ravenscar-sfp-stm32h743nucleo/adalib/libgnarl.a(s-bbtiev.o)
                0x0000000008006a70                system__bb__timing_events___size
 .text.system__bb__timing_events__set_handler
                0x0000000008006a8c       0x9c /home/badr/GNAT/2018-arm-elf/arm-eabi/lib/gnat/ravenscar-sfp-stm32h743nucleo/adalib/libgnarl.a(s-bbtiev.o)
                0x0000000008006a8c                system__bb__timing_events__set_handler
 .text.system__bb__timing_events__cancel_handler
                0x0000000008006b28       0x78 /home/badr/GNAT/2018-arm-elf/arm-eabi/lib/gnat/ravenscar-sfp-stm32h743nucleo/adalib/libgnarl.a(s-bbtiev.o)
                0x0000000008006b28                system__bb__timing_events__cancel_handler
 .text.system__bb__timing_events__execute_expired_timing_events
                0x0000000008006ba0       0xcc /home/badr/GNAT/2018-arm-elf/arm-eabi/lib/gnat/ravenscar-sfp-stm32h743nucleo/adalib/libgnarl.a(s-bbtiev.o)
                0x0000000008006ba0                system__bb__timing_events__execute_expired_timing_events
 .text.system__bb__timing_events__get_next_timeout
                0x0000000008006c6c       0x44 /home/badr/GNAT/2018-arm-elf/arm-eabi/lib/gnat/ravenscar-sfp-stm32h743nucleo/adalib/libgnarl.a(s-bbtiev.o)
                0x0000000008006c6c                system__bb__timing_events__get_next_timeout
 .text.system__bb__timing_events__time_of_event
                0x0000000008006cb0       0x4c /home/badr/GNAT/2018-arm-elf/arm-eabi/lib/gnat/ravenscar-sfp-stm32h743nucleo/adalib/libgnarl.a(s-bbtiev.o)
                0x0000000008006cb0                system__bb__timing_events__time_of_event
 .text.system__bb__timing_events__extract
                0x0000000008006cfc       0xb8 /home/badr/GNAT/2018-arm-elf/arm-eabi/lib/gnat/ravenscar-sfp-stm32h743nucleo/adalib/libgnarl.a(s-bbtiev.o)
 .text.system__bb__timing_events__insert
                0x0000000008006db4      0x214 /home/badr/GNAT/2018-arm-elf/arm-eabi/lib/gnat/ravenscar-sfp-stm32h743nucleo/adalib/libgnarl.a(s-bbtiev.o)
 .text.system__bb__timing_events___elabb
                0x0000000008006fc8       0x2c /home/badr/GNAT/2018-arm-elf/arm-eabi/lib/gnat/ravenscar-sfp-stm32h743nucleo/adalib/libgnarl.a(s-bbtiev.o)
                0x0000000008006fc8                system__bb__timing_events___elabb
 .text          0x0000000008006ff4        0x0 /home/badr/GNAT/2018-arm-elf/arm-eabi/lib/gnat/ravenscar-sfp-stm32h743nucleo/adalib/libgnarl.a(s-bbtime.o)
 .text.system__bb__time__composite_execution_timeIP
                0x0000000008006ff4       0x14 /home/badr/GNAT/2018-arm-elf/arm-eabi/lib/gnat/ravenscar-sfp-stm32h743nucleo/adalib/libgnarl.a(s-bbtime.o)
                0x0000000008006ff4                system__bb__time__composite_execution_timeIP
 .text.system__bb__time__composite_timeIP
                0x0000000008007008       0x20 /home/badr/GNAT/2018-arm-elf/arm-eabi/lib/gnat/ravenscar-sfp-stm32h743nucleo/adalib/libgnarl.a(s-bbtime.o)
                0x0000000008007008                system__bb__time__composite_timeIP
 .text.system__bb__time__alarm_handler
                0x0000000008007028       0x90 /home/badr/GNAT/2018-arm-elf/arm-eabi/lib/gnat/ravenscar-sfp-stm32h743nucleo/adalib/libgnarl.a(s-bbtime.o)
 .text.system__bb__time__clock
                0x00000000080070b8       0xac /home/badr/GNAT/2018-arm-elf/arm-eabi/lib/gnat/ravenscar-sfp-stm32h743nucleo/adalib/libgnarl.a(s-bbtime.o)
                0x00000000080070b8                system__bb__time__clock
 .text.system__bb__time__delay_until
                0x0000000008007164       0x90 /home/badr/GNAT/2018-arm-elf/arm-eabi/lib/gnat/ravenscar-sfp-stm32h743nucleo/adalib/libgnarl.a(s-bbtime.o)
                0x0000000008007164                system__bb__time__delay_until
 .text.system__bb__time__epoch
                0x00000000080071f4       0x18 /home/badr/GNAT/2018-arm-elf/arm-eabi/lib/gnat/ravenscar-sfp-stm32h743nucleo/adalib/libgnarl.a(s-bbtime.o)
                0x00000000080071f4                system__bb__time__epoch
 .text.system__bb__time__get_next_timeout
                0x000000000800720c       0x48 /home/badr/GNAT/2018-arm-elf/arm-eabi/lib/gnat/ravenscar-sfp-stm32h743nucleo/adalib/libgnarl.a(s-bbtime.o)
                0x000000000800720c                system__bb__time__get_next_timeout
 .text.system__bb__time__initialize_timers
                0x0000000008007254       0x9c /home/badr/GNAT/2018-arm-elf/arm-eabi/lib/gnat/ravenscar-sfp-stm32h743nucleo/adalib/libgnarl.a(s-bbtime.o)
                0x0000000008007254                system__bb__time__initialize_timers
 .text.system__bb__time__update_alarm
                0x00000000080072f0       0xb0 /home/badr/GNAT/2018-arm-elf/arm-eabi/lib/gnat/ravenscar-sfp-stm32h743nucleo/adalib/libgnarl.a(s-bbtime.o)
                0x00000000080072f0                system__bb__time__update_alarm
 .text.system__bb__time__update_clock
                0x00000000080073a0       0x88 /home/badr/GNAT/2018-arm-elf/arm-eabi/lib/gnat/ravenscar-sfp-stm32h743nucleo/adalib/libgnarl.a(s-bbtime.o)
 .text.system__bb__time__Oconcat
                0x0000000008007428       0x54 /home/badr/GNAT/2018-arm-elf/arm-eabi/lib/gnat/ravenscar-sfp-stm32h743nucleo/adalib/libgnarl.a(s-bbtime.o)
                0x0000000008007428                system__bb__time__Oconcat
 .text          0x000000000800747c        0x0 /home/badr/GNAT/2018-arm-elf/arm-eabi/lib/gnat/ravenscar-sfp-stm32h743nucleo/adalib/libgnarl.a(s-taprop.o)
 .text.system__task_primitives__operations__Tidle_stacksBIP
                0x000000000800747c       0x14 /home/badr/GNAT/2018-arm-elf/arm-eabi/lib/gnat/ravenscar-sfp-stm32h743nucleo/adalib/libgnarl.a(s-taprop.o)
                0x000000000800747c                system__task_primitives__operations__Tidle_stacksBIP
 .text.system__task_primitives__operations__Tidle_stacks_tableBIP
                0x0000000008007490       0x14 /home/badr/GNAT/2018-arm-elf/arm-eabi/lib/gnat/ravenscar-sfp-stm32h743nucleo/adalib/libgnarl.a(s-taprop.o)
                0x0000000008007490                system__task_primitives__operations__Tidle_stacks_tableBIP
 .text.system__task_primitives__operations__Tidle_tasksBIP
                0x00000000080074a4       0x14 /home/badr/GNAT/2018-arm-elf/arm-eabi/lib/gnat/ravenscar-sfp-stm32h743nucleo/adalib/libgnarl.a(s-taprop.o)
                0x00000000080074a4                system__task_primitives__operations__Tidle_tasksBIP
 .text.system__task_primitives__operations__self
                0x00000000080074b8       0x10 /home/badr/GNAT/2018-arm-elf/arm-eabi/lib/gnat/ravenscar-sfp-stm32h743nucleo/adalib/libgnarl.a(s-taprop.o)
                0x00000000080074b8                system__task_primitives__operations(short,...)(long, float)
 .text.system__task_primitives__operations__sleep
                0x00000000080074c8       0x18 /home/badr/GNAT/2018-arm-elf/arm-eabi/lib/gnat/ravenscar-sfp-stm32h743nucleo/adalib/libgnarl.a(s-taprop.o)
                0x00000000080074c8                system__task_primitives__operations(short, long,...)(...)( *)
 .text.system__task_primitives__operations__delay_until
                0x00000000080074e0       0x40 /home/badr/GNAT/2018-arm-elf/arm-eabi/lib/gnat/ravenscar-sfp-stm32h743nucleo/adalib/libgnarl.a(s-taprop.o)
                0x00000000080074e0                system__task_primitives__operations__delay_until
 .text.system__task_primitives__operations__monotonic_clock
                0x0000000008007520       0x14 /home/badr/GNAT/2018-arm-elf/arm-eabi/lib/gnat/ravenscar-sfp-stm32h743nucleo/adalib/libgnarl.a(s-taprop.o)
                0x0000000008007520                system__task_primitives__operations__monotonic_clock
 .text.system__task_primitives__operations__wakeup
                0x0000000008007534       0x30 /home/badr/GNAT/2018-arm-elf/arm-eabi/lib/gnat/ravenscar-sfp-stm32h743nucleo/adalib/libgnarl.a(s-taprop.o)
                0x0000000008007534                system__task_primitives__operations__wakeup
 .text.system__task_primitives__operations__set_priority
                0x0000000008007564       0x18 /home/badr/GNAT/2018-arm-elf/arm-eabi/lib/gnat/ravenscar-sfp-stm32h743nucleo/adalib/libgnarl.a(s-taprop.o)
                0x0000000008007564                system__task_primitives__operations__set_priority
 .text.system__task_primitives__operations__get_priority
                0x000000000800757c       0x44 /home/badr/GNAT/2018-arm-elf/arm-eabi/lib/gnat/ravenscar-sfp-stm32h743nucleo/adalib/libgnarl.a(s-taprop.o)
                0x000000000800757c                system__task_primitives__operations__get_priority
 .text.system__task_primitives__operations__get_affinity
                0x00000000080075c0       0x34 /home/badr/GNAT/2018-arm-elf/arm-eabi/lib/gnat/ravenscar-sfp-stm32h743nucleo/adalib/libgnarl.a(s-taprop.o)
                0x00000000080075c0                system__task_primitives__operations__get_affinity
 .text.system__task_primitives__operations__get_cpu
                0x00000000080075f4       0x34 /home/badr/GNAT/2018-arm-elf/arm-eabi/lib/gnat/ravenscar-sfp-stm32h743nucleo/adalib/libgnarl.a(s-taprop.o)
                0x00000000080075f4                system__task_primitives__operations__get_cpu
 .text.system__task_primitives__operations__get_thread_id
                0x0000000008007628       0x2c /home/badr/GNAT/2018-arm-elf/arm-eabi/lib/gnat/ravenscar-sfp-stm32h743nucleo/adalib/libgnarl.a(s-taprop.o)
                0x0000000008007628                system__task_primitives__operations__get_thread_id
 .text.system__task_primitives__operations__enter_task
                0x0000000008007654       0x48 /home/badr/GNAT/2018-arm-elf/arm-eabi/lib/gnat/ravenscar-sfp-stm32h743nucleo/adalib/libgnarl.a(s-taprop.o)
                0x0000000008007654                system__task_primitives__operations__enter_task
 .text.system__task_primitives__operations__idle
                0x000000000800769c       0x1c /home/badr/GNAT/2018-arm-elf/arm-eabi/lib/gnat/ravenscar-sfp-stm32h743nucleo/adalib/libgnarl.a(s-taprop.o)
                0x000000000800769c                system__task_primitives__operations(int, double, long,...)
 .text.system__task_primitives__operations__initialize_tcb
                0x00000000080076b8       0x1c /home/badr/GNAT/2018-arm-elf/arm-eabi/lib/gnat/ravenscar-sfp-stm32h743nucleo/adalib/libgnarl.a(s-taprop.o)
                0x00000000080076b8                system__task_primitives__operations__initialize_tcb
 .text.__gnat_initialize_slave
                0x00000000080076d4       0xb4 /home/badr/GNAT/2018-arm-elf/arm-eabi/lib/gnat/ravenscar-sfp-stm32h743nucleo/adalib/libgnarl.a(s-taprop.o)
                0x00000000080076d4                __gnat_initialize_slave
 .text.system__task_primitives__operations__create_task
                0x0000000008007788       0x98 /home/badr/GNAT/2018-arm-elf/arm-eabi/lib/gnat/ravenscar-sfp-stm32h743nucleo/adalib/libgnarl.a(s-taprop.o)
                0x0000000008007788                system__task_primitives__operations__create_task
 .text.system__task_primitives__operations__initialize
                0x0000000008007820      0x134 /home/badr/GNAT/2018-arm-elf/arm-eabi/lib/gnat/ravenscar-sfp-stm32h743nucleo/adalib/libgnarl.a(s-taprop.o)
                0x0000000008007820                system__task_primitives__operations__initialize
 .text.system__task_primitives__operations__initialize_idle
                0x0000000008007954       0xd0 /home/badr/GNAT/2018-arm-elf/arm-eabi/lib/gnat/ravenscar-sfp-stm32h743nucleo/adalib/libgnarl.a(s-taprop.o)
                0x0000000008007954                system__task_primitives__operations__initialize_idle
 .text.system__task_primitives__operations__is_task_context
                0x0000000008007a24       0x1c /home/badr/GNAT/2018-arm-elf/arm-eabi/lib/gnat/ravenscar-sfp-stm32h743nucleo/adalib/libgnarl.a(s-taprop.o)
                0x0000000008007a24                system__task_primitives__operations__is_task_context
 .text          0x0000000008007a40        0x0 /home/badr/GNAT/2018-arm-elf/arm-eabi/lib/gnat/ravenscar-sfp-stm32h743nucleo/adalib/libgnarl.a(s-tasdeb.o)
 .text.system__tasking__debug__add_task_id
                0x0000000008007a40       0x4c /home/badr/GNAT/2018-arm-elf/arm-eabi/lib/gnat/ravenscar-sfp-stm32h743nucleo/adalib/libgnarl.a(s-tasdeb.o)
                0x0000000008007a40                system__tasking__debug__add_task_id
 .text          0x0000000008007a8c        0x0 /home/badr/GNAT/2018-arm-elf/arm-eabi/lib/gnat/ravenscar-sfp-stm32h743nucleo/adalib/libgnarl.a(s-taskin.o)
 .text.system__tasking__E5sIP
                0x0000000008007a8c       0x18 /home/badr/GNAT/2018-arm-elf/arm-eabi/lib/gnat/ravenscar-sfp-stm32h743nucleo/adalib/libgnarl.a(s-taskin.o)
                0x0000000008007a8c                system__tasking__E5sIP
 .text.system__tasking__activation_chainIP
                0x0000000008007aa4       0x18 /home/badr/GNAT/2018-arm-elf/arm-eabi/lib/gnat/ravenscar-sfp-stm32h743nucleo/adalib/libgnarl.a(s-taskin.o)
                0x0000000008007aa4                system__tasking__activation_chainIP
 .text.__gnat_get_secondary_stack
                0x0000000008007abc       0x24 /home/badr/GNAT/2018-arm-elf/arm-eabi/lib/gnat/ravenscar-sfp-stm32h743nucleo/adalib/libgnarl.a(s-taskin.o)
                0x0000000008007abc                __gnat_get_secondary_stack
 .text.system__tasking__initialize_atcb
                0x0000000008007ae0      0x104 /home/badr/GNAT/2018-arm-elf/arm-eabi/lib/gnat/ravenscar-sfp-stm32h743nucleo/adalib/libgnarl.a(s-taskin.o)
                0x0000000008007ae0                system__tasking__initialize_atcb
 .text.system__tasking__initialize
                0x0000000008007be4      0x234 /home/badr/GNAT/2018-arm-elf/arm-eabi/lib/gnat/ravenscar-sfp-stm32h743nucleo/adalib/libgnarl.a(s-taskin.o)
                0x0000000008007be4                system__tasking__initialize
 .text.system__tasking__self
                0x0000000008007e18       0x10 /home/badr/GNAT/2018-arm-elf/arm-eabi/lib/gnat/ravenscar-sfp-stm32h743nucleo/adalib/libgnarl.a(s-taskin.o)
                0x0000000008007e18                system__tasking(short,...)(long, float)
 .text.system__tasking__storage_size
                0x0000000008007e28       0x2c /home/badr/GNAT/2018-arm-elf/arm-eabi/lib/gnat/ravenscar-sfp-stm32h743nucleo/adalib/libgnarl.a(s-taskin.o)
                0x0000000008007e28                system__tasking__storage_size
 .text          0x0000000008007e54        0x0 /home/badr/GNAT/2018-arm-elf/arm-eabi/lib/gnat/ravenscar-sfp-stm32h743nucleo/adalib/libgnarl.a(s-bbbosu.o)
 .text.system__bb__board_support__time__max_timer_interval
                0x0000000008007e54       0x14 /home/badr/GNAT/2018-arm-elf/arm-eabi/lib/gnat/ravenscar-sfp-stm32h743nucleo/adalib/libgnarl.a(s-bbbosu.o)
                0x0000000008007e54                system__bb__board_support__time__max_timer_interval
 .text.system__bb__board_support__time__read_clock
                0x0000000008007e68       0x74 /home/badr/GNAT/2018-arm-elf/arm-eabi/lib/gnat/ravenscar-sfp-stm32h743nucleo/adalib/libgnarl.a(s-bbbosu.o)
                0x0000000008007e68                system__bb__board_support__time__read_clock
 .text.system__bb__board_support__time__clear_alarm_interrupt
                0x0000000008007edc       0x18 /home/badr/GNAT/2018-arm-elf/arm-eabi/lib/gnat/ravenscar-sfp-stm32h743nucleo/adalib/libgnarl.a(s-bbbosu.o)
                0x0000000008007edc                system__bb__board_support__time__clear_alarm_interrupt
 .text.system__bb__board_support__time__set_alarm
                0x0000000008007ef4       0x58 /home/badr/GNAT/2018-arm-elf/arm-eabi/lib/gnat/ravenscar-sfp-stm32h743nucleo/adalib/libgnarl.a(s-bbbosu.o)
                0x0000000008007ef4                system__bb__board_support__time__set_alarm
 .text.system__bb__board_support__time__install_alarm_handler
                0x0000000008007f4c       0x30 /home/badr/GNAT/2018-arm-elf/arm-eabi/lib/gnat/ravenscar-sfp-stm32h743nucleo/adalib/libgnarl.a(s-bbbosu.o)
                0x0000000008007f4c                system__bb__board_support__time__install_alarm_handler
 .text.system__bb__board_support__multiprocessors__number_of_cpus
                0x0000000008007f7c       0x14 /home/badr/GNAT/2018-arm-elf/arm-eabi/lib/gnat/ravenscar-sfp-stm32h743nucleo/adalib/libgnarl.a(s-bbbosu.o)
                0x0000000008007f7c                system__bb__board_support__multiprocessors__number_of_cpus
 .text.system__bb__board_support__multiprocessors__current_cpu
                0x0000000008007f90       0x14 /home/badr/GNAT/2018-arm-elf/arm-eabi/lib/gnat/ravenscar-sfp-stm32h743nucleo/adalib/libgnarl.a(s-bbbosu.o)
                0x0000000008007f90                system__bb__board_support__multiprocessors__current_cpu
 .text.system__bb__board_support__multiprocessors__poke_cpu
                0x0000000008007fa4       0x18 /home/badr/GNAT/2018-arm-elf/arm-eabi/lib/gnat/ravenscar-sfp-stm32h743nucleo/adalib/libgnarl.a(s-bbbosu.o)
                0x0000000008007fa4                system__bb__board_support__multiprocessors__poke_cpu
 .text.system__bb__board_support__multiprocessors__start_all_cpus
                0x0000000008007fbc       0x10 /home/badr/GNAT/2018-arm-elf/arm-eabi/lib/gnat/ravenscar-sfp-stm32h743nucleo/adalib/libgnarl.a(s-bbbosu.o)
                0x0000000008007fbc                system__bb__board_support__multiprocessors__start_all_cpus
 .text.system__bb__board_support__interrupts__install_interrupt_handler
                0x0000000008007fcc       0x64 /home/badr/GNAT/2018-arm-elf/arm-eabi/lib/gnat/ravenscar-sfp-stm32h743nucleo/adalib/libgnarl.a(s-bbbosu.o)
                0x0000000008007fcc                system__bb__board_support__interrupts__install_interrupt_handler
 .text.system__bb__board_support__interrupts__priority_of_interrupt
                0x0000000008008030       0x4c /home/badr/GNAT/2018-arm-elf/arm-eabi/lib/gnat/ravenscar-sfp-stm32h743nucleo/adalib/libgnarl.a(s-bbbosu.o)
                0x0000000008008030                system__bb__board_support__interrupts__priority_of_interrupt
 .text.system__bb__board_support__interrupts__power_down
                0x000000000800807c       0x10 /home/badr/GNAT/2018-arm-elf/arm-eabi/lib/gnat/ravenscar-sfp-stm32h743nucleo/adalib/libgnarl.a(s-bbbosu.o)
                0x000000000800807c                system__bb__board_support__interrupts__power_down
 .text.system__bb__board_support__interrupts__set_current_priority
                0x000000000800808c       0x1c /home/badr/GNAT/2018-arm-elf/arm-eabi/lib/gnat/ravenscar-sfp-stm32h743nucleo/adalib/libgnarl.a(s-bbbosu.o)
                0x000000000800808c                system__bb__board_support__interrupts__set_current_priority
 .text.system__bb__board_support__sys_tick_registersIP
                0x00000000080080a8       0x14 /home/badr/GNAT/2018-arm-elf/arm-eabi/lib/gnat/ravenscar-sfp-stm32h743nucleo/adalib/libgnarl.a(s-bbbosu.o)
                0x00000000080080a8                system__bb__board_support__sys_tick_registersIP
 .text.system__bb__board_support__TipBIP
                0x00000000080080bc       0x14 /home/badr/GNAT/2018-arm-elf/arm-eabi/lib/gnat/ravenscar-sfp-stm32h743nucleo/adalib/libgnarl.a(s-bbbosu.o)
                0x00000000080080bc                system__bb__board_support__TipBIP
 .text.system__bb__board_support__initialize_board
                0x00000000080080d0       0x6c /home/badr/GNAT/2018-arm-elf/arm-eabi/lib/gnat/ravenscar-sfp-stm32h743nucleo/adalib/libgnarl.a(s-bbbosu.o)
                0x00000000080080d0                system__bb__board_support__initialize_board
 .text.system__bb__board_support__timer_interrupt_handler
                0x000000000800813c       0x10 /home/badr/GNAT/2018-arm-elf/arm-eabi/lib/gnat/ravenscar-sfp-stm32h743nucleo/adalib/libgnarl.a(s-bbbosu.o)
                0x000000000800813c                system__bb__board_support__timer_interrupt_handler
 .text.system__bb__board_support__interrupt_handler
                0x000000000800814c       0x4c /home/badr/GNAT/2018-arm-elf/arm-eabi/lib/gnat/ravenscar-sfp-stm32h743nucleo/adalib/libgnarl.a(s-bbbosu.o)
                0x000000000800814c                system__bb__board_support__interrupt_handler
 .text.system__bb__board_support__enable_interrupt_request
                0x0000000008008198       0xa4 /home/badr/GNAT/2018-arm-elf/arm-eabi/lib/gnat/ravenscar-sfp-stm32h743nucleo/adalib/libgnarl.a(s-bbbosu.o)
                0x0000000008008198                system__bb__board_support__enable_interrupt_request
 .text.system__bb__board_support__to_pri
                0x000000000800823c       0x44 /home/badr/GNAT/2018-arm-elf/arm-eabi/lib/gnat/ravenscar-sfp-stm32h743nucleo/adalib/libgnarl.a(s-bbbosu.o)
                0x000000000800823c                system__bb__board_support__to_pri
 .text.system__bb__board_support__to_priority
                0x0000000008008280       0x38 /home/badr/GNAT/2018-arm-elf/arm-eabi/lib/gnat/ravenscar-sfp-stm32h743nucleo/adalib/libgnarl.a(s-bbbosu.o)
                0x0000000008008280                system__bb__board_support__to_priority
 .text          0x00000000080082b8        0x0 /home/badr/GNAT/2018-arm-elf/arm-eabi/lib/gnat/ravenscar-sfp-stm32h743nucleo/adalib/libgnarl.a(s-bbcppr.o)
 .text.system__bb__cpu_primitives__Tcontext_bufferBIP
                0x00000000080082b8       0x14 /home/badr/GNAT/2018-arm-elf/arm-eabi/lib/gnat/ravenscar-sfp-stm32h743nucleo/adalib/libgnarl.a(s-bbcppr.o)
                0x00000000080082b8                system__bb__cpu_primitives__Tcontext_bufferBIP
 .text.system__bb__cpu_primitives__hardware_contextIP
                0x00000000080082cc       0x14 /home/badr/GNAT/2018-arm-elf/arm-eabi/lib/gnat/ravenscar-sfp-stm32h743nucleo/adalib/libgnarl.a(s-bbcppr.o)
                0x00000000080082cc                system__bb__cpu_primitives__hardware_contextIP
 .text.primask  0x00000000080082e0       0x1c /home/badr/GNAT/2018-arm-elf/arm-eabi/lib/gnat/ravenscar-sfp-stm32h743nucleo/adalib/libgnarl.a(s-bbcppr.o)
                0x00000000080082e0                primask
 .text.system__bb__cpu_primitives__initialize_cpu
                0x00000000080082fc       0x90 /home/badr/GNAT/2018-arm-elf/arm-eabi/lib/gnat/ravenscar-sfp-stm32h743nucleo/adalib/libgnarl.a(s-bbcppr.o)
                0x00000000080082fc                system__bb__cpu_primitives__initialize_cpu
 .text.system__bb__cpu_primitives__context_switch
                0x000000000800838c        0xc /home/badr/GNAT/2018-arm-elf/arm-eabi/lib/gnat/ravenscar-sfp-stm32h743nucleo/adalib/libgnarl.a(s-bbcppr.o)
                0x000000000800838c                system__bb__cpu_primitives__context_switch
 .text.system__bb__cpu_primitives__get_context
                0x0000000008008398       0x24 /home/badr/GNAT/2018-arm-elf/arm-eabi/lib/gnat/ravenscar-sfp-stm32h743nucleo/adalib/libgnarl.a(s-bbcppr.o)
                0x0000000008008398                system__bb__cpu_primitives__get_context
 .text.system__bb__cpu_primitives__gnat_error_handler
                0x00000000080083bc      0xc2c /home/badr/GNAT/2018-arm-elf/arm-eabi/lib/gnat/ravenscar-sfp-stm32h743nucleo/adalib/libgnarl.a(s-bbcppr.o)
                0x00000000080083bc                system__bb__cpu_primitives__gnat_error_handler
 .text.__gnat_irq_trap
                0x0000000008008fe8       0x54 /home/badr/GNAT/2018-arm-elf/arm-eabi/lib/gnat/ravenscar-sfp-stm32h743nucleo/adalib/libgnarl.a(s-bbcppr.o)
                0x0000000008008fe8                __gnat_irq_trap
 .text.__gnat_sv_call_trap
                0x000000000800903c        0xc /home/badr/GNAT/2018-arm-elf/arm-eabi/lib/gnat/ravenscar-sfp-stm32h743nucleo/adalib/libgnarl.a(s-bbcppr.o)
                0x000000000800903c                __gnat_sv_call_trap
 .text.system__bb__cpu_primitives__set_context
                0x0000000008009048       0x38 /home/badr/GNAT/2018-arm-elf/arm-eabi/lib/gnat/ravenscar-sfp-stm32h743nucleo/adalib/libgnarl.a(s-bbcppr.o)
                0x0000000008009048                system__bb__cpu_primitives__set_context
 .text.__gnat_sys_tick_trap
                0x0000000008009080       0x9c /home/badr/GNAT/2018-arm-elf/arm-eabi/lib/gnat/ravenscar-sfp-stm32h743nucleo/adalib/libgnarl.a(s-bbcppr.o)
                0x0000000008009080                __gnat_sys_tick_trap
 .text.system__bb__cpu_primitives__initialize_context
                0x000000000800911c       0x7c /home/badr/GNAT/2018-arm-elf/arm-eabi/lib/gnat/ravenscar-sfp-stm32h743nucleo/adalib/libgnarl.a(s-bbcppr.o)
                0x000000000800911c                system__bb__cpu_primitives__initialize_context
 .text.system__bb__cpu_primitives__install_error_handlers
                0x0000000008009198       0x68 /home/badr/GNAT/2018-arm-elf/arm-eabi/lib/gnat/ravenscar-sfp-stm32h743nucleo/adalib/libgnarl.a(s-bbcppr.o)
                0x0000000008009198                system__bb__cpu_primitives__install_error_handlers
 .text.system__bb__cpu_primitives__install_trap_handler
                0x0000000008009200       0x3c /home/badr/GNAT/2018-arm-elf/arm-eabi/lib/gnat/ravenscar-sfp-stm32h743nucleo/adalib/libgnarl.a(s-bbcppr.o)
                0x0000000008009200                system__bb__cpu_primitives__install_trap_handler
 .text.system__bb__cpu_primitives__disable_interrupts
                0x000000000800923c       0x10 /home/badr/GNAT/2018-arm-elf/arm-eabi/lib/gnat/ravenscar-sfp-stm32h743nucleo/adalib/libgnarl.a(s-bbcppr.o)
                0x000000000800923c                system__bb__cpu_primitives__disable_interrupts
 .text.system__bb__cpu_primitives__enable_interrupts
                0x000000000800924c       0x20 /home/badr/GNAT/2018-arm-elf/arm-eabi/lib/gnat/ravenscar-sfp-stm32h743nucleo/adalib/libgnarl.a(s-bbcppr.o)
                0x000000000800924c                system__bb__cpu_primitives__enable_interrupts
 .text          0x000000000800926c        0x0 /home/badr/GNAT/2018-arm-elf/arm-eabi/lib/gnat/ravenscar-sfp-stm32h743nucleo/adalib/libgnarl.a(s-bbinte.o)
 .text.system__bb__interrupts__Tinterrupt_stacksBIP
                0x000000000800926c       0x14 /home/badr/GNAT/2018-arm-elf/arm-eabi/lib/gnat/ravenscar-sfp-stm32h743nucleo/adalib/libgnarl.a(s-bbinte.o)
                0x000000000800926c                system__bb__interrupts__Tinterrupt_stacksBIP
 .text.system__bb__interrupts__Tinterrupt_stack_tableBIP
                0x0000000008009280       0x14 /home/badr/GNAT/2018-arm-elf/arm-eabi/lib/gnat/ravenscar-sfp-stm32h743nucleo/adalib/libgnarl.a(s-bbinte.o)
                0x0000000008009280                system__bb__interrupts__Tinterrupt_stack_tableBIP
 .text.system__bb__interrupts__attach_handler
                0x0000000008009294       0x5c /home/badr/GNAT/2018-arm-elf/arm-eabi/lib/gnat/ravenscar-sfp-stm32h743nucleo/adalib/libgnarl.a(s-bbinte.o)
                0x0000000008009294                system__bb__interrupts__attach_handler
 .text.system__bb__interrupts__current_interrupt
                0x00000000080092f0       0x50 /home/badr/GNAT/2018-arm-elf/arm-eabi/lib/gnat/ravenscar-sfp-stm32h743nucleo/adalib/libgnarl.a(s-bbinte.o)
                0x00000000080092f0                system__bb__interrupts__current_interrupt
 .text.system__bb__interrupts__interrupt_wrapper
                0x0000000008009340      0x13c /home/badr/GNAT/2018-arm-elf/arm-eabi/lib/gnat/ravenscar-sfp-stm32h743nucleo/adalib/libgnarl.a(s-bbinte.o)
                0x0000000008009340                system__bb__interrupts__interrupt_wrapper
 .text.system__bb__interrupts__within_interrupt_stack
                0x000000000800947c       0x48 /home/badr/GNAT/2018-arm-elf/arm-eabi/lib/gnat/ravenscar-sfp-stm32h743nucleo/adalib/libgnarl.a(s-bbinte.o)
                0x000000000800947c                system__bb__interrupts__within_interrupt_stack
 .text.system__bb__interrupts__initialize_interrupts
                0x00000000080094c4       0x54 /home/badr/GNAT/2018-arm-elf/arm-eabi/lib/gnat/ravenscar-sfp-stm32h743nucleo/adalib/libgnarl.a(s-bbinte.o)
                0x00000000080094c4                system__bb__interrupts__initialize_interrupts
 .text          0x0000000008009518        0x0 /home/badr/GNAT/2018-arm-elf/arm-eabi/lib/gnat/ravenscar-sfp-stm32h743nucleo/adalib/libgnarl.a(s-bbprot.o)
 .text.system__bb__protection__enter_kernel
                0x0000000008009518        0xc /home/badr/GNAT/2018-arm-elf/arm-eabi/lib/gnat/ravenscar-sfp-stm32h743nucleo/adalib/libgnarl.a(s-bbprot.o)
                0x0000000008009518                system__bb__protection__enter_kernel
 .text.system__bb__protection__leave_kernel
                0x0000000008009524       0x54 /home/badr/GNAT/2018-arm-elf/arm-eabi/lib/gnat/ravenscar-sfp-stm32h743nucleo/adalib/libgnarl.a(s-bbprot.o)
                0x0000000008009524                system__bb__protection__leave_kernel
 .text          0x0000000008009578        0x0 /home/badr/GNAT/2018-arm-elf/arm-eabi/lib/gnat/ravenscar-sfp-stm32h743nucleo/adalib/libgnarl.a(s-bbthqu.o)
 .text.system__bb__threads__queues__change_priority
                0x0000000008009578      0x244 /home/badr/GNAT/2018-arm-elf/arm-eabi/lib/gnat/ravenscar-sfp-stm32h743nucleo/adalib/libgnarl.a(s-bbthqu.o)
                0x0000000008009578                system__bb__threads__queues__change_priority
 .text.__gnat_context_switch_needed
                0x00000000080097bc       0x20 /home/badr/GNAT/2018-arm-elf/arm-eabi/lib/gnat/ravenscar-sfp-stm32h743nucleo/adalib/libgnarl.a(s-bbthqu.o)
                0x00000000080097bc                __gnat_context_switch_needed
 .text.system__bb__threads__queues__current_priority
                0x00000000080097dc       0x54 /home/badr/GNAT/2018-arm-elf/arm-eabi/lib/gnat/ravenscar-sfp-stm32h743nucleo/adalib/libgnarl.a(s-bbthqu.o)
                0x00000000080097dc                system__bb__threads__queues__current_priority
 .text.system__bb__threads__queues__extract
                0x0000000008009830       0x68 /home/badr/GNAT/2018-arm-elf/arm-eabi/lib/gnat/ravenscar-sfp-stm32h743nucleo/adalib/libgnarl.a(s-bbthqu.o)
                0x0000000008009830                system__bb__threads__queues__extract
 .text.system__bb__threads__queues__extract_first_alarm
                0x0000000008009898       0x7c /home/badr/GNAT/2018-arm-elf/arm-eabi/lib/gnat/ravenscar-sfp-stm32h743nucleo/adalib/libgnarl.a(s-bbthqu.o)
                0x0000000008009898                system__bb__threads__queues__extract_first_alarm
 .text.system__bb__threads__queues__first_thread
                0x0000000008009914       0x24 /home/badr/GNAT/2018-arm-elf/arm-eabi/lib/gnat/ravenscar-sfp-stm32h743nucleo/adalib/libgnarl.a(s-bbthqu.o)
                0x0000000008009914                system__bb__threads__queues__first_thread
 .text.system__bb__threads__queues__get_next_alarm_time
                0x0000000008009938       0x48 /home/badr/GNAT/2018-arm-elf/arm-eabi/lib/gnat/ravenscar-sfp-stm32h743nucleo/adalib/libgnarl.a(s-bbthqu.o)
                0x0000000008009938                system__bb__threads__queues__get_next_alarm_time
 .text.system__bb__threads__queues__insert
                0x0000000008009980      0x2a0 /home/badr/GNAT/2018-arm-elf/arm-eabi/lib/gnat/ravenscar-sfp-stm32h743nucleo/adalib/libgnarl.a(s-bbthqu.o)
                0x0000000008009980                system__bb__threads__queues__insert
 .text.system__bb__threads__queues__insert_alarm
                0x0000000008009c20      0x1b0 /home/badr/GNAT/2018-arm-elf/arm-eabi/lib/gnat/ravenscar-sfp-stm32h743nucleo/adalib/libgnarl.a(s-bbthqu.o)
                0x0000000008009c20                system__bb__threads__queues__insert_alarm
 .text.system__bb__threads__queues__running_thread
                0x0000000008009dd0       0x24 /home/badr/GNAT/2018-arm-elf/arm-eabi/lib/gnat/ravenscar-sfp-stm32h743nucleo/adalib/libgnarl.a(s-bbthqu.o)
                0x0000000008009dd0                system__bb__threads__queues__running_thread
 .text.system__bb__threads__queues__wakeup_expired_alarms
                0x0000000008009df4       0x60 /home/badr/GNAT/2018-arm-elf/arm-eabi/lib/gnat/ravenscar-sfp-stm32h743nucleo/adalib/libgnarl.a(s-bbthqu.o)
                0x0000000008009df4                system__bb__threads__queues__wakeup_expired_alarms
 .text.system__bb__threads__queues__yield
                0x0000000008009e54      0x190 /home/badr/GNAT/2018-arm-elf/arm-eabi/lib/gnat/ravenscar-sfp-stm32h743nucleo/adalib/libgnarl.a(s-bbthqu.o)
                0x0000000008009e54                system__bb__threads__queues__yield
 .text          0x0000000008009fe4        0x0 /home/badr/GNAT/2018-arm-elf/arm-eabi/lib/gnat/ravenscar-sfp-stm32h743nucleo/adalib/libgnarl.a(s-bbthre.o)
 .text.system__bb__threads__thread_descriptorIP
                0x0000000008009fe4       0x24 /home/badr/GNAT/2018-arm-elf/arm-eabi/lib/gnat/ravenscar-sfp-stm32h743nucleo/adalib/libgnarl.a(s-bbthre.o)
                0x0000000008009fe4                system__bb__threads__thread_descriptorIP
 .text.system__bb__threads__get_affinity
                0x000000000800a008       0x2c /home/badr/GNAT/2018-arm-elf/arm-eabi/lib/gnat/ravenscar-sfp-stm32h743nucleo/adalib/libgnarl.a(s-bbthre.o)
                0x000000000800a008                system__bb__threads__get_affinity
 .text.system__bb__threads__get_cpu
                0x000000000800a034       0x54 /home/badr/GNAT/2018-arm-elf/arm-eabi/lib/gnat/ravenscar-sfp-stm32h743nucleo/adalib/libgnarl.a(s-bbthre.o)
                0x000000000800a034                system__bb__threads__get_cpu
 .text.system__bb__threads__get_atcb
                0x000000000800a088       0x24 /home/badr/GNAT/2018-arm-elf/arm-eabi/lib/gnat/ravenscar-sfp-stm32h743nucleo/adalib/libgnarl.a(s-bbthre.o)
                0x000000000800a088                system__bb__threads__get_atcb
 .text.system__bb__threads__get_priority
                0x000000000800a0ac       0x28 /home/badr/GNAT/2018-arm-elf/arm-eabi/lib/gnat/ravenscar-sfp-stm32h743nucleo/adalib/libgnarl.a(s-bbthre.o)
                0x000000000800a0ac                system__bb__threads__get_priority
 .text.system__bb__threads__initialize_thread
                0x000000000800a0d4      0x164 /home/badr/GNAT/2018-arm-elf/arm-eabi/lib/gnat/ravenscar-sfp-stm32h743nucleo/adalib/libgnarl.a(s-bbthre.o)
 .text.system__bb__threads__initialize
                0x000000000800a238       0x88 /home/badr/GNAT/2018-arm-elf/arm-eabi/lib/gnat/ravenscar-sfp-stm32h743nucleo/adalib/libgnarl.a(s-bbthre.o)
                0x000000000800a238                system__bb__threads__initialize
 .text.system__bb__threads__initialize_slave
                0x000000000800a2c0       0x78 /home/badr/GNAT/2018-arm-elf/arm-eabi/lib/gnat/ravenscar-sfp-stm32h743nucleo/adalib/libgnarl.a(s-bbthre.o)
                0x000000000800a2c0                system__bb__threads__initialize_slave
 .text.system__bb__threads__set_atcb
                0x000000000800a338       0x2c /home/badr/GNAT/2018-arm-elf/arm-eabi/lib/gnat/ravenscar-sfp-stm32h743nucleo/adalib/libgnarl.a(s-bbthre.o)
                0x000000000800a338                system__bb__threads__set_atcb
 .text.system__bb__threads__set_priority
                0x000000000800a364       0x24 /home/badr/GNAT/2018-arm-elf/arm-eabi/lib/gnat/ravenscar-sfp-stm32h743nucleo/adalib/libgnarl.a(s-bbthre.o)
                0x000000000800a364                system__bb__threads__set_priority
 .text.system__bb__threads__sleep
                0x000000000800a388       0x70 /home/badr/GNAT/2018-arm-elf/arm-eabi/lib/gnat/ravenscar-sfp-stm32h743nucleo/adalib/libgnarl.a(s-bbthre.o)
                0x000000000800a388                system__bb__threads(short, long,...)(...)( *)
 .text.system__bb__threads__thread_create
                0x000000000800a3f8       0x50 /home/badr/GNAT/2018-arm-elf/arm-eabi/lib/gnat/ravenscar-sfp-stm32h743nucleo/adalib/libgnarl.a(s-bbthre.o)
                0x000000000800a3f8                system__bb__threads__thread_create
 .text.system__bb__threads__thread_self
                0x000000000800a448       0x10 /home/badr/GNAT/2018-arm-elf/arm-eabi/lib/gnat/ravenscar-sfp-stm32h743nucleo/adalib/libgnarl.a(s-bbthre.o)
                0x000000000800a448                system__bb__threads__thread_self
 .text.system__bb__threads__wakeup
                0x000000000800a458       0x6c /home/badr/GNAT/2018-arm-elf/arm-eabi/lib/gnat/ravenscar-sfp-stm32h743nucleo/adalib/libgnarl.a(s-bbthre.o)
                0x000000000800a458                system__bb__threads__wakeup
 .text          0x000000000800a4c4        0x0 /home/badr/GNAT/2018-arm-elf/arm-eabi/lib/gnat/ravenscar-sfp-stm32h743nucleo/adalib/libgnarl.a(s-bcpcst.o)
 .text.system__bb__cpu_primitives__context_switch_trigger__initialize_context_switch
                0x000000000800a4c4       0x10 /home/badr/GNAT/2018-arm-elf/arm-eabi/lib/gnat/ravenscar-sfp-stm32h743nucleo/adalib/libgnarl.a(s-bcpcst.o)
                0x000000000800a4c4                system__bb__cpu_primitives__context_switch_trigger__initialize_context_switch
 .text.system__bb__cpu_primitives__context_switch_trigger__trigger_context_switch
                0x000000000800a4d4       0x18 /home/badr/GNAT/2018-arm-elf/arm-eabi/lib/gnat/ravenscar-sfp-stm32h743nucleo/adalib/libgnarl.a(s-bcpcst.o)
                0x000000000800a4d4                system__bb__cpu_primitives__context_switch_trigger__trigger_context_switch
 .text.__gnat_pend_sv_trap
                0x000000000800a4ec       0x48 /home/badr/GNAT/2018-arm-elf/arm-eabi/lib/gnat/ravenscar-sfp-stm32h743nucleo/adalib/libgnarl.a(s-bcpcst.o)
                0x000000000800a4ec                __gnat_pend_sv_trap
 *fill*         0x000000000800a534       0xcc 
 .text          0x000000000800a600      0x264 /home/badr/GNAT/2018-arm-elf/arm-eabi/lib/gnat/ravenscar-sfp-stm32h743nucleo/adalib/libgnarl.a(handler.o)
                0x000000000800a600                __vectors
 .text          0x000000000800a864        0x0 /home/badr/GNAT/2018-arm-elf/arm-eabi/lib/gnat/ravenscar-sfp-stm32h743nucleo/adalib/libgnat.a(a-elchha.o)
 .text.ada__exceptions__last_chance_handler__put.5431
                0x000000000800a864       0x5c /home/badr/GNAT/2018-arm-elf/arm-eabi/lib/gnat/ravenscar-sfp-stm32h743nucleo/adalib/libgnat.a(a-elchha.o)
 .text.__gnat_last_chance_handler
                0x000000000800a8c0       0x8c /home/badr/GNAT/2018-arm-elf/arm-eabi/lib/gnat/ravenscar-sfp-stm32h743nucleo/adalib/libgnat.a(a-elchha.o)
                0x000000000800a8c0                __gnat_last_chance_handler
 .text          0x000000000800a94c        0x0 /home/badr/GNAT/2018-arm-elf/arm-eabi/lib/gnat/ravenscar-sfp-stm32h743nucleo/adalib/libgnat.a(a-except.o)
 .text          0x000000000800a94c       0x20 /home/badr/GNAT/2018-arm-elf/arm-eabi/lib/gnat/ravenscar-sfp-stm32h743nucleo/adalib/libgnat.a(breakpoint_handler-cortexm.o)
                0x000000000800a94c                __gnat_bkpt_trap
 .text          0x000000000800a96c        0x0 /home/badr/GNAT/2018-arm-elf/arm-eabi/lib/gnat/ravenscar-sfp-stm32h743nucleo/adalib/libgnat.a(g-io.o)
 .text.gnat__io__put__2
                0x000000000800a96c       0x60 /home/badr/GNAT/2018-arm-elf/arm-eabi/lib/gnat/ravenscar-sfp-stm32h743nucleo/adalib/libgnat.a(g-io.o)
                0x000000000800a96c                gnat__io__put__2
 .text.gnat__io__new_line
                0x000000000800a9cc       0x2c /home/badr/GNAT/2018-arm-elf/arm-eabi/lib/gnat/ravenscar-sfp-stm32h743nucleo/adalib/libgnat.a(g-io.o)
                0x000000000800a9cc                gnat__io__new_line
 .text.gnat__io__put
                0x000000000800a9f8      0x134 /home/badr/GNAT/2018-arm-elf/arm-eabi/lib/gnat/ravenscar-sfp-stm32h743nucleo/adalib/libgnat.a(g-io.o)
                0x000000000800a9f8                gnat__io__put
 .text.gnat__io__put__3
                0x000000000800ab2c       0x48 /home/badr/GNAT/2018-arm-elf/arm-eabi/lib/gnat/ravenscar-sfp-stm32h743nucleo/adalib/libgnat.a(g-io.o)
                0x000000000800ab2c                gnat__io__put__3
 .text.gnat__io__put_line
                0x000000000800ab74       0x20 /home/badr/GNAT/2018-arm-elf/arm-eabi/lib/gnat/ravenscar-sfp-stm32h743nucleo/adalib/libgnat.a(g-io.o)
                0x000000000800ab74                gnat__io__put_line
 .text          0x000000000800ab94        0x0 /home/badr/GNAT/2018-arm-elf/arm-eabi/lib/gnat/ravenscar-sfp-stm32h743nucleo/adalib/libgnat.a(s-assert.o)
 .text.system__assertions__raise_assert_failure
                0x000000000800ab94      0x15c /home/badr/GNAT/2018-arm-elf/arm-eabi/lib/gnat/ravenscar-sfp-stm32h743nucleo/adalib/libgnat.a(s-assert.o)
                0x000000000800ab94                system__assertions__raise_assert_failure
 .text          0x000000000800acf0        0x0 /home/badr/GNAT/2018-arm-elf/arm-eabi/lib/gnat/ravenscar-sfp-stm32h743nucleo/adalib/libgnat.a(s-macres.o)
 .text.abort    0x000000000800acf0        0xc /home/badr/GNAT/2018-arm-elf/arm-eabi/lib/gnat/ravenscar-sfp-stm32h743nucleo/adalib/libgnat.a(s-macres.o)
                0x000000000800acf0                abort
 .text._exit    0x000000000800acfc       0x20 /home/badr/GNAT/2018-arm-elf/arm-eabi/lib/gnat/ravenscar-sfp-stm32h743nucleo/adalib/libgnat.a(s-macres.o)
                0x000000000800acfc                _exit
 .text.system__machine_reset__stop
                0x000000000800ad1c        0xc /home/badr/GNAT/2018-arm-elf/arm-eabi/lib/gnat/ravenscar-sfp-stm32h743nucleo/adalib/libgnat.a(s-macres.o)
                0x000000000800ad1c                system__machine_reset__stop
 .text          0x000000000800ad28        0x0 /home/badr/GNAT/2018-arm-elf/arm-eabi/lib/gnat/ravenscar-sfp-stm32h743nucleo/adalib/libgnat.a(s-memcop.o)
 .text.memcpy   0x000000000800ad28       0xb4 /home/badr/GNAT/2018-arm-elf/arm-eabi/lib/gnat/ravenscar-sfp-stm32h743nucleo/adalib/libgnat.a(s-memcop.o)
                0x000000000800ad28                memcpy
 .text          0x000000000800addc        0x0 /home/badr/GNAT/2018-arm-elf/arm-eabi/lib/gnat/ravenscar-sfp-stm32h743nucleo/adalib/libgnat.a(s-memset.o)
 .text.memset   0x000000000800addc       0x9c /home/badr/GNAT/2018-arm-elf/arm-eabi/lib/gnat/ravenscar-sfp-stm32h743nucleo/adalib/libgnat.a(s-memset.o)
                0x000000000800addc                memset
 .text          0x000000000800ae78        0x0 /home/badr/GNAT/2018-arm-elf/arm-eabi/lib/gnat/ravenscar-sfp-stm32h743nucleo/adalib/libgnat.a(s-parame.o)
 .text.system__parameters__adjust_storage_size
                0x000000000800ae78       0x28 /home/badr/GNAT/2018-arm-elf/arm-eabi/lib/gnat/ravenscar-sfp-stm32h743nucleo/adalib/libgnat.a(s-parame.o)
                0x000000000800ae78                system__parameters__adjust_storage_size
 .text          0x000000000800aea0        0x0 /home/badr/GNAT/2018-arm-elf/arm-eabi/lib/gnat/ravenscar-sfp-stm32h743nucleo/adalib/libgnat.a(s-secsta.o)
 .text.system__secondary_stack__memoryIP
                0x000000000800aea0       0x14 /home/badr/GNAT/2018-arm-elf/arm-eabi/lib/gnat/ravenscar-sfp-stm32h743nucleo/adalib/libgnat.a(s-secsta.o)
                0x000000000800aea0                system__secondary_stack__memoryIP
 .text.system__secondary_stack__ss_stackIP
                0x000000000800aeb4       0x1c /home/badr/GNAT/2018-arm-elf/arm-eabi/lib/gnat/ravenscar-sfp-stm32h743nucleo/adalib/libgnat.a(s-secsta.o)
                0x000000000800aeb4                system__secondary_stack__ss_stackIP
 .text.system__secondary_stack__ss_allocate
                0x000000000800aed0       0xe4 /home/badr/GNAT/2018-arm-elf/arm-eabi/lib/gnat/ravenscar-sfp-stm32h743nucleo/adalib/libgnat.a(s-secsta.o)
                0x000000000800aed0                system__secondary_stack__ss_allocate
 .text.system__secondary_stack__ss_get_max
                0x000000000800afb4       0x2c /home/badr/GNAT/2018-arm-elf/arm-eabi/lib/gnat/ravenscar-sfp-stm32h743nucleo/adalib/libgnat.a(s-secsta.o)
                0x000000000800afb4                system__secondary_stack__ss_get_max
 .text.system__secondary_stack__ss_init
                0x000000000800afe0      0x1a0 /home/badr/GNAT/2018-arm-elf/arm-eabi/lib/gnat/ravenscar-sfp-stm32h743nucleo/adalib/libgnat.a(s-secsta.o)
                0x000000000800afe0                system__secondary_stack__ss_init
 .text.system__secondary_stack__ss_mark
                0x000000000800b180       0x24 /home/badr/GNAT/2018-arm-elf/arm-eabi/lib/gnat/ravenscar-sfp-stm32h743nucleo/adalib/libgnat.a(s-secsta.o)
                0x000000000800b180                system__secondary_stack__ss_mark
 .text.system__secondary_stack__ss_release
                0x000000000800b1a4       0x2c /home/badr/GNAT/2018-arm-elf/arm-eabi/lib/gnat/ravenscar-sfp-stm32h743nucleo/adalib/libgnat.a(s-secsta.o)
                0x000000000800b1a4                system__secondary_stack__ss_release
 .text          0x000000000800b1d0        0x0 /home/badr/GNAT/2018-arm-elf/arm-eabi/lib/gnat/ravenscar-sfp-stm32h743nucleo/adalib/libgnat.a(s-textio.o)
 .text.system__text_io__initialize
                0x000000000800b1d0       0x18 /home/badr/GNAT/2018-arm-elf/arm-eabi/lib/gnat/ravenscar-sfp-stm32h743nucleo/adalib/libgnat.a(s-textio.o)
                0x000000000800b1d0                system__text_io__initialize
 .text.system__text_io__is_tx_ready
                0x000000000800b1e8       0x14 /home/badr/GNAT/2018-arm-elf/arm-eabi/lib/gnat/ravenscar-sfp-stm32h743nucleo/adalib/libgnat.a(s-textio.o)
                0x000000000800b1e8                system__text_io__is_tx_ready
 .text.system__text_io__is_rx_ready
                0x000000000800b1fc       0x14 /home/badr/GNAT/2018-arm-elf/arm-eabi/lib/gnat/ravenscar-sfp-stm32h743nucleo/adalib/libgnat.a(s-textio.o)
                0x000000000800b1fc                system__text_io__is_rx_ready
 .text.system__text_io__get
                0x000000000800b210       0x1c /home/badr/GNAT/2018-arm-elf/arm-eabi/lib/gnat/ravenscar-sfp-stm32h743nucleo/adalib/libgnat.a(s-textio.o)
                0x000000000800b210                system__text_io__get
 .text.system__text_io__put
                0x000000000800b22c       0x18 /home/badr/GNAT/2018-arm-elf/arm-eabi/lib/gnat/ravenscar-sfp-stm32h743nucleo/adalib/libgnat.a(s-textio.o)
                0x000000000800b22c                system__text_io__put
 .text.system__text_io__use_cr_lf_for_new_line
                0x000000000800b244       0x14 /home/badr/GNAT/2018-arm-elf/arm-eabi/lib/gnat/ravenscar-sfp-stm32h743nucleo/adalib/libgnat.a(s-textio.o)
                0x000000000800b244                system__text_io__use_cr_lf_for_new_line
 .text          0x000000000800b258       0x6c /home/badr/GNAT/2018-arm-elf/arm-eabi/lib/gnat/ravenscar-sfp-stm32h743nucleo/adalib/libgnat.a(start-rom.o)
                0x000000000800b258                _start_rom
 .text          0x000000000800b2c4        0x0 /home/badr/GNAT/2018-arm-elf/arm-eabi/lib/gnat/ravenscar-sfp-stm32h743nucleo/adalib/libgnat.a(s-semiho.o)
 .text.system__semihosting__TbufferBIP
                0x000000000800b2c4       0x14 /home/badr/GNAT/2018-arm-elf/arm-eabi/lib/gnat/ravenscar-sfp-stm32h743nucleo/adalib/libgnat.a(s-semiho.o)
                0x000000000800b2c4                system__semihosting__TbufferBIP
 .text.system__semihosting__generic_sh_call
                0x000000000800b2d8       0x28 /home/badr/GNAT/2018-arm-elf/arm-eabi/lib/gnat/ravenscar-sfp-stm32h743nucleo/adalib/libgnat.a(s-semiho.o)
 .text.system__semihosting__flush
                0x000000000800b300       0x44 /home/badr/GNAT/2018-arm-elf/arm-eabi/lib/gnat/ravenscar-sfp-stm32h743nucleo/adalib/libgnat.a(s-semiho.o)
 .text.system__semihosting__put
                0x000000000800b344       0x90 /home/badr/GNAT/2018-arm-elf/arm-eabi/lib/gnat/ravenscar-sfp-stm32h743nucleo/adalib/libgnat.a(s-semiho.o)
                0x000000000800b344                system__semihosting__put
 .text.system__semihosting__put__2
                0x000000000800b3d4       0x48 /home/badr/GNAT/2018-arm-elf/arm-eabi/lib/gnat/ravenscar-sfp-stm32h743nucleo/adalib/libgnat.a(s-semiho.o)
                0x000000000800b3d4                system__semihosting__put__2
 .text.system__semihosting__get
                0x000000000800b41c       0x34 /home/badr/GNAT/2018-arm-elf/arm-eabi/lib/gnat/ravenscar-sfp-stm32h743nucleo/adalib/libgnat.a(s-semiho.o)
                0x000000000800b41c                system__semihosting__get
 .text          0x000000000800b450      0x104 /home/badr/GNAT/2018-arm-elf/arm-eabi/lib/gnat/ravenscar-sfp-stm32h743nucleo/adalib/libgnat.a(start-common.o)
                0x000000000800b450                _stm32_start_common
 .text          0x000000000800b554       0xa0 /home/badr/GNAT/2018-arm-elf/bin/../lib/gcc/arm-eabi/7.3.1/thumb/v7e-m/fpv5/hard/libgcc.a(_aeabi_ldivmod.o)
                0x000000000800b554                __aeabi_ldivmod
 .text          0x000000000800b5f4       0x30 /home/badr/GNAT/2018-arm-elf/bin/../lib/gcc/arm-eabi/7.3.1/thumb/v7e-m/fpv5/hard/libgcc.a(_aeabi_uldivmod.o)
                0x000000000800b5f4                __aeabi_uldivmod
 .text          0x000000000800b624      0x2cc /home/badr/GNAT/2018-arm-elf/bin/../lib/gcc/arm-eabi/7.3.1/thumb/v7e-m/fpv5/hard/libgcc.a(_udivmoddi4.o)
                0x000000000800b624                __udivmoddi4
 .text          0x000000000800b8f0        0x4 /home/badr/GNAT/2018-arm-elf/bin/../lib/gcc/arm-eabi/7.3.1/thumb/v7e-m/fpv5/hard/libgcc.a(_dvmd_tls.o)
                0x000000000800b8f0                __aeabi_ldiv0
                0x000000000800b8f0                __aeabi_idiv0
 *(.gnu.warning)

.glue_7         0x000000000800b8f4        0x0
 .glue_7        0x000000000800b8f4        0x0 linker stubs

.glue_7t        0x000000000800b8f4        0x0
 .glue_7t       0x000000000800b8f4        0x0 linker stubs

.vfp11_veneer   0x000000000800b8f4        0x0
 .vfp11_veneer  0x000000000800b8f4        0x0 linker stubs

.v4_bx          0x000000000800b8f4        0x0
 .v4_bx         0x000000000800b8f4        0x0 linker stubs

.iplt           0x000000000800b8f4        0x0
 .iplt          0x000000000800b8f4        0x0 spi.o

.ARM.extab      0x000000000800b8f4        0x0
 *(.ARM.extab* .gnu.linkonce.armextab.*)
 .ARM.extab     0x000000000800b8f4        0x0 /home/badr/GNAT/2018-arm-elf/bin/../lib/gcc/arm-eabi/7.3.1/thumb/v7e-m/fpv5/hard/libgcc.a(_udivmoddi4.o)

.ARM.exidx      0x000000000800b8f4        0x8
                [!provide]                        PROVIDE (__exidx_start, .)
 *(.ARM.exidx* .gnu.linkonce.armexidx.*)
 .ARM.exidx     0x000000000800b8f4        0x8 /home/badr/GNAT/2018-arm-elf/bin/../lib/gcc/arm-eabi/7.3.1/thumb/v7e-m/fpv5/hard/libgcc.a(_udivmoddi4.o)
                [!provide]                        PROVIDE (__exidx_end, .)

.rodata         0x000000000800b900     0x11d0
 *(.lit)
 *(.rodata .rodata.* .gnu.linkonce.r*)
 .rodata        0x000000000800b900        0x4 spi.o
 .rodata        0x000000000800b904       0x3d b__spi.o
                0x000000000800b90c                __gnat_version
                0x000000000800b938                __gnat_ada_main_program_name
 *fill*         0x000000000800b941        0x3 
 .rodata        0x000000000800b944       0x29 /home/badr/hackinvent/Ada_Drivers_Library/boards/stm32h743_nucleo/obj/sfp_lib_Debug/libada_drivers_library.a(stm32-board.o)
 *fill*         0x000000000800b96d        0x3 
 .rodata.stm32__board__red_led
                0x000000000800b970        0x4 /home/badr/hackinvent/Ada_Drivers_Library/boards/stm32h743_nucleo/obj/sfp_lib_Debug/libada_drivers_library.a(stm32-board.o)
                0x000000000800b970                stm32__board__red_led
 .rodata.stm32__board__green_led
                0x000000000800b974        0x4 /home/badr/hackinvent/Ada_Drivers_Library/boards/stm32h743_nucleo/obj/sfp_lib_Debug/libada_drivers_library.a(stm32-board.o)
                0x000000000800b974                stm32__board__green_led
 .rodata.stm32__board__green2_led
                0x000000000800b978        0x4 /home/badr/hackinvent/Ada_Drivers_Library/boards/stm32h743_nucleo/obj/sfp_lib_Debug/libada_drivers_library.a(stm32-board.o)
                0x000000000800b978                stm32__board__green2_led
 .rodata.stm32__board__led1
                0x000000000800b97c        0x4 /home/badr/hackinvent/Ada_Drivers_Library/boards/stm32h743_nucleo/obj/sfp_lib_Debug/libada_drivers_library.a(stm32-board.o)
                0x000000000800b97c                stm32__board__led1
 .rodata.stm32__board__led2
                0x000000000800b980        0x4 /home/badr/hackinvent/Ada_Drivers_Library/boards/stm32h743_nucleo/obj/sfp_lib_Debug/libada_drivers_library.a(stm32-board.o)
                0x000000000800b980                stm32__board__led2
 .rodata.stm32__board__led3
                0x000000000800b984        0x4 /home/badr/hackinvent/Ada_Drivers_Library/boards/stm32h743_nucleo/obj/sfp_lib_Debug/libada_drivers_library.a(stm32-board.o)
                0x000000000800b984                stm32__board__led3
 .rodata.stm32__board__lch_led
                0x000000000800b988        0x4 /home/badr/hackinvent/Ada_Drivers_Library/boards/stm32h743_nucleo/obj/sfp_lib_Debug/libada_drivers_library.a(stm32-board.o)
                0x000000000800b988                stm32__board__lch_led
 .rodata.stm32__board__ext_spi
                0x000000000800b98c        0x4 /home/badr/hackinvent/Ada_Drivers_Library/boards/stm32h743_nucleo/obj/sfp_lib_Debug/libada_drivers_library.a(stm32-board.o)
                0x000000000800b98c                stm32__board__ext_spi
 .rodata.stm32__board__ext_sck
                0x000000000800b990        0x4 /home/badr/hackinvent/Ada_Drivers_Library/boards/stm32h743_nucleo/obj/sfp_lib_Debug/libada_drivers_library.a(stm32-board.o)
                0x000000000800b990                stm32__board__ext_sck
 .rodata.stm32__board__ext_miso
                0x000000000800b994        0x4 /home/badr/hackinvent/Ada_Drivers_Library/boards/stm32h743_nucleo/obj/sfp_lib_Debug/libada_drivers_library.a(stm32-board.o)
                0x000000000800b994                stm32__board__ext_miso
 .rodata.stm32__board__ext_mosi
                0x000000000800b998        0x4 /home/badr/hackinvent/Ada_Drivers_Library/boards/stm32h743_nucleo/obj/sfp_lib_Debug/libada_drivers_library.a(stm32-board.o)
                0x000000000800b998                stm32__board__ext_mosi
 .rodata        0x000000000800b99c       0x89 /home/badr/hackinvent/Ada_Drivers_Library/boards/stm32h743_nucleo/obj/sfp_lib_Debug/libada_drivers_library.a(stm32-device.o)
 *fill*         0x000000000800ba25        0x3 
 .rodata.stm32__device__unknown_deviceE
                0x000000000800ba28       0x1c /home/badr/hackinvent/Ada_Drivers_Library/boards/stm32h743_nucleo/obj/sfp_lib_Debug/libada_drivers_library.a(stm32-device.o)
                0x000000000800ba28                stm32__device__unknown_deviceE
 .rodata.stm32__device__R4s
                0x000000000800ba44        0x4 /home/badr/hackinvent/Ada_Drivers_Library/boards/stm32h743_nucleo/obj/sfp_lib_Debug/libada_drivers_library.a(stm32-device.o)
                0x000000000800ba44                stm32__device__R4s
 .rodata.stm32__device__gpio_a
                0x000000000800ba48        0x4 /home/badr/hackinvent/Ada_Drivers_Library/boards/stm32h743_nucleo/obj/sfp_lib_Debug/libada_drivers_library.a(stm32-device.o)
                0x000000000800ba48                stm32__device__gpio_a
 .rodata.stm32__device__gpio_b
                0x000000000800ba4c        0x4 /home/badr/hackinvent/Ada_Drivers_Library/boards/stm32h743_nucleo/obj/sfp_lib_Debug/libada_drivers_library.a(stm32-device.o)
                0x000000000800ba4c                stm32__device__gpio_b
 .rodata.stm32__device__gpio_c
                0x000000000800ba50        0x4 /home/badr/hackinvent/Ada_Drivers_Library/boards/stm32h743_nucleo/obj/sfp_lib_Debug/libada_drivers_library.a(stm32-device.o)
                0x000000000800ba50                stm32__device__gpio_c
 .rodata.stm32__device__gpio_d
                0x000000000800ba54        0x4 /home/badr/hackinvent/Ada_Drivers_Library/boards/stm32h743_nucleo/obj/sfp_lib_Debug/libada_drivers_library.a(stm32-device.o)
                0x000000000800ba54                stm32__device__gpio_d
 .rodata.stm32__device__gpio_e
                0x000000000800ba58        0x4 /home/badr/hackinvent/Ada_Drivers_Library/boards/stm32h743_nucleo/obj/sfp_lib_Debug/libada_drivers_library.a(stm32-device.o)
                0x000000000800ba58                stm32__device__gpio_e
 .rodata.stm32__device__gpio_f
                0x000000000800ba5c        0x4 /home/badr/hackinvent/Ada_Drivers_Library/boards/stm32h743_nucleo/obj/sfp_lib_Debug/libada_drivers_library.a(stm32-device.o)
                0x000000000800ba5c                stm32__device__gpio_f
 .rodata.stm32__device__gpio_g
                0x000000000800ba60        0x4 /home/badr/hackinvent/Ada_Drivers_Library/boards/stm32h743_nucleo/obj/sfp_lib_Debug/libada_drivers_library.a(stm32-device.o)
                0x000000000800ba60                stm32__device__gpio_g
 .rodata.stm32__device__gpio_h
                0x000000000800ba64        0x4 /home/badr/hackinvent/Ada_Drivers_Library/boards/stm32h743_nucleo/obj/sfp_lib_Debug/libada_drivers_library.a(stm32-device.o)
                0x000000000800ba64                stm32__device__gpio_h
 .rodata.stm32__device__gpio_i
                0x000000000800ba68        0x4 /home/badr/hackinvent/Ada_Drivers_Library/boards/stm32h743_nucleo/obj/sfp_lib_Debug/libada_drivers_library.a(stm32-device.o)
                0x000000000800ba68                stm32__device__gpio_i
 .rodata.stm32__device__gpio_j
                0x000000000800ba6c        0x4 /home/badr/hackinvent/Ada_Drivers_Library/boards/stm32h743_nucleo/obj/sfp_lib_Debug/libada_drivers_library.a(stm32-device.o)
                0x000000000800ba6c                stm32__device__gpio_j
 .rodata.stm32__device__gpio_k
                0x000000000800ba70        0x4 /home/badr/hackinvent/Ada_Drivers_Library/boards/stm32h743_nucleo/obj/sfp_lib_Debug/libada_drivers_library.a(stm32-device.o)
                0x000000000800ba70                stm32__device__gpio_k
 .rodata.stm32__device__internal_spi_1
                0x000000000800ba74        0x4 /home/badr/hackinvent/Ada_Drivers_Library/boards/stm32h743_nucleo/obj/sfp_lib_Debug/libada_drivers_library.a(stm32-device.o)
                0x000000000800ba74                stm32__device__internal_spi_1
 .rodata.stm32__device__internal_spi_2
                0x000000000800ba78        0x4 /home/badr/hackinvent/Ada_Drivers_Library/boards/stm32h743_nucleo/obj/sfp_lib_Debug/libada_drivers_library.a(stm32-device.o)
                0x000000000800ba78                stm32__device__internal_spi_2
 .rodata.stm32__device__internal_spi_3
                0x000000000800ba7c        0x4 /home/badr/hackinvent/Ada_Drivers_Library/boards/stm32h743_nucleo/obj/sfp_lib_Debug/libada_drivers_library.a(stm32-device.o)
                0x000000000800ba7c                stm32__device__internal_spi_3
 .rodata.stm32__device__internal_spi_4
                0x000000000800ba80        0x4 /home/badr/hackinvent/Ada_Drivers_Library/boards/stm32h743_nucleo/obj/sfp_lib_Debug/libada_drivers_library.a(stm32-device.o)
                0x000000000800ba80                stm32__device__internal_spi_4
 .rodata.stm32__device__internal_spi_5
                0x000000000800ba84        0x4 /home/badr/hackinvent/Ada_Drivers_Library/boards/stm32h743_nucleo/obj/sfp_lib_Debug/libada_drivers_library.a(stm32-device.o)
                0x000000000800ba84                stm32__device__internal_spi_5
 .rodata.stm32__device__internal_spi_6
                0x000000000800ba88        0x4 /home/badr/hackinvent/Ada_Drivers_Library/boards/stm32h743_nucleo/obj/sfp_lib_Debug/libada_drivers_library.a(stm32-device.o)
                0x000000000800ba88                stm32__device__internal_spi_6
 .rodata.stm32__device__pllsai_div2
                0x000000000800ba8c        0x1 /home/badr/hackinvent/Ada_Drivers_Library/boards/stm32h743_nucleo/obj/sfp_lib_Debug/libada_drivers_library.a(stm32-device.o)
                0x000000000800ba8c                stm32__device__pllsai_div2
 .rodata.stm32__device__pllsai_div4
                0x000000000800ba8d        0x1 /home/badr/hackinvent/Ada_Drivers_Library/boards/stm32h743_nucleo/obj/sfp_lib_Debug/libada_drivers_library.a(stm32-device.o)
                0x000000000800ba8d                stm32__device__pllsai_div4
 .rodata.stm32__device__pllsai_div8
                0x000000000800ba8e        0x1 /home/badr/hackinvent/Ada_Drivers_Library/boards/stm32h743_nucleo/obj/sfp_lib_Debug/libada_drivers_library.a(stm32-device.o)
                0x000000000800ba8e                stm32__device__pllsai_div8
 .rodata.stm32__device__pllsai_div16
                0x000000000800ba8f        0x1 /home/badr/hackinvent/Ada_Drivers_Library/boards/stm32h743_nucleo/obj/sfp_lib_Debug/libada_drivers_library.a(stm32-device.o)
                0x000000000800ba8f                stm32__device__pllsai_div16
 .rodata.stm32__device__hse_value
                0x000000000800ba90        0x4 /home/badr/hackinvent/Ada_Drivers_Library/boards/stm32h743_nucleo/obj/sfp_lib_Debug/libada_drivers_library.a(stm32-device.o)
                0x000000000800ba90                stm32__device__hse_value
 .rodata.stm32__device__gpio_af_rtc_50hz_0
                0x000000000800ba94        0x1 /home/badr/hackinvent/Ada_Drivers_Library/boards/stm32h743_nucleo/obj/sfp_lib_Debug/libada_drivers_library.a(stm32-device.o)
                0x000000000800ba94                stm32__device__gpio_af_rtc_50hz_0
 .rodata.stm32__device__gpio_af_mco_0
                0x000000000800ba95        0x1 /home/badr/hackinvent/Ada_Drivers_Library/boards/stm32h743_nucleo/obj/sfp_lib_Debug/libada_drivers_library.a(stm32-device.o)
                0x000000000800ba95                stm32__device__gpio_af_mco_0
 .rodata.stm32__device__gpio_af_tamper_0
                0x000000000800ba96        0x1 /home/badr/hackinvent/Ada_Drivers_Library/boards/stm32h743_nucleo/obj/sfp_lib_Debug/libada_drivers_library.a(stm32-device.o)
                0x000000000800ba96                stm32__device__gpio_af_tamper_0
 .rodata.stm32__device__gpio_af_swj_0
                0x000000000800ba97        0x1 /home/badr/hackinvent/Ada_Drivers_Library/boards/stm32h743_nucleo/obj/sfp_lib_Debug/libada_drivers_library.a(stm32-device.o)
                0x000000000800ba97                stm32__device__gpio_af_swj_0
 .rodata.stm32__device__gpio_af_trace_0
                0x000000000800ba98        0x1 /home/badr/hackinvent/Ada_Drivers_Library/boards/stm32h743_nucleo/obj/sfp_lib_Debug/libada_drivers_library.a(stm32-device.o)
                0x000000000800ba98                stm32__device__gpio_af_trace_0
 .rodata.stm32__device__gpio_af_tim1_1
                0x000000000800ba99        0x1 /home/badr/hackinvent/Ada_Drivers_Library/boards/stm32h743_nucleo/obj/sfp_lib_Debug/libada_drivers_library.a(stm32-device.o)
                0x000000000800ba99                stm32__device__gpio_af_tim1_1
 .rodata.stm32__device__gpio_af_tim2_1
                0x000000000800ba9a        0x1 /home/badr/hackinvent/Ada_Drivers_Library/boards/stm32h743_nucleo/obj/sfp_lib_Debug/libada_drivers_library.a(stm32-device.o)
                0x000000000800ba9a                stm32__device__gpio_af_tim2_1
 .rodata.stm32__device__gpio_af_i2c4_1
                0x000000000800ba9b        0x1 /home/badr/hackinvent/Ada_Drivers_Library/boards/stm32h743_nucleo/obj/sfp_lib_Debug/libada_drivers_library.a(stm32-device.o)
                0x000000000800ba9b                stm32__device__gpio_af_i2c4_1
 .rodata.stm32__device__gpio_af_uart5_1
                0x000000000800ba9c        0x1 /home/badr/hackinvent/Ada_Drivers_Library/boards/stm32h743_nucleo/obj/sfp_lib_Debug/libada_drivers_library.a(stm32-device.o)
                0x000000000800ba9c                stm32__device__gpio_af_uart5_1
 .rodata.stm32__device__gpio_af_tim3_2
                0x000000000800ba9d        0x1 /home/badr/hackinvent/Ada_Drivers_Library/boards/stm32h743_nucleo/obj/sfp_lib_Debug/libada_drivers_library.a(stm32-device.o)
                0x000000000800ba9d                stm32__device__gpio_af_tim3_2
 .rodata.stm32__device__gpio_af_tim4_2
                0x000000000800ba9e        0x1 /home/badr/hackinvent/Ada_Drivers_Library/boards/stm32h743_nucleo/obj/sfp_lib_Debug/libada_drivers_library.a(stm32-device.o)
                0x000000000800ba9e                stm32__device__gpio_af_tim4_2
 .rodata.stm32__device__gpio_af_tim5_2
                0x000000000800ba9f        0x1 /home/badr/hackinvent/Ada_Drivers_Library/boards/stm32h743_nucleo/obj/sfp_lib_Debug/libada_drivers_library.a(stm32-device.o)
                0x000000000800ba9f                stm32__device__gpio_af_tim5_2
 .rodata.stm32__device__gpio_af_tim8_3
                0x000000000800baa0        0x1 /home/badr/hackinvent/Ada_Drivers_Library/boards/stm32h743_nucleo/obj/sfp_lib_Debug/libada_drivers_library.a(stm32-device.o)
                0x000000000800baa0                stm32__device__gpio_af_tim8_3
 .rodata.stm32__device__gpio_af_tim9_3
                0x000000000800baa1        0x1 /home/badr/hackinvent/Ada_Drivers_Library/boards/stm32h743_nucleo/obj/sfp_lib_Debug/libada_drivers_library.a(stm32-device.o)
                0x000000000800baa1                stm32__device__gpio_af_tim9_3
 .rodata.stm32__device__gpio_af_tim10_3
                0x000000000800baa2        0x1 /home/badr/hackinvent/Ada_Drivers_Library/boards/stm32h743_nucleo/obj/sfp_lib_Debug/libada_drivers_library.a(stm32-device.o)
                0x000000000800baa2                stm32__device__gpio_af_tim10_3
 .rodata.stm32__device__gpio_af_tim11_3
                0x000000000800baa3        0x1 /home/badr/hackinvent/Ada_Drivers_Library/boards/stm32h743_nucleo/obj/sfp_lib_Debug/libada_drivers_library.a(stm32-device.o)
                0x000000000800baa3                stm32__device__gpio_af_tim11_3
 .rodata.stm32__device__gpio_af_lptim1_3
                0x000000000800baa4        0x1 /home/badr/hackinvent/Ada_Drivers_Library/boards/stm32h743_nucleo/obj/sfp_lib_Debug/libada_drivers_library.a(stm32-device.o)
                0x000000000800baa4                stm32__device__gpio_af_lptim1_3
 .rodata.stm32__device__gpio_af_dfsdm1_3
                0x000000000800baa5        0x1 /home/badr/hackinvent/Ada_Drivers_Library/boards/stm32h743_nucleo/obj/sfp_lib_Debug/libada_drivers_library.a(stm32-device.o)
                0x000000000800baa5                stm32__device__gpio_af_dfsdm1_3
 .rodata.stm32__device__gpio_af_cec_3
                0x000000000800baa6        0x1 /home/badr/hackinvent/Ada_Drivers_Library/boards/stm32h743_nucleo/obj/sfp_lib_Debug/libada_drivers_library.a(stm32-device.o)
                0x000000000800baa6                stm32__device__gpio_af_cec_3
 .rodata.stm32__device__gpio_af_i2c1_4
                0x000000000800baa7        0x1 /home/badr/hackinvent/Ada_Drivers_Library/boards/stm32h743_nucleo/obj/sfp_lib_Debug/libada_drivers_library.a(stm32-device.o)
                0x000000000800baa7                stm32__device__gpio_af_i2c1_4
 .rodata.stm32__device__gpio_af_i2c2_4
                0x000000000800baa8        0x1 /home/badr/hackinvent/Ada_Drivers_Library/boards/stm32h743_nucleo/obj/sfp_lib_Debug/libada_drivers_library.a(stm32-device.o)
                0x000000000800baa8                stm32__device__gpio_af_i2c2_4
 .rodata.stm32__device__gpio_af_i2c3_4
                0x000000000800baa9        0x1 /home/badr/hackinvent/Ada_Drivers_Library/boards/stm32h743_nucleo/obj/sfp_lib_Debug/libada_drivers_library.a(stm32-device.o)
                0x000000000800baa9                stm32__device__gpio_af_i2c3_4
 .rodata.stm32__device__gpio_af_i2c4_4
                0x000000000800baaa        0x1 /home/badr/hackinvent/Ada_Drivers_Library/boards/stm32h743_nucleo/obj/sfp_lib_Debug/libada_drivers_library.a(stm32-device.o)
                0x000000000800baaa                stm32__device__gpio_af_i2c4_4
 .rodata.stm32__device__gpio_af_usart1_4
                0x000000000800baab        0x1 /home/badr/hackinvent/Ada_Drivers_Library/boards/stm32h743_nucleo/obj/sfp_lib_Debug/libada_drivers_library.a(stm32-device.o)
                0x000000000800baab                stm32__device__gpio_af_usart1_4
 .rodata.stm32__device__gpio_af_cec_4
                0x000000000800baac        0x1 /home/badr/hackinvent/Ada_Drivers_Library/boards/stm32h743_nucleo/obj/sfp_lib_Debug/libada_drivers_library.a(stm32-device.o)
                0x000000000800baac                stm32__device__gpio_af_cec_4
 .rodata.stm32__device__gpio_af_spi1_5
                0x000000000800baad        0x1 /home/badr/hackinvent/Ada_Drivers_Library/boards/stm32h743_nucleo/obj/sfp_lib_Debug/libada_drivers_library.a(stm32-device.o)
                0x000000000800baad                stm32__device__gpio_af_spi1_5
 .rodata.stm32__device__gpio_af_spi2_5
                0x000000000800baae        0x1 /home/badr/hackinvent/Ada_Drivers_Library/boards/stm32h743_nucleo/obj/sfp_lib_Debug/libada_drivers_library.a(stm32-device.o)
                0x000000000800baae                stm32__device__gpio_af_spi2_5
 .rodata.stm32__device__gpio_af_i2s3_5
                0x000000000800baaf        0x1 /home/badr/hackinvent/Ada_Drivers_Library/boards/stm32h743_nucleo/obj/sfp_lib_Debug/libada_drivers_library.a(stm32-device.o)
                0x000000000800baaf                stm32__device__gpio_af_i2s3_5
 .rodata.stm32__device__gpio_af_spi4_5
                0x000000000800bab0        0x1 /home/badr/hackinvent/Ada_Drivers_Library/boards/stm32h743_nucleo/obj/sfp_lib_Debug/libada_drivers_library.a(stm32-device.o)
                0x000000000800bab0                stm32__device__gpio_af_spi4_5
 .rodata.stm32__device__gpio_af_spi5_5
                0x000000000800bab1        0x1 /home/badr/hackinvent/Ada_Drivers_Library/boards/stm32h743_nucleo/obj/sfp_lib_Debug/libada_drivers_library.a(stm32-device.o)
                0x000000000800bab1                stm32__device__gpio_af_spi5_5
 .rodata.stm32__device__gpio_af_spi6_5
                0x000000000800bab2        0x1 /home/badr/hackinvent/Ada_Drivers_Library/boards/stm32h743_nucleo/obj/sfp_lib_Debug/libada_drivers_library.a(stm32-device.o)
                0x000000000800bab2                stm32__device__gpio_af_spi6_5
 .rodata.stm32__device__gpio_af_spi2_6
                0x000000000800bab3        0x1 /home/badr/hackinvent/Ada_Drivers_Library/boards/stm32h743_nucleo/obj/sfp_lib_Debug/libada_drivers_library.a(stm32-device.o)
                0x000000000800bab3                stm32__device__gpio_af_spi2_6
 .rodata.stm32__device__gpio_af_spi3_6
                0x000000000800bab4        0x1 /home/badr/hackinvent/Ada_Drivers_Library/boards/stm32h743_nucleo/obj/sfp_lib_Debug/libada_drivers_library.a(stm32-device.o)
                0x000000000800bab4                stm32__device__gpio_af_spi3_6
 .rodata.stm32__device__gpio_af_i2s2_6
                0x000000000800bab5        0x1 /home/badr/hackinvent/Ada_Drivers_Library/boards/stm32h743_nucleo/obj/sfp_lib_Debug/libada_drivers_library.a(stm32-device.o)
                0x000000000800bab5                stm32__device__gpio_af_i2s2_6
 .rodata.stm32__device__gpio_af_i2s3_6
                0x000000000800bab6        0x1 /home/badr/hackinvent/Ada_Drivers_Library/boards/stm32h743_nucleo/obj/sfp_lib_Debug/libada_drivers_library.a(stm32-device.o)
                0x000000000800bab6                stm32__device__gpio_af_i2s3_6
 .rodata.stm32__device__gpio_af_sai1_6
                0x000000000800bab7        0x1 /home/badr/hackinvent/Ada_Drivers_Library/boards/stm32h743_nucleo/obj/sfp_lib_Debug/libada_drivers_library.a(stm32-device.o)
                0x000000000800bab7                stm32__device__gpio_af_sai1_6
 .rodata.stm32__device__gpio_af_uart4_6
                0x000000000800bab8        0x1 /home/badr/hackinvent/Ada_Drivers_Library/boards/stm32h743_nucleo/obj/sfp_lib_Debug/libada_drivers_library.a(stm32-device.o)
                0x000000000800bab8                stm32__device__gpio_af_uart4_6
 .rodata.stm32__device__gpio_af_dfsdm1_6
                0x000000000800bab9        0x1 /home/badr/hackinvent/Ada_Drivers_Library/boards/stm32h743_nucleo/obj/sfp_lib_Debug/libada_drivers_library.a(stm32-device.o)
                0x000000000800bab9                stm32__device__gpio_af_dfsdm1_6
 .rodata.stm32__device__gpio_af_spi2_7
                0x000000000800baba        0x1 /home/badr/hackinvent/Ada_Drivers_Library/boards/stm32h743_nucleo/obj/sfp_lib_Debug/libada_drivers_library.a(stm32-device.o)
                0x000000000800baba                stm32__device__gpio_af_spi2_7
 .rodata.stm32__device__gpio_af_i2s2_7
                0x000000000800babb        0x1 /home/badr/hackinvent/Ada_Drivers_Library/boards/stm32h743_nucleo/obj/sfp_lib_Debug/libada_drivers_library.a(stm32-device.o)
                0x000000000800babb                stm32__device__gpio_af_i2s2_7
 .rodata.stm32__device__gpio_af_spi3_7
                0x000000000800babc        0x1 /home/badr/hackinvent/Ada_Drivers_Library/boards/stm32h743_nucleo/obj/sfp_lib_Debug/libada_drivers_library.a(stm32-device.o)
                0x000000000800babc                stm32__device__gpio_af_spi3_7
 .rodata.stm32__device__gpio_af_i2s3_7
                0x000000000800babd        0x1 /home/badr/hackinvent/Ada_Drivers_Library/boards/stm32h743_nucleo/obj/sfp_lib_Debug/libada_drivers_library.a(stm32-device.o)
                0x000000000800babd                stm32__device__gpio_af_i2s3_7
 .rodata.stm32__device__gpio_af_spi6_7
                0x000000000800babe        0x1 /home/badr/hackinvent/Ada_Drivers_Library/boards/stm32h743_nucleo/obj/sfp_lib_Debug/libada_drivers_library.a(stm32-device.o)
                0x000000000800babe                stm32__device__gpio_af_spi6_7
 .rodata.stm32__device__gpio_af_usart1_7
                0x000000000800babf        0x1 /home/badr/hackinvent/Ada_Drivers_Library/boards/stm32h743_nucleo/obj/sfp_lib_Debug/libada_drivers_library.a(stm32-device.o)
                0x000000000800babf                stm32__device__gpio_af_usart1_7
 .rodata.stm32__device__gpio_af_usart2_7
                0x000000000800bac0        0x1 /home/badr/hackinvent/Ada_Drivers_Library/boards/stm32h743_nucleo/obj/sfp_lib_Debug/libada_drivers_library.a(stm32-device.o)
                0x000000000800bac0                stm32__device__gpio_af_usart2_7
 .rodata.stm32__device__gpio_af_usart3_7
                0x000000000800bac1        0x1 /home/badr/hackinvent/Ada_Drivers_Library/boards/stm32h743_nucleo/obj/sfp_lib_Debug/libada_drivers_library.a(stm32-device.o)
                0x000000000800bac1                stm32__device__gpio_af_usart3_7
 .rodata.stm32__device__gpio_af_uart5_7
                0x000000000800bac2        0x1 /home/badr/hackinvent/Ada_Drivers_Library/boards/stm32h743_nucleo/obj/sfp_lib_Debug/libada_drivers_library.a(stm32-device.o)
                0x000000000800bac2                stm32__device__gpio_af_uart5_7
 .rodata.stm32__device__gpio_af_dfsdm1_7
                0x000000000800bac3        0x1 /home/badr/hackinvent/Ada_Drivers_Library/boards/stm32h743_nucleo/obj/sfp_lib_Debug/libada_drivers_library.a(stm32-device.o)
                0x000000000800bac3                stm32__device__gpio_af_dfsdm1_7
 .rodata.stm32__device__gpio_af_spdif_7
                0x000000000800bac4        0x1 /home/badr/hackinvent/Ada_Drivers_Library/boards/stm32h743_nucleo/obj/sfp_lib_Debug/libada_drivers_library.a(stm32-device.o)
                0x000000000800bac4                stm32__device__gpio_af_spdif_7
 .rodata.stm32__device__gpio_af_spi6_8
                0x000000000800bac5        0x1 /home/badr/hackinvent/Ada_Drivers_Library/boards/stm32h743_nucleo/obj/sfp_lib_Debug/libada_drivers_library.a(stm32-device.o)
                0x000000000800bac5                stm32__device__gpio_af_spi6_8
 .rodata.stm32__device__gpio_af_sai2_8
                0x000000000800bac6        0x1 /home/badr/hackinvent/Ada_Drivers_Library/boards/stm32h743_nucleo/obj/sfp_lib_Debug/libada_drivers_library.a(stm32-device.o)
                0x000000000800bac6                stm32__device__gpio_af_sai2_8
 .rodata.stm32__device__gpio_af_uart4_8
                0x000000000800bac7        0x1 /home/badr/hackinvent/Ada_Drivers_Library/boards/stm32h743_nucleo/obj/sfp_lib_Debug/libada_drivers_library.a(stm32-device.o)
                0x000000000800bac7                stm32__device__gpio_af_uart4_8
 .rodata.stm32__device__gpio_af_uart5_8
                0x000000000800bac8        0x1 /home/badr/hackinvent/Ada_Drivers_Library/boards/stm32h743_nucleo/obj/sfp_lib_Debug/libada_drivers_library.a(stm32-device.o)
                0x000000000800bac8                stm32__device__gpio_af_uart5_8
 .rodata.stm32__device__gpio_af_usart6_8
                0x000000000800bac9        0x1 /home/badr/hackinvent/Ada_Drivers_Library/boards/stm32h743_nucleo/obj/sfp_lib_Debug/libada_drivers_library.a(stm32-device.o)
                0x000000000800bac9                stm32__device__gpio_af_usart6_8
 .rodata.stm32__device__gpio_af_uart7_8
                0x000000000800baca        0x1 /home/badr/hackinvent/Ada_Drivers_Library/boards/stm32h743_nucleo/obj/sfp_lib_Debug/libada_drivers_library.a(stm32-device.o)
                0x000000000800baca                stm32__device__gpio_af_uart7_8
 .rodata.stm32__device__gpio_af_uart8_8
                0x000000000800bacb        0x1 /home/badr/hackinvent/Ada_Drivers_Library/boards/stm32h743_nucleo/obj/sfp_lib_Debug/libada_drivers_library.a(stm32-device.o)
                0x000000000800bacb                stm32__device__gpio_af_uart8_8
 .rodata.stm32__device__gpio_af_otg_fs_8
                0x000000000800bacc        0x1 /home/badr/hackinvent/Ada_Drivers_Library/boards/stm32h743_nucleo/obj/sfp_lib_Debug/libada_drivers_library.a(stm32-device.o)
                0x000000000800bacc                stm32__device__gpio_af_otg_fs_8
 .rodata.stm32__device__gpio_af_spdif_8
                0x000000000800bacd        0x1 /home/badr/hackinvent/Ada_Drivers_Library/boards/stm32h743_nucleo/obj/sfp_lib_Debug/libada_drivers_library.a(stm32-device.o)
                0x000000000800bacd                stm32__device__gpio_af_spdif_8
 .rodata.stm32__device__gpio_af_can1_9
                0x000000000800bace        0x1 /home/badr/hackinvent/Ada_Drivers_Library/boards/stm32h743_nucleo/obj/sfp_lib_Debug/libada_drivers_library.a(stm32-device.o)
                0x000000000800bace                stm32__device__gpio_af_can1_9
 .rodata.stm32__device__gpio_af_can2_9
                0x000000000800bacf        0x1 /home/badr/hackinvent/Ada_Drivers_Library/boards/stm32h743_nucleo/obj/sfp_lib_Debug/libada_drivers_library.a(stm32-device.o)
                0x000000000800bacf                stm32__device__gpio_af_can2_9
 .rodata.stm32__device__gpio_af_tim12_9
                0x000000000800bad0        0x1 /home/badr/hackinvent/Ada_Drivers_Library/boards/stm32h743_nucleo/obj/sfp_lib_Debug/libada_drivers_library.a(stm32-device.o)
                0x000000000800bad0                stm32__device__gpio_af_tim12_9
 .rodata.stm32__device__gpio_af_tim13_9
                0x000000000800bad1        0x1 /home/badr/hackinvent/Ada_Drivers_Library/boards/stm32h743_nucleo/obj/sfp_lib_Debug/libada_drivers_library.a(stm32-device.o)
                0x000000000800bad1                stm32__device__gpio_af_tim13_9
 .rodata.stm32__device__gpio_af_tim14_9
                0x000000000800bad2        0x1 /home/badr/hackinvent/Ada_Drivers_Library/boards/stm32h743_nucleo/obj/sfp_lib_Debug/libada_drivers_library.a(stm32-device.o)
                0x000000000800bad2                stm32__device__gpio_af_tim14_9
 .rodata.stm32__device__gpio_af_quadspi_9
                0x000000000800bad3        0x1 /home/badr/hackinvent/Ada_Drivers_Library/boards/stm32h743_nucleo/obj/sfp_lib_Debug/libada_drivers_library.a(stm32-device.o)
                0x000000000800bad3                stm32__device__gpio_af_quadspi_9
 .rodata.stm32__device__gpio_af_fmc_9
                0x000000000800bad4        0x1 /home/badr/hackinvent/Ada_Drivers_Library/boards/stm32h743_nucleo/obj/sfp_lib_Debug/libada_drivers_library.a(stm32-device.o)
                0x000000000800bad4                stm32__device__gpio_af_fmc_9
 .rodata.stm32__device__gpio_af_ltdc_9
                0x000000000800bad5        0x1 /home/badr/hackinvent/Ada_Drivers_Library/boards/stm32h743_nucleo/obj/sfp_lib_Debug/libada_drivers_library.a(stm32-device.o)
                0x000000000800bad5                stm32__device__gpio_af_ltdc_9
 .rodata.stm32__device__gpio_af_sai2_10
                0x000000000800bad6        0x1 /home/badr/hackinvent/Ada_Drivers_Library/boards/stm32h743_nucleo/obj/sfp_lib_Debug/libada_drivers_library.a(stm32-device.o)
                0x000000000800bad6                stm32__device__gpio_af_sai2_10
 .rodata.stm32__device__gpio_af_quadspi_10
                0x000000000800bad7        0x1 /home/badr/hackinvent/Ada_Drivers_Library/boards/stm32h743_nucleo/obj/sfp_lib_Debug/libada_drivers_library.a(stm32-device.o)
                0x000000000800bad7                stm32__device__gpio_af_quadspi_10
 .rodata.stm32__device__gpio_af_sdmmc2_10
                0x000000000800bad8        0x1 /home/badr/hackinvent/Ada_Drivers_Library/boards/stm32h743_nucleo/obj/sfp_lib_Debug/libada_drivers_library.a(stm32-device.o)
                0x000000000800bad8                stm32__device__gpio_af_sdmmc2_10
 .rodata.stm32__device__gpio_af_dfsdm1_10
                0x000000000800bad9        0x1 /home/badr/hackinvent/Ada_Drivers_Library/boards/stm32h743_nucleo/obj/sfp_lib_Debug/libada_drivers_library.a(stm32-device.o)
                0x000000000800bad9                stm32__device__gpio_af_dfsdm1_10
 .rodata.stm32__device__gpio_af_otg1_fs_10
                0x000000000800bada        0x1 /home/badr/hackinvent/Ada_Drivers_Library/boards/stm32h743_nucleo/obj/sfp_lib_Debug/libada_drivers_library.a(stm32-device.o)
                0x000000000800bada                stm32__device__gpio_af_otg1_fs_10
 .rodata.stm32__device__gpio_af_otg_hs_10
                0x000000000800badb        0x1 /home/badr/hackinvent/Ada_Drivers_Library/boards/stm32h743_nucleo/obj/sfp_lib_Debug/libada_drivers_library.a(stm32-device.o)
                0x000000000800badb                stm32__device__gpio_af_otg_hs_10
 .rodata.stm32__device__gpio_af_ltdc_10
                0x000000000800badc        0x1 /home/badr/hackinvent/Ada_Drivers_Library/boards/stm32h743_nucleo/obj/sfp_lib_Debug/libada_drivers_library.a(stm32-device.o)
                0x000000000800badc                stm32__device__gpio_af_ltdc_10
 .rodata.stm32__device__gpio_af_i2c4_11
                0x000000000800badd        0x1 /home/badr/hackinvent/Ada_Drivers_Library/boards/stm32h743_nucleo/obj/sfp_lib_Debug/libada_drivers_library.a(stm32-device.o)
                0x000000000800badd                stm32__device__gpio_af_i2c4_11
 .rodata.stm32__device__gpio_af_can3_11
                0x000000000800bade        0x1 /home/badr/hackinvent/Ada_Drivers_Library/boards/stm32h743_nucleo/obj/sfp_lib_Debug/libada_drivers_library.a(stm32-device.o)
                0x000000000800bade                stm32__device__gpio_af_can3_11
 .rodata.stm32__device__gpio_af_sdmmc2_11
                0x000000000800badf        0x1 /home/badr/hackinvent/Ada_Drivers_Library/boards/stm32h743_nucleo/obj/sfp_lib_Debug/libada_drivers_library.a(stm32-device.o)
                0x000000000800badf                stm32__device__gpio_af_sdmmc2_11
 .rodata.stm32__device__gpio_af_eth_11
                0x000000000800bae0        0x1 /home/badr/hackinvent/Ada_Drivers_Library/boards/stm32h743_nucleo/obj/sfp_lib_Debug/libada_drivers_library.a(stm32-device.o)
                0x000000000800bae0                stm32__device__gpio_af_eth_11
 .rodata.stm32__device__gpio_af_uart7_12
                0x000000000800bae1        0x1 /home/badr/hackinvent/Ada_Drivers_Library/boards/stm32h743_nucleo/obj/sfp_lib_Debug/libada_drivers_library.a(stm32-device.o)
                0x000000000800bae1                stm32__device__gpio_af_uart7_12
 .rodata.stm32__device__gpio_af_fmc_12
                0x000000000800bae2        0x1 /home/badr/hackinvent/Ada_Drivers_Library/boards/stm32h743_nucleo/obj/sfp_lib_Debug/libada_drivers_library.a(stm32-device.o)
                0x000000000800bae2                stm32__device__gpio_af_fmc_12
 .rodata.stm32__device__gpio_af_sdmmc1_12
                0x000000000800bae3        0x1 /home/badr/hackinvent/Ada_Drivers_Library/boards/stm32h743_nucleo/obj/sfp_lib_Debug/libada_drivers_library.a(stm32-device.o)
                0x000000000800bae3                stm32__device__gpio_af_sdmmc1_12
 .rodata.stm32__device__gpio_af_mdios_12
                0x000000000800bae4        0x1 /home/badr/hackinvent/Ada_Drivers_Library/boards/stm32h743_nucleo/obj/sfp_lib_Debug/libada_drivers_library.a(stm32-device.o)
                0x000000000800bae4                stm32__device__gpio_af_mdios_12
 .rodata.stm32__device__gpio_af_otg2_fs_12
                0x000000000800bae5        0x1 /home/badr/hackinvent/Ada_Drivers_Library/boards/stm32h743_nucleo/obj/sfp_lib_Debug/libada_drivers_library.a(stm32-device.o)
                0x000000000800bae5                stm32__device__gpio_af_otg2_fs_12
 .rodata.stm32__device__gpio_af_dcmi_13
                0x000000000800bae6        0x1 /home/badr/hackinvent/Ada_Drivers_Library/boards/stm32h743_nucleo/obj/sfp_lib_Debug/libada_drivers_library.a(stm32-device.o)
                0x000000000800bae6                stm32__device__gpio_af_dcmi_13
 .rodata.stm32__device__gpio_af_dsi_13
                0x000000000800bae7        0x1 /home/badr/hackinvent/Ada_Drivers_Library/boards/stm32h743_nucleo/obj/sfp_lib_Debug/libada_drivers_library.a(stm32-device.o)
                0x000000000800bae7                stm32__device__gpio_af_dsi_13
 .rodata.stm32__device__gpio_af_ltdc_13
                0x000000000800bae8        0x1 /home/badr/hackinvent/Ada_Drivers_Library/boards/stm32h743_nucleo/obj/sfp_lib_Debug/libada_drivers_library.a(stm32-device.o)
                0x000000000800bae8                stm32__device__gpio_af_ltdc_13
 .rodata.stm32__device__gpio_af_ltdc_14
                0x000000000800bae9        0x1 /home/badr/hackinvent/Ada_Drivers_Library/boards/stm32h743_nucleo/obj/sfp_lib_Debug/libada_drivers_library.a(stm32-device.o)
                0x000000000800bae9                stm32__device__gpio_af_ltdc_14
 .rodata.stm32__device__gpio_af_eventout_15
                0x000000000800baea        0x1 /home/badr/hackinvent/Ada_Drivers_Library/boards/stm32h743_nucleo/obj/sfp_lib_Debug/libada_drivers_library.a(stm32-device.o)
                0x000000000800baea                stm32__device__gpio_af_eventout_15
 *fill*         0x000000000800baeb        0x1 
 .rodata.stm32__exti__external_triggersS
                0x000000000800baec       0x84 /home/badr/hackinvent/Ada_Drivers_Library/boards/stm32h743_nucleo/obj/sfp_lib_Debug/libada_drivers_library.a(stm32-exti.o)
                0x000000000800baec                stm32__exti__external_triggersS
 .rodata.stm32__exti__external_triggersN
                0x000000000800bb70        0xe /home/badr/hackinvent/Ada_Drivers_Library/boards/stm32h743_nucleo/obj/sfp_lib_Debug/libada_drivers_library.a(stm32-exti.o)
                0x000000000800bb70                stm32__exti__external_triggersN
 *fill*         0x000000000800bb7e        0x2 
 .rodata.stm32__exti__external_line_numberS
                0x000000000800bb80      0x10a /home/badr/hackinvent/Ada_Drivers_Library/boards/stm32h743_nucleo/obj/sfp_lib_Debug/libada_drivers_library.a(stm32-exti.o)
                0x000000000800bb80                stm32__exti__external_line_numberS
 *fill*         0x000000000800bc8a        0x2 
 .rodata.stm32__exti__external_line_numberN
                0x000000000800bc8c       0x30 /home/badr/hackinvent/Ada_Drivers_Library/boards/stm32h743_nucleo/obj/sfp_lib_Debug/libada_drivers_library.a(stm32-exti.o)
                0x000000000800bc8c                stm32__exti__external_line_numberN
 .rodata        0x000000000800bcbc      0x15c /home/badr/hackinvent/Ada_Drivers_Library/boards/stm32h743_nucleo/obj/sfp_lib_Debug/libada_drivers_library.a(stm32-gpio.o)
 .rodata.stm32__gpio__gpio_pinS
                0x000000000800be18       0x56 /home/badr/hackinvent/Ada_Drivers_Library/boards/stm32h743_nucleo/obj/sfp_lib_Debug/libada_drivers_library.a(stm32-gpio.o)
                0x000000000800be18                stm32__gpio__gpio_pinS
 *fill*         0x000000000800be6e        0x2 
 .rodata.stm32__gpio__gpio_pinN
                0x000000000800be70       0x11 /home/badr/hackinvent/Ada_Drivers_Library/boards/stm32h743_nucleo/obj/sfp_lib_Debug/libada_drivers_library.a(stm32-gpio.o)
                0x000000000800be70                stm32__gpio__gpio_pinN
 *fill*         0x000000000800be81        0x3 
 .rodata.stm32__gpio__gpio_pinA
                0x000000000800be84       0x20 /home/badr/hackinvent/Ada_Drivers_Library/boards/stm32h743_nucleo/obj/sfp_lib_Debug/libada_drivers_library.a(stm32-gpio.o)
                0x000000000800be84                stm32__gpio__gpio_pinA
 .rodata.stm32__gpio__all_pins
                0x000000000800bea4       0x20 /home/badr/hackinvent/Ada_Drivers_Library/boards/stm32h743_nucleo/obj/sfp_lib_Debug/libada_drivers_library.a(stm32-gpio.o)
                0x000000000800bea4                stm32__gpio__all_pins
 .rodata.stm32__gpio__pin_output_speedsS
                0x000000000800bec4       0x2c /home/badr/hackinvent/Ada_Drivers_Library/boards/stm32h743_nucleo/obj/sfp_lib_Debug/libada_drivers_library.a(stm32-gpio.o)
                0x000000000800bec4                stm32__gpio__pin_output_speedsS
 .rodata.stm32__gpio__pin_output_speedsN
                0x000000000800bef0        0x8 /home/badr/hackinvent/Ada_Drivers_Library/boards/stm32h743_nucleo/obj/sfp_lib_Debug/libada_drivers_library.a(stm32-gpio.o)
                0x000000000800bef0                stm32__gpio__pin_output_speedsN
 .rodata.stm32__gpio__speed_low
                0x000000000800bef8        0x1 /home/badr/hackinvent/Ada_Drivers_Library/boards/stm32h743_nucleo/obj/sfp_lib_Debug/libada_drivers_library.a(stm32-gpio.o)
                0x000000000800bef8                stm32__gpio__speed_low
 .rodata.stm32__gpio__speed_medium
                0x000000000800bef9        0x1 /home/badr/hackinvent/Ada_Drivers_Library/boards/stm32h743_nucleo/obj/sfp_lib_Debug/libada_drivers_library.a(stm32-gpio.o)
                0x000000000800bef9                stm32__gpio__speed_medium
 .rodata.stm32__gpio__speed_high
                0x000000000800befa        0x1 /home/badr/hackinvent/Ada_Drivers_Library/boards/stm32h743_nucleo/obj/sfp_lib_Debug/libada_drivers_library.a(stm32-gpio.o)
                0x000000000800befa                stm32__gpio__speed_high
 .rodata.stm32__gpio__speed_very_high
                0x000000000800befb        0x1 /home/badr/hackinvent/Ada_Drivers_Library/boards/stm32h743_nucleo/obj/sfp_lib_Debug/libada_drivers_library.a(stm32-gpio.o)
                0x000000000800befb                stm32__gpio__speed_very_high
 .rodata.stm32__gpio__pin_io_modesS
                0x000000000800befc       0x21 /home/badr/hackinvent/Ada_Drivers_Library/boards/stm32h743_nucleo/obj/sfp_lib_Debug/libada_drivers_library.a(stm32-gpio.o)
                0x000000000800befc                stm32__gpio__pin_io_modesS
 *fill*         0x000000000800bf1d        0x3 
 .rodata.stm32__gpio__pin_io_modesN
                0x000000000800bf20        0x8 /home/badr/hackinvent/Ada_Drivers_Library/boards/stm32h743_nucleo/obj/sfp_lib_Debug/libada_drivers_library.a(stm32-gpio.o)
                0x000000000800bf20                stm32__gpio__pin_io_modesN
 .rodata.stm32__gpio__lcck
                0x000000000800bf28        0x4 /home/badr/hackinvent/Ada_Drivers_Library/boards/stm32h743_nucleo/obj/sfp_lib_Debug/libada_drivers_library.a(stm32-gpio.o)
                0x000000000800bf28                stm32__gpio__lcck
 .rodata.stm32__gpio__pin_output_typesS
                0x000000000800bf2c       0x13 /home/badr/hackinvent/Ada_Drivers_Library/boards/stm32h743_nucleo/obj/sfp_lib_Debug/libada_drivers_library.a(stm32-gpio.o)
                0x000000000800bf2c                stm32__gpio__pin_output_typesS
 *fill*         0x000000000800bf3f        0x1 
 .rodata.stm32__gpio__pin_output_typesN
                0x000000000800bf40        0x4 /home/badr/hackinvent/Ada_Drivers_Library/boards/stm32h743_nucleo/obj/sfp_lib_Debug/libada_drivers_library.a(stm32-gpio.o)
                0x000000000800bf40                stm32__gpio__pin_output_typesN
 .rodata.stm32__gpio__internal_pin_resistorsS
                0x000000000800bf44       0x18 /home/badr/hackinvent/Ada_Drivers_Library/boards/stm32h743_nucleo/obj/sfp_lib_Debug/libada_drivers_library.a(stm32-gpio.o)
                0x000000000800bf44                stm32__gpio__internal_pin_resistorsS
 .rodata.stm32__gpio__internal_pin_resistorsN
                0x000000000800bf5c        0x4 /home/badr/hackinvent/Ada_Drivers_Library/boards/stm32h743_nucleo/obj/sfp_lib_Debug/libada_drivers_library.a(stm32-gpio.o)
                0x000000000800bf5c                stm32__gpio__internal_pin_resistorsN
 .rodata.stm32__gpio__gpio_pointP
                0x000000000800bf60        0x4 /home/badr/hackinvent/Ada_Drivers_Library/boards/stm32h743_nucleo/obj/sfp_lib_Debug/libada_drivers_library.a(stm32-gpio.o)
                0x000000000800bf60                stm32__gpio__gpio_pointP
 .rodata.stm32__gpio__gpio_pointY
                0x000000000800bf64        0x4 /home/badr/hackinvent/Ada_Drivers_Library/boards/stm32h743_nucleo/obj/sfp_lib_Debug/libada_drivers_library.a(stm32-gpio.o)
                0x000000000800bf64                stm32__gpio__gpio_pointY
 .rodata.stm32__gpio__gpio_pointE86s
                0x000000000800bf68       0x16 /home/badr/hackinvent/Ada_Drivers_Library/boards/stm32h743_nucleo/obj/sfp_lib_Debug/libada_drivers_library.a(stm32-gpio.o)
                0x000000000800bf68                stm32__gpio__gpio_pointE86s
 *fill*         0x000000000800bf7e        0x2 
 .rodata.stm32__gpio__gpio_pointB90s
                0x000000000800bf80       0x20 /home/badr/hackinvent/Ada_Drivers_Library/boards/stm32h743_nucleo/obj/sfp_lib_Debug/libada_drivers_library.a(stm32-gpio.o)
                0x000000000800bf80                stm32__gpio__gpio_pointB90s
 .rodata.stm32__gpio__gpio_pointR88s___UNC
                0x000000000800bfa0       0x24 /home/badr/hackinvent/Ada_Drivers_Library/boards/stm32h743_nucleo/obj/sfp_lib_Debug/libada_drivers_library.a(stm32-gpio.o)
                0x000000000800bfa0                stm32__gpio__gpio_pointR88s___UNC
 .rodata.stm32__gpio__gpio_pointR88s
                0x000000000800bfc4        0x4 /home/badr/hackinvent/Ada_Drivers_Library/boards/stm32h743_nucleo/obj/sfp_lib_Debug/libada_drivers_library.a(stm32-gpio.o)
                0x000000000800bfc4                stm32__gpio__gpio_pointR88s
 .rodata.stm32__gpio__gpio_pointT
                0x000000000800bfc8       0x50 /home/badr/hackinvent/Ada_Drivers_Library/boards/stm32h743_nucleo/obj/sfp_lib_Debug/libada_drivers_library.a(stm32-gpio.o)
                0x000000000800bfc8                stm32__gpio__gpio_pointT
 .rodata.stm32__rcc__unknown_deviceE
                0x000000000800c018       0x19 /home/badr/hackinvent/Ada_Drivers_Library/boards/stm32h743_nucleo/obj/sfp_lib_Debug/libada_drivers_library.a(stm32-rcc.o)
                0x000000000800c018                stm32__rcc__unknown_deviceE
 *fill*         0x000000000800c031        0x3 
 .rodata.stm32__rcc__R2s
                0x000000000800c034        0x4 /home/badr/hackinvent/Ada_Drivers_Library/boards/stm32h743_nucleo/obj/sfp_lib_Debug/libada_drivers_library.a(stm32-rcc.o)
                0x000000000800c034                stm32__rcc__R2s
 .rodata        0x000000000800c038       0xe6 /home/badr/hackinvent/Ada_Drivers_Library/boards/stm32h743_nucleo/obj/sfp_lib_Debug/libada_drivers_library.a(stm32-spi.o)
 *fill*         0x000000000800c11e        0x2 
 .rodata.stm32__spi__spi_portP
                0x000000000800c120        0x4 /home/badr/hackinvent/Ada_Drivers_Library/boards/stm32h743_nucleo/obj/sfp_lib_Debug/libada_drivers_library.a(stm32-spi.o)
                0x000000000800c120                stm32__spi__spi_portP
 .rodata.stm32__spi__spi_portY
                0x000000000800c124        0x4 /home/badr/hackinvent/Ada_Drivers_Library/boards/stm32h743_nucleo/obj/sfp_lib_Debug/libada_drivers_library.a(stm32-spi.o)
                0x000000000800c124                stm32__spi__spi_portY
 .rodata.stm32__spi__spi_data_directionS
                0x000000000800c128       0x32 /home/badr/hackinvent/Ada_Drivers_Library/boards/stm32h743_nucleo/obj/sfp_lib_Debug/libada_drivers_library.a(stm32-spi.o)
                0x000000000800c128                stm32__spi__spi_data_directionS
 *fill*         0x000000000800c15a        0x2 
 .rodata.stm32__spi__spi_data_directionN
                0x000000000800c15c        0x8 /home/badr/hackinvent/Ada_Drivers_Library/boards/stm32h743_nucleo/obj/sfp_lib_Debug/libada_drivers_library.a(stm32-spi.o)
                0x000000000800c15c                stm32__spi__spi_data_directionN
 .rodata.stm32__spi__spi_modeS
                0x000000000800c164        0xb /home/badr/hackinvent/Ada_Drivers_Library/boards/stm32h743_nucleo/obj/sfp_lib_Debug/libada_drivers_library.a(stm32-spi.o)
                0x000000000800c164                stm32__spi__spi_modeS
 *fill*         0x000000000800c16f        0x1 
 .rodata.stm32__spi__spi_modeN
                0x000000000800c170        0x4 /home/badr/hackinvent/Ada_Drivers_Library/boards/stm32h743_nucleo/obj/sfp_lib_Debug/libada_drivers_library.a(stm32-spi.o)
                0x000000000800c170                stm32__spi__spi_modeN
 .rodata.stm32__spi__spi_clock_polarityS
                0x000000000800c174        0x8 /home/badr/hackinvent/Ada_Drivers_Library/boards/stm32h743_nucleo/obj/sfp_lib_Debug/libada_drivers_library.a(stm32-spi.o)
                0x000000000800c174                stm32__spi__spi_clock_polarityS
 .rodata.stm32__spi__spi_clock_polarityN
                0x000000000800c17c        0x4 /home/badr/hackinvent/Ada_Drivers_Library/boards/stm32h743_nucleo/obj/sfp_lib_Debug/libada_drivers_library.a(stm32-spi.o)
                0x000000000800c17c                stm32__spi__spi_clock_polarityN
 .rodata.stm32__spi__spi_clock_phaseS
                0x000000000800c180        0xc /home/badr/hackinvent/Ada_Drivers_Library/boards/stm32h743_nucleo/obj/sfp_lib_Debug/libada_drivers_library.a(stm32-spi.o)
                0x000000000800c180                stm32__spi__spi_clock_phaseS
 .rodata.stm32__spi__spi_clock_phaseN
                0x000000000800c18c        0x4 /home/badr/hackinvent/Ada_Drivers_Library/boards/stm32h743_nucleo/obj/sfp_lib_Debug/libada_drivers_library.a(stm32-spi.o)
                0x000000000800c18c                stm32__spi__spi_clock_phaseN
 .rodata.stm32__spi__spi_slave_managementS
                0x000000000800c190       0x20 /home/badr/hackinvent/Ada_Drivers_Library/boards/stm32h743_nucleo/obj/sfp_lib_Debug/libada_drivers_library.a(stm32-spi.o)
                0x000000000800c190                stm32__spi__spi_slave_managementS
 .rodata.stm32__spi__spi_slave_managementN
                0x000000000800c1b0        0x4 /home/badr/hackinvent/Ada_Drivers_Library/boards/stm32h743_nucleo/obj/sfp_lib_Debug/libada_drivers_library.a(stm32-spi.o)
                0x000000000800c1b0                stm32__spi__spi_slave_managementN
 .rodata.stm32__spi__spi_baud_rate_prescalerS
                0x000000000800c1b4       0x2f /home/badr/hackinvent/Ada_Drivers_Library/boards/stm32h743_nucleo/obj/sfp_lib_Debug/libada_drivers_library.a(stm32-spi.o)
                0x000000000800c1b4                stm32__spi__spi_baud_rate_prescalerS
 *fill*         0x000000000800c1e3        0x1 
 .rodata.stm32__spi__spi_baud_rate_prescalerN
                0x000000000800c1e4        0x9 /home/badr/hackinvent/Ada_Drivers_Library/boards/stm32h743_nucleo/obj/sfp_lib_Debug/libada_drivers_library.a(stm32-spi.o)
                0x000000000800c1e4                stm32__spi__spi_baud_rate_prescalerN
 *fill*         0x000000000800c1ed        0x3 
 .rodata.stm32__spi__spi_first_bitS
                0x000000000800c1f0        0x8 /home/badr/hackinvent/Ada_Drivers_Library/boards/stm32h743_nucleo/obj/sfp_lib_Debug/libada_drivers_library.a(stm32-spi.o)
                0x000000000800c1f0                stm32__spi__spi_first_bitS
 .rodata.stm32__spi__spi_first_bitN
                0x000000000800c1f8        0x4 /home/badr/hackinvent/Ada_Drivers_Library/boards/stm32h743_nucleo/obj/sfp_lib_Debug/libada_drivers_library.a(stm32-spi.o)
                0x000000000800c1f8                stm32__spi__spi_first_bitN
 .rodata.stm32__spi__spi_portE51s
                0x000000000800c1fc       0x13 /home/badr/hackinvent/Ada_Drivers_Library/boards/stm32h743_nucleo/obj/sfp_lib_Debug/libada_drivers_library.a(stm32-spi.o)
                0x000000000800c1fc                stm32__spi__spi_portE51s
 *fill*         0x000000000800c20f        0x1 
 .rodata.stm32__spi__spi_portB55s
                0x000000000800c210       0x20 /home/badr/hackinvent/Ada_Drivers_Library/boards/stm32h743_nucleo/obj/sfp_lib_Debug/libada_drivers_library.a(stm32-spi.o)
                0x000000000800c210                stm32__spi__spi_portB55s
 .rodata.stm32__spi__spi_portR53s___UNC
                0x000000000800c230        0xc /home/badr/hackinvent/Ada_Drivers_Library/boards/stm32h743_nucleo/obj/sfp_lib_Debug/libada_drivers_library.a(stm32-spi.o)
                0x000000000800c230                stm32__spi__spi_portR53s___UNC
 .rodata.stm32__spi__spi_portR53s
                0x000000000800c23c        0x4 /home/badr/hackinvent/Ada_Drivers_Library/boards/stm32h743_nucleo/obj/sfp_lib_Debug/libada_drivers_library.a(stm32-spi.o)
                0x000000000800c23c                stm32__spi__spi_portR53s
 .rodata.stm32__spi__spi_portT
                0x000000000800c240       0xc4 /home/badr/hackinvent/Ada_Drivers_Library/boards/stm32h743_nucleo/obj/sfp_lib_Debug/libada_drivers_library.a(stm32-spi.o)
                0x000000000800c240                stm32__spi__spi_portT
 .rodata        0x000000000800c304       0x11 /home/badr/hackinvent/Ada_Drivers_Library/boards/stm32h743_nucleo/obj/sfp_lib_Debug/libada_drivers_library.a(stm32-syscfg.o)
 *fill*         0x000000000800c315        0x3 
 .rodata.hal__gpio__capabilityS
                0x000000000800c318       0x2f /home/badr/hackinvent/Ada_Drivers_Library/boards/stm32h743_nucleo/obj/sfp_lib_Debug/libada_drivers_library.a(hal-gpio.o)
                0x000000000800c318                hal__gpio__capabilityS
 *fill*         0x000000000800c347        0x1 
 .rodata.hal__gpio__capabilityN
                0x000000000800c348        0x8 /home/badr/hackinvent/Ada_Drivers_Library/boards/stm32h743_nucleo/obj/sfp_lib_Debug/libada_drivers_library.a(hal-gpio.o)
                0x000000000800c348                hal__gpio__capabilityN
 .rodata.hal__gpio__gpio_pointP
                0x000000000800c350        0x4 /home/badr/hackinvent/Ada_Drivers_Library/boards/stm32h743_nucleo/obj/sfp_lib_Debug/libada_drivers_library.a(hal-gpio.o)
                0x000000000800c350                hal__gpio__gpio_pointP
 .rodata.hal__gpio__gpio_pointE12s
                0x000000000800c354       0x14 /home/badr/hackinvent/Ada_Drivers_Library/boards/stm32h743_nucleo/obj/sfp_lib_Debug/libada_drivers_library.a(hal-gpio.o)
                0x000000000800c354                hal__gpio__gpio_pointE12s
 .rodata.hal__gpio__gpio_pointB16s
                0x000000000800c368       0x1c /home/badr/hackinvent/Ada_Drivers_Library/boards/stm32h743_nucleo/obj/sfp_lib_Debug/libada_drivers_library.a(hal-gpio.o)
                0x000000000800c368                hal__gpio__gpio_pointB16s
 .rodata.hal__gpio__gpio_pointT
                0x000000000800c384        0x8 /home/badr/hackinvent/Ada_Drivers_Library/boards/stm32h743_nucleo/obj/sfp_lib_Debug/libada_drivers_library.a(hal-gpio.o)
                0x000000000800c384                hal__gpio__gpio_pointT
 .rodata.hal__spi__spi_statusS
                0x000000000800c38c       0x1a /home/badr/hackinvent/Ada_Drivers_Library/boards/stm32h743_nucleo/obj/sfp_lib_Debug/libada_drivers_library.a(hal-spi.o)
                0x000000000800c38c                hal__spi__spi_statusS
 *fill*         0x000000000800c3a6        0x2 
 .rodata.hal__spi__spi_statusN
                0x000000000800c3a8        0x8 /home/badr/hackinvent/Ada_Drivers_Library/boards/stm32h743_nucleo/obj/sfp_lib_Debug/libada_drivers_library.a(hal-spi.o)
                0x000000000800c3a8                hal__spi__spi_statusN
 .rodata.hal__spi__spi_data_sizeS
                0x000000000800c3b0       0x26 /home/badr/hackinvent/Ada_Drivers_Library/boards/stm32h743_nucleo/obj/sfp_lib_Debug/libada_drivers_library.a(hal-spi.o)
                0x000000000800c3b0                hal__spi__spi_data_sizeS
 *fill*         0x000000000800c3d6        0x2 
 .rodata.hal__spi__spi_data_sizeN
                0x000000000800c3d8        0x4 /home/badr/hackinvent/Ada_Drivers_Library/boards/stm32h743_nucleo/obj/sfp_lib_Debug/libada_drivers_library.a(hal-spi.o)
                0x000000000800c3d8                hal__spi__spi_data_sizeN
 .rodata.hal__spi__spi_portP
                0x000000000800c3dc        0x4 /home/badr/hackinvent/Ada_Drivers_Library/boards/stm32h743_nucleo/obj/sfp_lib_Debug/libada_drivers_library.a(hal-spi.o)
                0x000000000800c3dc                hal__spi__spi_portP
 .rodata.hal__spi__spi_portE22s
                0x000000000800c3e0       0x11 /home/badr/hackinvent/Ada_Drivers_Library/boards/stm32h743_nucleo/obj/sfp_lib_Debug/libada_drivers_library.a(hal-spi.o)
                0x000000000800c3e0                hal__spi__spi_portE22s
 *fill*         0x000000000800c3f1        0x3 
 .rodata.hal__spi__spi_portB26s
                0x000000000800c3f4       0x1c /home/badr/hackinvent/Ada_Drivers_Library/boards/stm32h743_nucleo/obj/sfp_lib_Debug/libada_drivers_library.a(hal-spi.o)
                0x000000000800c3f4                hal__spi__spi_portB26s
 .rodata.hal__spi__spi_portT
                0x000000000800c410        0x8 /home/badr/hackinvent/Ada_Drivers_Library/boards/stm32h743_nucleo/obj/sfp_lib_Debug/libada_drivers_library.a(hal-spi.o)
                0x000000000800c410                hal__spi__spi_portT
 .rodata        0x000000000800c418        0xd /home/badr/GNAT/2018-arm-elf/arm-eabi/lib/gnat/ravenscar-sfp-stm32h743nucleo/adalib/libgnarl.a(a-reatim.o)
 *fill*         0x000000000800c425        0x3 
 .rodata.ada__real_time__time_first
                0x000000000800c428        0x8 /home/badr/GNAT/2018-arm-elf/arm-eabi/lib/gnat/ravenscar-sfp-stm32h743nucleo/adalib/libgnarl.a(a-reatim.o)
                0x000000000800c428                ada__real_time__time_first
 .rodata.ada__real_time__time_last
                0x000000000800c430        0x8 /home/badr/GNAT/2018-arm-elf/arm-eabi/lib/gnat/ravenscar-sfp-stm32h743nucleo/adalib/libgnarl.a(a-reatim.o)
                0x000000000800c430                ada__real_time__time_last
 .rodata.ada__real_time__time_span_first
                0x000000000800c438        0x8 /home/badr/GNAT/2018-arm-elf/arm-eabi/lib/gnat/ravenscar-sfp-stm32h743nucleo/adalib/libgnarl.a(a-reatim.o)
                0x000000000800c438                ada__real_time__time_span_first
 .rodata.ada__real_time__time_span_last
                0x000000000800c440        0x8 /home/badr/GNAT/2018-arm-elf/arm-eabi/lib/gnat/ravenscar-sfp-stm32h743nucleo/adalib/libgnarl.a(a-reatim.o)
                0x000000000800c440                ada__real_time__time_span_last
 .rodata.ada__real_time__time_span_zero
                0x000000000800c448        0x8 /home/badr/GNAT/2018-arm-elf/arm-eabi/lib/gnat/ravenscar-sfp-stm32h743nucleo/adalib/libgnarl.a(a-reatim.o)
                0x000000000800c448                ada__real_time__time_span_zero
 .rodata.ada__real_time__time_span_unit
                0x000000000800c450        0x8 /home/badr/GNAT/2018-arm-elf/arm-eabi/lib/gnat/ravenscar-sfp-stm32h743nucleo/adalib/libgnarl.a(a-reatim.o)
                0x000000000800c450                ada__real_time__time_span_unit
 .rodata.ada__real_time__tick
                0x000000000800c458        0x8 /home/badr/GNAT/2018-arm-elf/arm-eabi/lib/gnat/ravenscar-sfp-stm32h743nucleo/adalib/libgnarl.a(a-reatim.o)
                0x000000000800c458                ada__real_time__tick
 .rodata.ada__real_time__duration_units
                0x000000000800c460        0x4 /home/badr/GNAT/2018-arm-elf/arm-eabi/lib/gnat/ravenscar-sfp-stm32h743nucleo/adalib/libgnarl.a(a-reatim.o)
                0x000000000800c460                ada__real_time__duration_units
 .rodata        0x000000000800c464        0xd /home/badr/GNAT/2018-arm-elf/arm-eabi/lib/gnat/ravenscar-sfp-stm32h743nucleo/adalib/libgnarl.a(a-retide.o)
 *fill*         0x000000000800c471        0x3 
 .rodata        0x000000000800c474        0xd /home/badr/GNAT/2018-arm-elf/arm-eabi/lib/gnat/ravenscar-sfp-stm32h743nucleo/adalib/libgnarl.a(s-bbtiev.o)
 *fill*         0x000000000800c481        0x3 
 .rodata.system__bb__timing_events__timing_eventP
                0x000000000800c484        0x4 /home/badr/GNAT/2018-arm-elf/arm-eabi/lib/gnat/ravenscar-sfp-stm32h743nucleo/adalib/libgnarl.a(s-bbtiev.o)
                0x000000000800c484                system__bb__timing_events__timing_eventP
 .rodata.system__bb__timing_events__timing_eventY
                0x000000000800c488        0x4 /home/badr/GNAT/2018-arm-elf/arm-eabi/lib/gnat/ravenscar-sfp-stm32h743nucleo/adalib/libgnarl.a(s-bbtiev.o)
                0x000000000800c488                system__bb__timing_events__timing_eventY
 .rodata.system__bb__timing_events__timing_eventE8s
                0x000000000800c48c       0x25 /home/badr/GNAT/2018-arm-elf/arm-eabi/lib/gnat/ravenscar-sfp-stm32h743nucleo/adalib/libgnarl.a(s-bbtiev.o)
                0x000000000800c48c                system__bb__timing_events__timing_eventE8s
 *fill*         0x000000000800c4b1        0x3 
 .rodata.system__bb__timing_events__timing_eventB12s
                0x000000000800c4b4       0x1c /home/badr/GNAT/2018-arm-elf/arm-eabi/lib/gnat/ravenscar-sfp-stm32h743nucleo/adalib/libgnarl.a(s-bbtiev.o)
                0x000000000800c4b4                system__bb__timing_events__timing_eventB12s
 .rodata.system__bb__timing_events__timing_eventR10s___UNC
                0x000000000800c4d0        0xc /home/badr/GNAT/2018-arm-elf/arm-eabi/lib/gnat/ravenscar-sfp-stm32h743nucleo/adalib/libgnarl.a(s-bbtiev.o)
                0x000000000800c4d0                system__bb__timing_events__timing_eventR10s___UNC
 .rodata.system__bb__timing_events__timing_eventR10s
                0x000000000800c4dc        0x4 /home/badr/GNAT/2018-arm-elf/arm-eabi/lib/gnat/ravenscar-sfp-stm32h743nucleo/adalib/libgnarl.a(s-bbtiev.o)
                0x000000000800c4dc                system__bb__timing_events__timing_eventR10s
 .rodata.system__bb__timing_events__timing_eventT
                0x000000000800c4e0       0x1c /home/badr/GNAT/2018-arm-elf/arm-eabi/lib/gnat/ravenscar-sfp-stm32h743nucleo/adalib/libgnarl.a(s-bbtiev.o)
                0x000000000800c4e0                system__bb__timing_events__timing_eventT
 .rodata        0x000000000800c4fc        0xd /home/badr/GNAT/2018-arm-elf/arm-eabi/lib/gnat/ravenscar-sfp-stm32h743nucleo/adalib/libgnarl.a(s-bbtime.o)
 *fill*         0x000000000800c509        0x3 
 .rodata.system__bb__time__initial_composite_execution_time
                0x000000000800c50c        0x8 /home/badr/GNAT/2018-arm-elf/arm-eabi/lib/gnat/ravenscar-sfp-stm32h743nucleo/adalib/libgnarl.a(s-bbtime.o)
                0x000000000800c50c                system__bb__time__initial_composite_execution_time
 .rodata.system__bb__time__update_in_progress
                0x000000000800c514        0x4 /home/badr/GNAT/2018-arm-elf/arm-eabi/lib/gnat/ravenscar-sfp-stm32h743nucleo/adalib/libgnarl.a(s-bbtime.o)
                0x000000000800c514                system__bb__time__update_in_progress
 .rodata.system__bb__time__periods_in_epoch
                0x000000000800c518        0x4 /home/badr/GNAT/2018-arm-elf/arm-eabi/lib/gnat/ravenscar-sfp-stm32h743nucleo/adalib/libgnarl.a(s-bbtime.o)
                0x000000000800c518                system__bb__time__periods_in_epoch
 .rodata        0x000000000800c51c        0xd /home/badr/GNAT/2018-arm-elf/arm-eabi/lib/gnat/ravenscar-sfp-stm32h743nucleo/adalib/libgnarl.a(s-taprop.o)
 *fill*         0x000000000800c529        0x3 
 .rodata.system__task_primitives__operations__idle_stack_size
                0x000000000800c52c        0x4 /home/badr/GNAT/2018-arm-elf/arm-eabi/lib/gnat/ravenscar-sfp-stm32h743nucleo/adalib/libgnarl.a(s-taprop.o)
                0x000000000800c52c                system__task_primitives__operations__idle_stack_size
 .rodata        0x000000000800c530        0xd /home/badr/GNAT/2018-arm-elf/arm-eabi/lib/gnat/ravenscar-sfp-stm32h743nucleo/adalib/libgnarl.a(s-tasdeb.o)
 *fill*         0x000000000800c53d        0x3 
 .rodata        0x000000000800c540       0x64 /home/badr/GNAT/2018-arm-elf/arm-eabi/lib/gnat/ravenscar-sfp-stm32h743nucleo/adalib/libgnarl.a(s-taskin.o)
 .rodata.system__tasking__null_task
                0x000000000800c5a4        0x4 /home/badr/GNAT/2018-arm-elf/arm-eabi/lib/gnat/ravenscar-sfp-stm32h743nucleo/adalib/libgnarl.a(s-taskin.o)
                0x000000000800c5a4                system__tasking__null_task
 .rodata.system__tasking__idle_priority
                0x000000000800c5a8        0x4 /home/badr/GNAT/2018-arm-elf/arm-eabi/lib/gnat/ravenscar-sfp-stm32h743nucleo/adalib/libgnarl.a(s-taskin.o)
                0x000000000800c5a8                system__tasking__idle_priority
 .rodata.system__tasking__library_task_level
                0x000000000800c5ac        0x4 /home/badr/GNAT/2018-arm-elf/arm-eabi/lib/gnat/ravenscar-sfp-stm32h743nucleo/adalib/libgnarl.a(s-taskin.o)
                0x000000000800c5ac                system__tasking__library_task_level
 .rodata.system__tasking__task_statesS
                0x000000000800c5b0      0x130 /home/badr/GNAT/2018-arm-elf/arm-eabi/lib/gnat/ravenscar-sfp-stm32h743nucleo/adalib/libgnarl.a(s-taskin.o)
                0x000000000800c5b0                system__tasking__task_statesS
 .rodata.system__tasking__task_statesN
                0x000000000800c6e0       0x22 /home/badr/GNAT/2018-arm-elf/arm-eabi/lib/gnat/ravenscar-sfp-stm32h743nucleo/adalib/libgnarl.a(s-taskin.o)
                0x000000000800c6e0                system__tasking__task_statesN
 *fill*         0x000000000800c702        0x2 
 .rodata        0x000000000800c704        0xd /home/badr/GNAT/2018-arm-elf/arm-eabi/lib/gnat/ravenscar-sfp-stm32h743nucleo/adalib/libgnarl.a(s-bbbosu.o)
 .rodata.system__bb__board_support__sys_tick_vector
                0x000000000800c711        0x1 /home/badr/GNAT/2018-arm-elf/arm-eabi/lib/gnat/ravenscar-sfp-stm32h743nucleo/adalib/libgnarl.a(s-bbbosu.o)
                0x000000000800c711                system__bb__board_support__sys_tick_vector
 .rodata.system__bb__board_support__interrupt_request_vector
                0x000000000800c712        0x1 /home/badr/GNAT/2018-arm-elf/arm-eabi/lib/gnat/ravenscar-sfp-stm32h743nucleo/adalib/libgnarl.a(s-bbbosu.o)
                0x000000000800c712                system__bb__board_support__interrupt_request_vector
 *fill*         0x000000000800c713        0x1 
 .rodata.system__bb__board_support__alarm_interrupt_id
                0x000000000800c714        0x4 /home/badr/GNAT/2018-arm-elf/arm-eabi/lib/gnat/ravenscar-sfp-stm32h743nucleo/adalib/libgnarl.a(s-bbbosu.o)
                0x000000000800c714                system__bb__board_support__alarm_interrupt_id
 .rodata.system__bb__board_support__tick_period
                0x000000000800c718        0x4 /home/badr/GNAT/2018-arm-elf/arm-eabi/lib/gnat/ravenscar-sfp-stm32h743nucleo/adalib/libgnarl.a(s-bbbosu.o)
                0x000000000800c718                system__bb__board_support__tick_period
 .rodata.system__bb__board_support__nvic_iser0
                0x000000000800c71c        0x4 /home/badr/GNAT/2018-arm-elf/arm-eabi/lib/gnat/ravenscar-sfp-stm32h743nucleo/adalib/libgnarl.a(s-bbbosu.o)
                0x000000000800c71c                system__bb__board_support__nvic_iser0
 .rodata.system__bb__board_support__ip
                0x000000000800c720        0x4 /home/badr/GNAT/2018-arm-elf/arm-eabi/lib/gnat/ravenscar-sfp-stm32h743nucleo/adalib/libgnarl.a(s-bbbosu.o)
                0x000000000800c720                system__bb__board_support(int,  *)
 .rodata.system__bb__board_support__icsr
                0x000000000800c724        0x4 /home/badr/GNAT/2018-arm-elf/arm-eabi/lib/gnat/ravenscar-sfp-stm32h743nucleo/adalib/libgnarl.a(s-bbbosu.o)
                0x000000000800c724                system__bb__board_support(int, char, short, long double)
 .rodata.system__bb__board_support__syst
                0x000000000800c728        0x4 /home/badr/GNAT/2018-arm-elf/arm-eabi/lib/gnat/ravenscar-sfp-stm32h743nucleo/adalib/libgnarl.a(s-bbbosu.o)
                0x000000000800c728                system__bb__board_support__syst
 .rodata        0x000000000800c72c      0x1bc /home/badr/GNAT/2018-arm-elf/arm-eabi/lib/gnat/ravenscar-sfp-stm32h743nucleo/adalib/libgnarl.a(s-bbcppr.o)
 .rodata.system__bb__cpu_primitives__nl
                0x000000000800c8e8        0x2 /home/badr/GNAT/2018-arm-elf/arm-eabi/lib/gnat/ravenscar-sfp-stm32h743nucleo/adalib/libgnarl.a(s-bbcppr.o)
                0x000000000800c8e8                system__bb__cpu_primitives__nl
 .rodata.system__bb__cpu_primitives__has_vtor
                0x000000000800c8ea        0x1 /home/badr/GNAT/2018-arm-elf/arm-eabi/lib/gnat/ravenscar-sfp-stm32h743nucleo/adalib/libgnarl.a(s-bbcppr.o)
                0x000000000800c8ea                system__bb__cpu_primitives__has_vtor
 .rodata.system__bb__cpu_primitives__has_os_extensions
                0x000000000800c8eb        0x1 /home/badr/GNAT/2018-arm-elf/arm-eabi/lib/gnat/ravenscar-sfp-stm32h743nucleo/adalib/libgnarl.a(s-bbcppr.o)
                0x000000000800c8eb                system__bb__cpu_primitives__has_os_extensions
 .rodata.system__bb__cpu_primitives__is_armv6m
                0x000000000800c8ec        0x1 /home/badr/GNAT/2018-arm-elf/arm-eabi/lib/gnat/ravenscar-sfp-stm32h743nucleo/adalib/libgnarl.a(s-bbcppr.o)
                0x000000000800c8ec                system__bb__cpu_primitives__is_armv6m
 .rodata.system__bb__cpu_primitives__reset_vector
                0x000000000800c8ed        0x1 /home/badr/GNAT/2018-arm-elf/arm-eabi/lib/gnat/ravenscar-sfp-stm32h743nucleo/adalib/libgnarl.a(s-bbcppr.o)
                0x000000000800c8ed                system__bb__cpu_primitives__reset_vector
 .rodata.system__bb__cpu_primitives__nmi_vector
                0x000000000800c8ee        0x1 /home/badr/GNAT/2018-arm-elf/arm-eabi/lib/gnat/ravenscar-sfp-stm32h743nucleo/adalib/libgnarl.a(s-bbcppr.o)
                0x000000000800c8ee                system__bb__cpu_primitives__nmi_vector
 .rodata.system__bb__cpu_primitives__hard_fault_vector
                0x000000000800c8ef        0x1 /home/badr/GNAT/2018-arm-elf/arm-eabi/lib/gnat/ravenscar-sfp-stm32h743nucleo/adalib/libgnarl.a(s-bbcppr.o)
                0x000000000800c8ef                system__bb__cpu_primitives__hard_fault_vector
 .rodata.system__bb__cpu_primitives__bus_fault_vector
                0x000000000800c8f0        0x1 /home/badr/GNAT/2018-arm-elf/arm-eabi/lib/gnat/ravenscar-sfp-stm32h743nucleo/adalib/libgnarl.a(s-bbcppr.o)
                0x000000000800c8f0                system__bb__cpu_primitives__bus_fault_vector
 .rodata.system__bb__cpu_primitives__usage_fault_vector
                0x000000000800c8f1        0x1 /home/badr/GNAT/2018-arm-elf/arm-eabi/lib/gnat/ravenscar-sfp-stm32h743nucleo/adalib/libgnarl.a(s-bbcppr.o)
                0x000000000800c8f1                system__bb__cpu_primitives__usage_fault_vector
 .rodata.system__bb__cpu_primitives__sv_call_vector
                0x000000000800c8f2        0x1 /home/badr/GNAT/2018-arm-elf/arm-eabi/lib/gnat/ravenscar-sfp-stm32h743nucleo/adalib/libgnarl.a(s-bbcppr.o)
                0x000000000800c8f2                system__bb__cpu_primitives__sv_call_vector
 .rodata.system__bb__cpu_primitives__pend_sv_vector
                0x000000000800c8f3        0x1 /home/badr/GNAT/2018-arm-elf/arm-eabi/lib/gnat/ravenscar-sfp-stm32h743nucleo/adalib/libgnarl.a(s-bbcppr.o)
                0x000000000800c8f3                system__bb__cpu_primitives__pend_sv_vector
 .rodata.system__bb__cpu_primitives__sys_tick_vector
                0x000000000800c8f4        0x1 /home/badr/GNAT/2018-arm-elf/arm-eabi/lib/gnat/ravenscar-sfp-stm32h743nucleo/adalib/libgnarl.a(s-bbcppr.o)
                0x000000000800c8f4                system__bb__cpu_primitives__sys_tick_vector
 .rodata.system__bb__cpu_primitives__interrupt_request_vector
                0x000000000800c8f5        0x1 /home/badr/GNAT/2018-arm-elf/arm-eabi/lib/gnat/ravenscar-sfp-stm32h743nucleo/adalib/libgnarl.a(s-bbcppr.o)
                0x000000000800c8f5                system__bb__cpu_primitives__interrupt_request_vector
 .rodata.system__bb__cpu_primitives__sp_process
                0x000000000800c8f6        0x1 /home/badr/GNAT/2018-arm-elf/arm-eabi/lib/gnat/ravenscar-sfp-stm32h743nucleo/adalib/libgnarl.a(s-bbcppr.o)
                0x000000000800c8f6                system__bb__cpu_primitives__sp_process
 *fill*         0x000000000800c8f7        0x1 
 .rodata.system__bb__cpu_primitives__vtor
                0x000000000800c8f8        0x4 /home/badr/GNAT/2018-arm-elf/arm-eabi/lib/gnat/ravenscar-sfp-stm32h743nucleo/adalib/libgnarl.a(s-bbcppr.o)
                0x000000000800c8f8                system__bb__cpu_primitives__vtor
 .rodata.system__bb__cpu_primitives__aircr
                0x000000000800c8fc        0x4 /home/badr/GNAT/2018-arm-elf/arm-eabi/lib/gnat/ravenscar-sfp-stm32h743nucleo/adalib/libgnarl.a(s-bbcppr.o)
                0x000000000800c8fc                system__bb__cpu_primitives__aircr
 .rodata.system__bb__cpu_primitives__ccr
                0x000000000800c900        0x4 /home/badr/GNAT/2018-arm-elf/arm-eabi/lib/gnat/ravenscar-sfp-stm32h743nucleo/adalib/libgnarl.a(s-bbcppr.o)
                0x000000000800c900                system__bb__cpu_primitives(char, char, long double)
 .rodata.system__bb__cpu_primitives__shpr1
                0x000000000800c904        0x4 /home/badr/GNAT/2018-arm-elf/arm-eabi/lib/gnat/ravenscar-sfp-stm32h743nucleo/adalib/libgnarl.a(s-bbcppr.o)
                0x000000000800c904                system__bb__cpu_primitives__shpr1
 .rodata.system__bb__cpu_primitives__shpr2
                0x000000000800c908        0x4 /home/badr/GNAT/2018-arm-elf/arm-eabi/lib/gnat/ravenscar-sfp-stm32h743nucleo/adalib/libgnarl.a(s-bbcppr.o)
                0x000000000800c908                system__bb__cpu_primitives__shpr2
 .rodata.system__bb__cpu_primitives__shpr3
                0x000000000800c90c        0x4 /home/badr/GNAT/2018-arm-elf/arm-eabi/lib/gnat/ravenscar-sfp-stm32h743nucleo/adalib/libgnarl.a(s-bbcppr.o)
                0x000000000800c90c                system__bb__cpu_primitives__shpr3
 .rodata.system__bb__cpu_primitives__shcsr
                0x000000000800c910        0x4 /home/badr/GNAT/2018-arm-elf/arm-eabi/lib/gnat/ravenscar-sfp-stm32h743nucleo/adalib/libgnarl.a(s-bbcppr.o)
                0x000000000800c910                system__bb__cpu_primitives__shcsr
 .rodata        0x000000000800c914        0xd /home/badr/GNAT/2018-arm-elf/arm-eabi/lib/gnat/ravenscar-sfp-stm32h743nucleo/adalib/libgnarl.a(s-bbinte.o)
 *fill*         0x000000000800c921        0x3 
 .rodata.system__bb__interrupts__no_interrupt
                0x000000000800c924        0x4 /home/badr/GNAT/2018-arm-elf/arm-eabi/lib/gnat/ravenscar-sfp-stm32h743nucleo/adalib/libgnarl.a(s-bbinte.o)
                0x000000000800c924                system__bb__interrupts__no_interrupt
 .rodata        0x000000000800c928        0xd /home/badr/GNAT/2018-arm-elf/arm-eabi/lib/gnat/ravenscar-sfp-stm32h743nucleo/adalib/libgnarl.a(s-bbprot.o)
 *fill*         0x000000000800c935        0x3 
 .rodata        0x000000000800c938        0xd /home/badr/GNAT/2018-arm-elf/arm-eabi/lib/gnat/ravenscar-sfp-stm32h743nucleo/adalib/libgnarl.a(s-bbthqu.o)
 *fill*         0x000000000800c945        0x3 
 .rodata        0x000000000800c948        0xd /home/badr/GNAT/2018-arm-elf/arm-eabi/lib/gnat/ravenscar-sfp-stm32h743nucleo/adalib/libgnarl.a(s-bbthre.o)
 *fill*         0x000000000800c955        0x3 
 .rodata.system__bb__threads__null_thread_id
                0x000000000800c958        0x4 /home/badr/GNAT/2018-arm-elf/arm-eabi/lib/gnat/ravenscar-sfp-stm32h743nucleo/adalib/libgnarl.a(s-bbthre.o)
                0x000000000800c958                system__bb__threads__null_thread_id
 .rodata.system__bb__threads__thread_statesS
                0x000000000800c95c       0x18 /home/badr/GNAT/2018-arm-elf/arm-eabi/lib/gnat/ravenscar-sfp-stm32h743nucleo/adalib/libgnarl.a(s-bbthre.o)
                0x000000000800c95c                system__bb__threads__thread_statesS
 .rodata.system__bb__threads__thread_statesN
                0x000000000800c974        0x4 /home/badr/GNAT/2018-arm-elf/arm-eabi/lib/gnat/ravenscar-sfp-stm32h743nucleo/adalib/libgnarl.a(s-bbthre.o)
                0x000000000800c974                system__bb__threads__thread_statesN
 .rodata.system__bb__cpu_primitives__context_switch_trigger__nl
                0x000000000800c978        0x2 /home/badr/GNAT/2018-arm-elf/arm-eabi/lib/gnat/ravenscar-sfp-stm32h743nucleo/adalib/libgnarl.a(s-bcpcst.o)
 .rodata.system__bb__cpu_primitives__context_switch_trigger__no_floating_point
                0x000000000800c97a        0x1 /home/badr/GNAT/2018-arm-elf/arm-eabi/lib/gnat/ravenscar-sfp-stm32h743nucleo/adalib/libgnarl.a(s-bcpcst.o)
 .rodata.system__bb__cpu_primitives__context_switch_trigger__is_armv6m
                0x000000000800c97b        0x1 /home/badr/GNAT/2018-arm-elf/arm-eabi/lib/gnat/ravenscar-sfp-stm32h743nucleo/adalib/libgnarl.a(s-bcpcst.o)
 .rodata.system__bb__cpu_primitives__context_switch_trigger__icsr_pend_sv_set
                0x000000000800c97c        0x4 /home/badr/GNAT/2018-arm-elf/arm-eabi/lib/gnat/ravenscar-sfp-stm32h743nucleo/adalib/libgnarl.a(s-bcpcst.o)
 .rodata.system__bb__cpu_primitives__context_switch_trigger__icsr
                0x000000000800c980        0x4 /home/badr/GNAT/2018-arm-elf/arm-eabi/lib/gnat/ravenscar-sfp-stm32h743nucleo/adalib/libgnarl.a(s-bcpcst.o)
 .rodata        0x000000000800c984       0x84 /home/badr/GNAT/2018-arm-elf/arm-eabi/lib/gnat/ravenscar-sfp-stm32h743nucleo/adalib/libgnat.a(a-elchha.o)
 .rodata.ada__exceptions__null_id
                0x000000000800ca08        0x4 /home/badr/GNAT/2018-arm-elf/arm-eabi/lib/gnat/ravenscar-sfp-stm32h743nucleo/adalib/libgnat.a(a-except.o)
                0x000000000800ca08                ada__exceptions__null_id
 .rodata.ada__exceptions__empty_c_string___UNC
                0x000000000800ca0c        0xc /home/badr/GNAT/2018-arm-elf/arm-eabi/lib/gnat/ravenscar-sfp-stm32h743nucleo/adalib/libgnat.a(a-except.o)
                0x000000000800ca0c                ada__exceptions__empty_c_string___UNC
 .rodata.ada__exceptions__empty_c_string
                0x000000000800ca18        0x4 /home/badr/GNAT/2018-arm-elf/arm-eabi/lib/gnat/ravenscar-sfp-stm32h743nucleo/adalib/libgnat.a(a-except.o)
                0x000000000800ca18                ada__exceptions__empty_c_string
 .rodata        0x000000000800ca1c        0x9 /home/badr/GNAT/2018-arm-elf/arm-eabi/lib/gnat/ravenscar-sfp-stm32h743nucleo/adalib/libgnat.a(g-io.o)
 *fill*         0x000000000800ca25        0x3 
 .rodata        0x000000000800ca28        0xd /home/badr/GNAT/2018-arm-elf/arm-eabi/lib/gnat/ravenscar-sfp-stm32h743nucleo/adalib/libgnat.a(s-assert.o)
 *fill*         0x000000000800ca35        0x3 
 .rodata.system__assertions__assert_failureE
                0x000000000800ca38       0x21 /home/badr/GNAT/2018-arm-elf/arm-eabi/lib/gnat/ravenscar-sfp-stm32h743nucleo/adalib/libgnat.a(s-assert.o)
                0x000000000800ca38                system__assertions__assert_failureE
 *fill*         0x000000000800ca59        0x3 
 .rodata.system__assertions__R2s
                0x000000000800ca5c        0x4 /home/badr/GNAT/2018-arm-elf/arm-eabi/lib/gnat/ravenscar-sfp-stm32h743nucleo/adalib/libgnat.a(s-assert.o)
                0x000000000800ca5c                system__assertions__R2s
 .rodata        0x000000000800ca60        0xd /home/badr/GNAT/2018-arm-elf/arm-eabi/lib/gnat/ravenscar-sfp-stm32h743nucleo/adalib/libgnat.a(s-memcop.o)
 *fill*         0x000000000800ca6d        0x3 
 .rodata        0x000000000800ca70        0xd /home/badr/GNAT/2018-arm-elf/arm-eabi/lib/gnat/ravenscar-sfp-stm32h743nucleo/adalib/libgnat.a(s-memset.o)
 *fill*         0x000000000800ca7d        0x3 
 .rodata.system__parameters__unspecified_size
                0x000000000800ca80        0x4 /home/badr/GNAT/2018-arm-elf/arm-eabi/lib/gnat/ravenscar-sfp-stm32h743nucleo/adalib/libgnat.a(s-parame.o)
                0x000000000800ca80                system__parameters__unspecified_size
 .rodata.system__parameters__default_stack_size
                0x000000000800ca84        0x4 /home/badr/GNAT/2018-arm-elf/arm-eabi/lib/gnat/ravenscar-sfp-stm32h743nucleo/adalib/libgnat.a(s-parame.o)
                0x000000000800ca84                system__parameters__default_stack_size
 .rodata.system__parameters__minimum_stack_size
                0x000000000800ca88        0x4 /home/badr/GNAT/2018-arm-elf/arm-eabi/lib/gnat/ravenscar-sfp-stm32h743nucleo/adalib/libgnat.a(s-parame.o)
                0x000000000800ca88                system__parameters__minimum_stack_size
 .rodata.system__parameters__stack_grows_down
                0x000000000800ca8c        0x1 /home/badr/GNAT/2018-arm-elf/arm-eabi/lib/gnat/ravenscar-sfp-stm32h743nucleo/adalib/libgnat.a(s-parame.o)
                0x000000000800ca8c                system__parameters__stack_grows_down
 *fill*         0x000000000800ca8d        0x3 
 .rodata.system__parameters__runtime_default_sec_stack_size
                0x000000000800ca90        0x4 /home/badr/GNAT/2018-arm-elf/arm-eabi/lib/gnat/ravenscar-sfp-stm32h743nucleo/adalib/libgnat.a(s-parame.o)
                0x000000000800ca90                system__parameters__runtime_default_sec_stack_size
 .rodata.system__parameters__c_malloc_linkname
                0x000000000800ca94        0xd /home/badr/GNAT/2018-arm-elf/arm-eabi/lib/gnat/ravenscar-sfp-stm32h743nucleo/adalib/libgnat.a(s-parame.o)
                0x000000000800ca94                system__parameters__c_malloc_linkname
 .rodata.system__parameters__garbage_collected
                0x000000000800caa1        0x1 /home/badr/GNAT/2018-arm-elf/arm-eabi/lib/gnat/ravenscar-sfp-stm32h743nucleo/adalib/libgnat.a(s-parame.o)
                0x000000000800caa1                system__parameters__garbage_collected
 .rodata.system__parameters__single_lock
                0x000000000800caa2        0x1 /home/badr/GNAT/2018-arm-elf/arm-eabi/lib/gnat/ravenscar-sfp-stm32h743nucleo/adalib/libgnat.a(s-parame.o)
                0x000000000800caa2                system__parameters__single_lock
 .rodata.system__parameters__no_abort
                0x000000000800caa3        0x1 /home/badr/GNAT/2018-arm-elf/arm-eabi/lib/gnat/ravenscar-sfp-stm32h743nucleo/adalib/libgnat.a(s-parame.o)
                0x000000000800caa3                system__parameters__no_abort
 .rodata        0x000000000800caa4        0xd /home/badr/GNAT/2018-arm-elf/arm-eabi/lib/gnat/ravenscar-sfp-stm32h743nucleo/adalib/libgnat.a(s-secsta.o)
 *fill*         0x000000000800cab1        0x3 
 .rodata        0x000000000800cab4        0xd /home/badr/GNAT/2018-arm-elf/arm-eabi/lib/gnat/ravenscar-sfp-stm32h743nucleo/adalib/libgnat.a(s-semiho.o)
 *fill*         0x000000000800cac1        0x3 
 .rodata.system__semihosting__sys_writec
                0x000000000800cac4        0x4 /home/badr/GNAT/2018-arm-elf/arm-eabi/lib/gnat/ravenscar-sfp-stm32h743nucleo/adalib/libgnat.a(s-semiho.o)
 .rodata.system__semihosting__sys_write0
                0x000000000800cac8        0x4 /home/badr/GNAT/2018-arm-elf/arm-eabi/lib/gnat/ravenscar-sfp-stm32h743nucleo/adalib/libgnat.a(s-semiho.o)
 .rodata.system__semihosting__sys_readc
                0x000000000800cacc        0x4 /home/badr/GNAT/2018-arm-elf/arm-eabi/lib/gnat/ravenscar-sfp-stm32h743nucleo/adalib/libgnat.a(s-semiho.o)
                0x000000000800cad0                . = ALIGN (0x4)
                0x000000000800cad0                __rom_end = .
                0x000000000800cad0                __data_load = __rom_end

.rel.dyn        0x000000000800cad0        0x0
 .rel.iplt      0x000000000800cad0        0x0 spi.o

.data           0x0000000024000000      0x118 load address 0x000000000800cad0
                0x0000000024000000                __data_start = .
 *(.data .data.* .gnu.linkonce.d*)
 .data          0x0000000024000000        0x0 spi.o
 .data          0x0000000024000000        0x2 b__spi.o
                0x0000000024000000                ada_main_E
 .data          0x0000000024000002        0x0 /home/badr/hackinvent/Ada_Drivers_Library/boards/stm32h743_nucleo/obj/sfp_lib_Debug/libada_drivers_library.a(stm32-board.o)
 .data.stm32__board_E
                0x0000000024000002        0x2 /home/badr/hackinvent/Ada_Drivers_Library/boards/stm32h743_nucleo/obj/sfp_lib_Debug/libada_drivers_library.a(stm32-board.o)
                0x0000000024000002                stm32__board_E
 .data          0x0000000024000004        0x0 /home/badr/hackinvent/Ada_Drivers_Library/boards/stm32h743_nucleo/obj/sfp_lib_Debug/libada_drivers_library.a(stm32-device.o)
 .data.stm32__device_E
                0x0000000024000004        0x2 /home/badr/hackinvent/Ada_Drivers_Library/boards/stm32h743_nucleo/obj/sfp_lib_Debug/libada_drivers_library.a(stm32-device.o)
                0x0000000024000004                stm32__device_E
 *fill*         0x0000000024000006        0x2 
 .data.stm32__device__unknown_device
                0x0000000024000008       0x18 /home/badr/hackinvent/Ada_Drivers_Library/boards/stm32h743_nucleo/obj/sfp_lib_Debug/libada_drivers_library.a(stm32-device.o)
                0x0000000024000008                stm32__device__unknown_device
 .data          0x0000000024000020        0x0 /home/badr/hackinvent/Ada_Drivers_Library/boards/stm32h743_nucleo/obj/sfp_lib_Debug/libada_drivers_library.a(stm32-exti.o)
 .data.stm32__exti_E
                0x0000000024000020        0x2 /home/badr/hackinvent/Ada_Drivers_Library/boards/stm32h743_nucleo/obj/sfp_lib_Debug/libada_drivers_library.a(stm32-exti.o)
                0x0000000024000020                stm32__exti_E
 .data          0x0000000024000022        0x0 /home/badr/hackinvent/Ada_Drivers_Library/boards/stm32h743_nucleo/obj/sfp_lib_Debug/libada_drivers_library.a(stm32-gpio.o)
 .data.stm32__gpio_E
                0x0000000024000022        0x2 /home/badr/hackinvent/Ada_Drivers_Library/boards/stm32h743_nucleo/obj/sfp_lib_Debug/libada_drivers_library.a(stm32-gpio.o)
                0x0000000024000022                stm32__gpio_E
 .data.stm32__gpio__modeE10b
                0x0000000024000024        0x1 /home/badr/hackinvent/Ada_Drivers_Library/boards/stm32h743_nucleo/obj/sfp_lib_Debug/libada_drivers_library.a(stm32-gpio.o)
                0x0000000024000024                stm32__gpio__modeE10b
 .data.stm32__gpio__set_modeE23b
                0x0000000024000025        0x1 /home/badr/hackinvent/Ada_Drivers_Library/boards/stm32h743_nucleo/obj/sfp_lib_Debug/libada_drivers_library.a(stm32-gpio.o)
                0x0000000024000025                stm32__gpio__set_modeE23b
 .data.stm32__gpio__pull_resistorE28b
                0x0000000024000026        0x1 /home/badr/hackinvent/Ada_Drivers_Library/boards/stm32h743_nucleo/obj/sfp_lib_Debug/libada_drivers_library.a(stm32-gpio.o)
                0x0000000024000026                stm32__gpio__pull_resistorE28b
 .data.stm32__gpio__set_pull_resistorE42b
                0x0000000024000027        0x1 /home/badr/hackinvent/Ada_Drivers_Library/boards/stm32h743_nucleo/obj/sfp_lib_Debug/libada_drivers_library.a(stm32-gpio.o)
                0x0000000024000027                stm32__gpio__set_pull_resistorE42b
 .data.stm32__gpio__lockE78b
                0x0000000024000028        0x1 /home/badr/hackinvent/Ada_Drivers_Library/boards/stm32h743_nucleo/obj/sfp_lib_Debug/libada_drivers_library.a(stm32-gpio.o)
                0x0000000024000028                stm32__gpio__lockE78b
 .data.stm32__gpio__configure_ioE100b
                0x0000000024000029        0x1 /home/badr/hackinvent/Ada_Drivers_Library/boards/stm32h743_nucleo/obj/sfp_lib_Debug/libada_drivers_library.a(stm32-gpio.o)
                0x0000000024000029                stm32__gpio__configure_ioE100b
 .data.stm32__gpio__interrupt_line_numberE120b
                0x000000002400002a        0x1 /home/badr/hackinvent/Ada_Drivers_Library/boards/stm32h743_nucleo/obj/sfp_lib_Debug/libada_drivers_library.a(stm32-gpio.o)
                0x000000002400002a                stm32__gpio__interrupt_line_numberE120b
 .data.stm32__gpio__configure_triggerE122b
                0x000000002400002b        0x1 /home/badr/hackinvent/Ada_Drivers_Library/boards/stm32h743_nucleo/obj/sfp_lib_Debug/libada_drivers_library.a(stm32-gpio.o)
                0x000000002400002b                stm32__gpio__configure_triggerE122b
 .data.stm32__gpio__configure_alternate_functionE114b
                0x000000002400002c        0x1 /home/badr/hackinvent/Ada_Drivers_Library/boards/stm32h743_nucleo/obj/sfp_lib_Debug/libada_drivers_library.a(stm32-gpio.o)
                0x000000002400002c                stm32__gpio__configure_alternate_functionE114b
 .data          0x000000002400002d        0x0 /home/badr/hackinvent/Ada_Drivers_Library/boards/stm32h743_nucleo/obj/sfp_lib_Debug/libada_drivers_library.a(stm32-rcc.o)
 *fill*         0x000000002400002d        0x1 
 .data.stm32__rcc_E
                0x000000002400002e        0x2 /home/badr/hackinvent/Ada_Drivers_Library/boards/stm32h743_nucleo/obj/sfp_lib_Debug/libada_drivers_library.a(stm32-rcc.o)
                0x000000002400002e                stm32__rcc_E
 .data.stm32__rcc__unknown_device
                0x0000000024000030       0x18 /home/badr/hackinvent/Ada_Drivers_Library/boards/stm32h743_nucleo/obj/sfp_lib_Debug/libada_drivers_library.a(stm32-rcc.o)
                0x0000000024000030                stm32__rcc__unknown_device
 .data          0x0000000024000048        0x0 /home/badr/hackinvent/Ada_Drivers_Library/boards/stm32h743_nucleo/obj/sfp_lib_Debug/libada_drivers_library.a(stm32-spi.o)
 .data.stm32__spi_E
                0x0000000024000048        0x2 /home/badr/hackinvent/Ada_Drivers_Library/boards/stm32h743_nucleo/obj/sfp_lib_Debug/libada_drivers_library.a(stm32-spi.o)
                0x0000000024000048                stm32__spi_E
 .data.stm32__spi__testconfigureE1b
                0x000000002400004a        0x1 /home/badr/hackinvent/Ada_Drivers_Library/boards/stm32h743_nucleo/obj/sfp_lib_Debug/libada_drivers_library.a(stm32-spi.o)
                0x000000002400004a                stm32__spi__testconfigureE1b
 .data.stm32__spi__testtrasmitE2b
                0x000000002400004b        0x1 /home/badr/hackinvent/Ada_Drivers_Library/boards/stm32h743_nucleo/obj/sfp_lib_Debug/libada_drivers_library.a(stm32-spi.o)
                0x000000002400004b                stm32__spi__testtrasmitE2b
 .data.stm32__spi__configureE3b
                0x000000002400004c        0x1 /home/badr/hackinvent/Ada_Drivers_Library/boards/stm32h743_nucleo/obj/sfp_lib_Debug/libada_drivers_library.a(stm32-spi.o)
                0x000000002400004c                stm32__spi__configureE3b
 .data.stm32__spi__enableE4b
                0x000000002400004d        0x1 /home/badr/hackinvent/Ada_Drivers_Library/boards/stm32h743_nucleo/obj/sfp_lib_Debug/libada_drivers_library.a(stm32-spi.o)
                0x000000002400004d                stm32__spi__enableE4b
 .data.stm32__spi__disableE5b
                0x000000002400004e        0x1 /home/badr/hackinvent/Ada_Drivers_Library/boards/stm32h743_nucleo/obj/sfp_lib_Debug/libada_drivers_library.a(stm32-spi.o)
                0x000000002400004e                stm32__spi__disableE5b
 .data.stm32__spi__enabledE9b
                0x000000002400004f        0x1 /home/badr/hackinvent/Ada_Drivers_Library/boards/stm32h743_nucleo/obj/sfp_lib_Debug/libada_drivers_library.a(stm32-spi.o)
                0x000000002400004f                stm32__spi__enabledE9b
 .data.stm32__spi__sendE10b
                0x0000000024000050        0x1 /home/badr/hackinvent/Ada_Drivers_Library/boards/stm32h743_nucleo/obj/sfp_lib_Debug/libada_drivers_library.a(stm32-spi.o)
                0x0000000024000050                stm32__spi__sendE10b
 .data.stm32__spi__sendE13b
                0x0000000024000051        0x1 /home/badr/hackinvent/Ada_Drivers_Library/boards/stm32h743_nucleo/obj/sfp_lib_Debug/libada_drivers_library.a(stm32-spi.o)
                0x0000000024000051                stm32__spi__sendE13b
 .data.stm32__spi__sendE17b
                0x0000000024000052        0x1 /home/badr/hackinvent/Ada_Drivers_Library/boards/stm32h743_nucleo/obj/sfp_lib_Debug/libada_drivers_library.a(stm32-spi.o)
                0x0000000024000052                stm32__spi__sendE17b
 .data.stm32__spi__clear_overrunE59b
                0x0000000024000053        0x1 /home/badr/hackinvent/Ada_Drivers_Library/boards/stm32h743_nucleo/obj/sfp_lib_Debug/libada_drivers_library.a(stm32-spi.o)
                0x0000000024000053                stm32__spi__clear_overrunE59b
 .data.stm32__spi__reset_crcE60b
                0x0000000024000054        0x1 /home/badr/hackinvent/Ada_Drivers_Library/boards/stm32h743_nucleo/obj/sfp_lib_Debug/libada_drivers_library.a(stm32-spi.o)
                0x0000000024000054                stm32__spi__reset_crcE60b
 .data.stm32__spi__is_data_frame_16bitE64b
                0x0000000024000055        0x1 /home/badr/hackinvent/Ada_Drivers_Library/boards/stm32h743_nucleo/obj/sfp_lib_Debug/libada_drivers_library.a(stm32-spi.o)
                0x0000000024000055                stm32__spi__is_data_frame_16bitE64b
 .data.stm32__spi__current_modeE36b
                0x0000000024000056        0x1 /home/badr/hackinvent/Ada_Drivers_Library/boards/stm32h743_nucleo/obj/sfp_lib_Debug/libada_drivers_library.a(stm32-spi.o)
                0x0000000024000056                stm32__spi__current_modeE36b
 .data.stm32__spi__current_data_directionE43b
                0x0000000024000057        0x1 /home/badr/hackinvent/Ada_Drivers_Library/boards/stm32h743_nucleo/obj/sfp_lib_Debug/libada_drivers_library.a(stm32-spi.o)
                0x0000000024000057                stm32__spi__current_data_directionE43b
 .data.stm32__spi__data_sizeE68b
                0x0000000024000058        0x1 /home/badr/hackinvent/Ada_Drivers_Library/boards/stm32h743_nucleo/obj/sfp_lib_Debug/libada_drivers_library.a(stm32-spi.o)
                0x0000000024000058                stm32__spi__data_sizeE68b
 .data.stm32__spi__transmitE74b
                0x0000000024000059        0x1 /home/badr/hackinvent/Ada_Drivers_Library/boards/stm32h743_nucleo/obj/sfp_lib_Debug/libada_drivers_library.a(stm32-spi.o)
                0x0000000024000059                stm32__spi__transmitE74b
 .data.stm32__spi__transmitE80b
                0x000000002400005a        0x1 /home/badr/hackinvent/Ada_Drivers_Library/boards/stm32h743_nucleo/obj/sfp_lib_Debug/libada_drivers_library.a(stm32-spi.o)
                0x000000002400005a                stm32__spi__transmitE80b
 .data.stm32__spi__transmitE82b
                0x000000002400005b        0x1 /home/badr/hackinvent/Ada_Drivers_Library/boards/stm32h743_nucleo/obj/sfp_lib_Debug/libada_drivers_library.a(stm32-spi.o)
                0x000000002400005b                stm32__spi__transmitE82b
 .data.stm32__spi__receiveE87b
                0x000000002400005c        0x1 /home/badr/hackinvent/Ada_Drivers_Library/boards/stm32h743_nucleo/obj/sfp_lib_Debug/libada_drivers_library.a(stm32-spi.o)
                0x000000002400005c                stm32__spi__receiveE87b
 .data.stm32__spi__receiveE92b
                0x000000002400005d        0x1 /home/badr/hackinvent/Ada_Drivers_Library/boards/stm32h743_nucleo/obj/sfp_lib_Debug/libada_drivers_library.a(stm32-spi.o)
                0x000000002400005d                stm32__spi__receiveE92b
 .data.stm32__spi__receiveE94b
                0x000000002400005e        0x1 /home/badr/hackinvent/Ada_Drivers_Library/boards/stm32h743_nucleo/obj/sfp_lib_Debug/libada_drivers_library.a(stm32-spi.o)
                0x000000002400005e                stm32__spi__receiveE94b
 .data.stm32__spi__transmit_receiveE97b
                0x000000002400005f        0x1 /home/badr/hackinvent/Ada_Drivers_Library/boards/stm32h743_nucleo/obj/sfp_lib_Debug/libada_drivers_library.a(stm32-spi.o)
                0x000000002400005f                stm32__spi__transmit_receiveE97b
 .data.stm32__spi__transmit_receiveE99b
                0x0000000024000060        0x1 /home/badr/hackinvent/Ada_Drivers_Library/boards/stm32h743_nucleo/obj/sfp_lib_Debug/libada_drivers_library.a(stm32-spi.o)
                0x0000000024000060                stm32__spi__transmit_receiveE99b
 .data.stm32__spi__data_rx_register_addressE102b
                0x0000000024000061        0x1 /home/badr/hackinvent/Ada_Drivers_Library/boards/stm32h743_nucleo/obj/sfp_lib_Debug/libada_drivers_library.a(stm32-spi.o)
                0x0000000024000061                stm32__spi__data_rx_register_addressE102b
 .data.stm32__spi__data_tx_register_addressE105b
                0x0000000024000062        0x1 /home/badr/hackinvent/Ada_Drivers_Library/boards/stm32h743_nucleo/obj/sfp_lib_Debug/libada_drivers_library.a(stm32-spi.o)
                0x0000000024000062                stm32__spi__data_tx_register_addressE105b
 .data.stm32__spi__send_receive_16bit_modeE118b
                0x0000000024000063        0x1 /home/badr/hackinvent/Ada_Drivers_Library/boards/stm32h743_nucleo/obj/sfp_lib_Debug/libada_drivers_library.a(stm32-spi.o)
                0x0000000024000063                stm32__spi__send_receive_16bit_modeE118b
 .data.stm32__spi__send_receive_8bit_modeE130b
                0x0000000024000064        0x1 /home/badr/hackinvent/Ada_Drivers_Library/boards/stm32h743_nucleo/obj/sfp_lib_Debug/libada_drivers_library.a(stm32-spi.o)
                0x0000000024000064                stm32__spi__send_receive_8bit_modeE130b
 .data.stm32__spi__send_16bit_modeE135b
                0x0000000024000065        0x1 /home/badr/hackinvent/Ada_Drivers_Library/boards/stm32h743_nucleo/obj/sfp_lib_Debug/libada_drivers_library.a(stm32-spi.o)
                0x0000000024000065                stm32__spi__send_16bit_modeE135b
 .data.stm32__spi__send_8bit_modeE140b
                0x0000000024000066        0x1 /home/badr/hackinvent/Ada_Drivers_Library/boards/stm32h743_nucleo/obj/sfp_lib_Debug/libada_drivers_library.a(stm32-spi.o)
                0x0000000024000066                stm32__spi__send_8bit_modeE140b
 .data.stm32__spi__receive_16bit_modeE145b
                0x0000000024000067        0x1 /home/badr/hackinvent/Ada_Drivers_Library/boards/stm32h743_nucleo/obj/sfp_lib_Debug/libada_drivers_library.a(stm32-spi.o)
                0x0000000024000067                stm32__spi__receive_16bit_modeE145b
 .data.stm32__spi__receive_8bit_modeE150b
                0x0000000024000068        0x1 /home/badr/hackinvent/Ada_Drivers_Library/boards/stm32h743_nucleo/obj/sfp_lib_Debug/libada_drivers_library.a(stm32-spi.o)
                0x0000000024000068                stm32__spi__receive_8bit_modeE150b
 .data          0x0000000024000069        0x0 /home/badr/hackinvent/Ada_Drivers_Library/boards/stm32h743_nucleo/obj/sfp_lib_Debug/libada_drivers_library.a(stm32-syscfg.o)
 *fill*         0x0000000024000069        0x1 
 .data.stm32__syscfg_E
                0x000000002400006a        0x2 /home/badr/hackinvent/Ada_Drivers_Library/boards/stm32h743_nucleo/obj/sfp_lib_Debug/libada_drivers_library.a(stm32-syscfg.o)
                0x000000002400006a                stm32__syscfg_E
 .data          0x000000002400006c        0x0 /home/badr/hackinvent/Ada_Drivers_Library/boards/stm32h743_nucleo/obj/sfp_lib_Debug/libada_drivers_library.a(hal-gpio.o)
 .data.hal__gpio_E
                0x000000002400006c        0x2 /home/badr/hackinvent/Ada_Drivers_Library/boards/stm32h743_nucleo/obj/sfp_lib_Debug/libada_drivers_library.a(hal-gpio.o)
                0x000000002400006c                hal__gpio_E
 .data          0x000000002400006e        0x0 /home/badr/hackinvent/Ada_Drivers_Library/boards/stm32h743_nucleo/obj/sfp_lib_Debug/libada_drivers_library.a(hal-spi.o)
 .data.hal__spi_E
                0x000000002400006e        0x2 /home/badr/hackinvent/Ada_Drivers_Library/boards/stm32h743_nucleo/obj/sfp_lib_Debug/libada_drivers_library.a(hal-spi.o)
                0x000000002400006e                hal__spi_E
 .data          0x0000000024000070        0x0 /home/badr/GNAT/2018-arm-elf/arm-eabi/lib/gnat/ravenscar-sfp-stm32h743nucleo/adalib/libgnarl.a(a-reatim.o)
 .data.ada__real_time_E
                0x0000000024000070        0x2 /home/badr/GNAT/2018-arm-elf/arm-eabi/lib/gnat/ravenscar-sfp-stm32h743nucleo/adalib/libgnarl.a(a-reatim.o)
                0x0000000024000070                ada__real_time_E
 .data          0x0000000024000072        0x0 /home/badr/GNAT/2018-arm-elf/arm-eabi/lib/gnat/ravenscar-sfp-stm32h743nucleo/adalib/libgnarl.a(a-retide.o)
 .data.ada__real_time__delays_E
                0x0000000024000072        0x2 /home/badr/GNAT/2018-arm-elf/arm-eabi/lib/gnat/ravenscar-sfp-stm32h743nucleo/adalib/libgnarl.a(a-retide.o)
                0x0000000024000072                ada__real_time__delays_E
 .data          0x0000000024000074        0x0 /home/badr/GNAT/2018-arm-elf/arm-eabi/lib/gnat/ravenscar-sfp-stm32h743nucleo/adalib/libgnarl.a(s-bbtiev.o)
 .data.system__bb__timing_events_E
                0x0000000024000074        0x2 /home/badr/GNAT/2018-arm-elf/arm-eabi/lib/gnat/ravenscar-sfp-stm32h743nucleo/adalib/libgnarl.a(s-bbtiev.o)
                0x0000000024000074                system__bb__timing_events_E
 .data.system__bb__timing_events__set_handlerE32b
                0x0000000024000076        0x1 /home/badr/GNAT/2018-arm-elf/arm-eabi/lib/gnat/ravenscar-sfp-stm32h743nucleo/adalib/libgnarl.a(s-bbtiev.o)
                0x0000000024000076                system__bb__timing_events__set_handlerE32b
 .data.system__bb__timing_events__cancel_handlerE34b
                0x0000000024000077        0x1 /home/badr/GNAT/2018-arm-elf/arm-eabi/lib/gnat/ravenscar-sfp-stm32h743nucleo/adalib/libgnarl.a(s-bbtiev.o)
                0x0000000024000077                system__bb__timing_events__cancel_handlerE34b
 .data.system__bb__timing_events__time_of_eventE41b
                0x0000000024000078        0x1 /home/badr/GNAT/2018-arm-elf/arm-eabi/lib/gnat/ravenscar-sfp-stm32h743nucleo/adalib/libgnarl.a(s-bbtiev.o)
                0x0000000024000078                system__bb__timing_events__time_of_eventE41b
 *fill*         0x0000000024000079        0x3 
 .data.system__bb__timing_events__events_table
                0x000000002400007c        0x4 /home/badr/GNAT/2018-arm-elf/arm-eabi/lib/gnat/ravenscar-sfp-stm32h743nucleo/adalib/libgnarl.a(s-bbtiev.o)
                0x000000002400007c                system__bb__timing_events__events_table
 .data          0x0000000024000080        0x0 /home/badr/GNAT/2018-arm-elf/arm-eabi/lib/gnat/ravenscar-sfp-stm32h743nucleo/adalib/libgnarl.a(s-bbtime.o)
 .data.system__bb__time__scheduling_event_hook
                0x0000000024000080        0x4 /home/badr/GNAT/2018-arm-elf/arm-eabi/lib/gnat/ravenscar-sfp-stm32h743nucleo/adalib/libgnarl.a(s-bbtime.o)
                0x0000000024000080                system__bb__time__scheduling_event_hook
 .data.system__bb__time__alarm_lock
                0x0000000024000084        0x2 /home/badr/GNAT/2018-arm-elf/arm-eabi/lib/gnat/ravenscar-sfp-stm32h743nucleo/adalib/libgnarl.a(s-bbtime.o)
                0x0000000024000084                system__bb__time__alarm_lock
 *fill*         0x0000000024000086        0x2 
 .data.system__bb__time__software_clock
                0x0000000024000088        0x8 /home/badr/GNAT/2018-arm-elf/arm-eabi/lib/gnat/ravenscar-sfp-stm32h743nucleo/adalib/libgnarl.a(s-bbtime.o)
                0x0000000024000088                system__bb__time__software_clock
 .data.system__bb__time__pending_alarm
                0x0000000024000090        0x8 /home/badr/GNAT/2018-arm-elf/arm-eabi/lib/gnat/ravenscar-sfp-stm32h743nucleo/adalib/libgnarl.a(s-bbtime.o)
                0x0000000024000090                system__bb__time__pending_alarm
 .data.system__bb__time__max_sleep
                0x0000000024000098        0x8 /home/badr/GNAT/2018-arm-elf/arm-eabi/lib/gnat/ravenscar-sfp-stm32h743nucleo/adalib/libgnarl.a(s-bbtime.o)
                0x0000000024000098                system__bb__time__max_sleep
 .data          0x00000000240000a0        0x0 /home/badr/GNAT/2018-arm-elf/arm-eabi/lib/gnat/ravenscar-sfp-stm32h743nucleo/adalib/libgnarl.a(s-taprop.o)
 .data.system__task_primitives__operations__environment_task
                0x00000000240000a0        0x4 /home/badr/GNAT/2018-arm-elf/arm-eabi/lib/gnat/ravenscar-sfp-stm32h743nucleo/adalib/libgnarl.a(s-taprop.o)
                0x00000000240000a0                system__task_primitives__operations__environment_task
 .data          0x00000000240000a4        0x0 /home/badr/GNAT/2018-arm-elf/arm-eabi/lib/gnat/ravenscar-sfp-stm32h743nucleo/adalib/libgnarl.a(s-tasdeb.o)
 .data.system__tasking__debug_E
                0x00000000240000a4        0x2 /home/badr/GNAT/2018-arm-elf/arm-eabi/lib/gnat/ravenscar-sfp-stm32h743nucleo/adalib/libgnarl.a(s-tasdeb.o)
                0x00000000240000a4                system__tasking__debug_E
 *fill*         0x00000000240000a6        0x2 
 .data.system__tasking__debug__first_task
                0x00000000240000a8        0x4 /home/badr/GNAT/2018-arm-elf/arm-eabi/lib/gnat/ravenscar-sfp-stm32h743nucleo/adalib/libgnarl.a(s-tasdeb.o)
                0x00000000240000a8                system__tasking__debug__first_task
 .data.system__tasking__debug__last_task
                0x00000000240000ac        0x4 /home/badr/GNAT/2018-arm-elf/arm-eabi/lib/gnat/ravenscar-sfp-stm32h743nucleo/adalib/libgnarl.a(s-tasdeb.o)
                0x00000000240000ac                system__tasking__debug__last_task
 .data          0x00000000240000b0        0x0 /home/badr/GNAT/2018-arm-elf/arm-eabi/lib/gnat/ravenscar-sfp-stm32h743nucleo/adalib/libgnarl.a(s-taskin.o)
 .data.system__tasking__fall_back_handler
                0x00000000240000b0        0x8 /home/badr/GNAT/2018-arm-elf/arm-eabi/lib/gnat/ravenscar-sfp-stm32h743nucleo/adalib/libgnarl.a(s-taskin.o)
                0x00000000240000b0                system__tasking__fall_back_handler
 .data.__gl_main_priority
                0x00000000240000b8        0x4 /home/badr/GNAT/2018-arm-elf/arm-eabi/lib/gnat/ravenscar-sfp-stm32h743nucleo/adalib/libgnarl.a(s-taskin.o)
                0x00000000240000b8                __gl_main_priority
 .data.__gl_main_cpu
                0x00000000240000bc        0x4 /home/badr/GNAT/2018-arm-elf/arm-eabi/lib/gnat/ravenscar-sfp-stm32h743nucleo/adalib/libgnarl.a(s-taskin.o)
                0x00000000240000bc                __gl_main_cpu
 .data.system__tasking__initialized
                0x00000000240000c0        0x1 /home/badr/GNAT/2018-arm-elf/arm-eabi/lib/gnat/ravenscar-sfp-stm32h743nucleo/adalib/libgnarl.a(s-taskin.o)
 .data          0x00000000240000c1        0x0 /home/badr/GNAT/2018-arm-elf/arm-eabi/lib/gnat/ravenscar-sfp-stm32h743nucleo/adalib/libgnarl.a(s-bbbosu.o)
 .data          0x00000000240000c1        0x0 /home/badr/GNAT/2018-arm-elf/arm-eabi/lib/gnat/ravenscar-sfp-stm32h743nucleo/adalib/libgnarl.a(s-bbcppr.o)
 .data          0x00000000240000c1        0x0 /home/badr/GNAT/2018-arm-elf/arm-eabi/lib/gnat/ravenscar-sfp-stm32h743nucleo/adalib/libgnarl.a(s-bbinte.o)
 *fill*         0x00000000240000c1        0x3 
 .data.system__bb__interrupts__interrupt_being_handled
                0x00000000240000c4        0x4 /home/badr/GNAT/2018-arm-elf/arm-eabi/lib/gnat/ravenscar-sfp-stm32h743nucleo/adalib/libgnarl.a(s-bbinte.o)
                0x00000000240000c4                system__bb__interrupts__interrupt_being_handled
 .data          0x00000000240000c8        0x0 /home/badr/GNAT/2018-arm-elf/arm-eabi/lib/gnat/ravenscar-sfp-stm32h743nucleo/adalib/libgnarl.a(s-bbprot.o)
 .data.system__bb__protection__wakeup_served_entry_callback
                0x00000000240000c8        0x4 /home/badr/GNAT/2018-arm-elf/arm-eabi/lib/gnat/ravenscar-sfp-stm32h743nucleo/adalib/libgnarl.a(s-bbprot.o)
                0x00000000240000c8                system__bb__protection__wakeup_served_entry_callback
 .data          0x00000000240000cc        0x0 /home/badr/GNAT/2018-arm-elf/arm-eabi/lib/gnat/ravenscar-sfp-stm32h743nucleo/adalib/libgnarl.a(s-bbthqu.o)
 .data.__gnat_running_thread_table
                0x00000000240000cc        0x4 /home/badr/GNAT/2018-arm-elf/arm-eabi/lib/gnat/ravenscar-sfp-stm32h743nucleo/adalib/libgnarl.a(s-bbthqu.o)
                0x00000000240000cc                __gnat_running_thread_table
 .data.first_thread_table
                0x00000000240000d0        0x4 /home/badr/GNAT/2018-arm-elf/arm-eabi/lib/gnat/ravenscar-sfp-stm32h743nucleo/adalib/libgnarl.a(s-bbthqu.o)
                0x00000000240000d0                first_thread_table
 .data.system__bb__threads__queues__global_list
                0x00000000240000d4        0x4 /home/badr/GNAT/2018-arm-elf/arm-eabi/lib/gnat/ravenscar-sfp-stm32h743nucleo/adalib/libgnarl.a(s-bbthqu.o)
                0x00000000240000d4                system__bb__threads__queues__global_list
 .data.system__bb__threads__queues__alarms_table
                0x00000000240000d8        0x4 /home/badr/GNAT/2018-arm-elf/arm-eabi/lib/gnat/ravenscar-sfp-stm32h743nucleo/adalib/libgnarl.a(s-bbthqu.o)
                0x00000000240000d8                system__bb__threads__queues__alarms_table
 .data          0x00000000240000dc        0x0 /home/badr/GNAT/2018-arm-elf/arm-eabi/lib/gnat/ravenscar-sfp-stm32h743nucleo/adalib/libgnarl.a(s-bbthre.o)
 .data.system__bb__threads__initialized
                0x00000000240000dc        0x1 /home/badr/GNAT/2018-arm-elf/arm-eabi/lib/gnat/ravenscar-sfp-stm32h743nucleo/adalib/libgnarl.a(s-bbthre.o)
                0x00000000240000dc                system__bb__threads__initialized
 .data          0x00000000240000dd        0x0 /home/badr/GNAT/2018-arm-elf/arm-eabi/lib/gnat/ravenscar-sfp-stm32h743nucleo/adalib/libgnarl.a(s-bcpcst.o)
 .data          0x00000000240000dd        0x0 /home/badr/GNAT/2018-arm-elf/arm-eabi/lib/gnat/ravenscar-sfp-stm32h743nucleo/adalib/libgnarl.a(handler.o)
 .data          0x00000000240000dd        0x0 /home/badr/GNAT/2018-arm-elf/arm-eabi/lib/gnat/ravenscar-sfp-stm32h743nucleo/adalib/libgnat.a(a-elchha.o)
 *fill*         0x00000000240000dd        0x1 
 .data.ada__exceptions__last_chance_handler_E
                0x00000000240000de        0x2 /home/badr/GNAT/2018-arm-elf/arm-eabi/lib/gnat/ravenscar-sfp-stm32h743nucleo/adalib/libgnat.a(a-elchha.o)
                0x00000000240000de                ada__exceptions__last_chance_handler_E
 .data          0x00000000240000e0        0x0 /home/badr/GNAT/2018-arm-elf/arm-eabi/lib/gnat/ravenscar-sfp-stm32h743nucleo/adalib/libgnat.a(a-except.o)
 .data.ada__exceptions_E
                0x00000000240000e0        0x2 /home/badr/GNAT/2018-arm-elf/arm-eabi/lib/gnat/ravenscar-sfp-stm32h743nucleo/adalib/libgnat.a(a-except.o)
                0x00000000240000e0                ada__exceptions_E
 .data          0x00000000240000e2        0x0 /home/badr/GNAT/2018-arm-elf/arm-eabi/lib/gnat/ravenscar-sfp-stm32h743nucleo/adalib/libgnat.a(breakpoint_handler-cortexm.o)
 .data          0x00000000240000e2        0x0 /home/badr/GNAT/2018-arm-elf/arm-eabi/lib/gnat/ravenscar-sfp-stm32h743nucleo/adalib/libgnat.a(g-io.o)
 .data.gnat__io_E
                0x00000000240000e2        0x2 /home/badr/GNAT/2018-arm-elf/arm-eabi/lib/gnat/ravenscar-sfp-stm32h743nucleo/adalib/libgnat.a(g-io.o)
                0x00000000240000e2                gnat__io_E
 .data          0x00000000240000e4        0x0 /home/badr/GNAT/2018-arm-elf/arm-eabi/lib/gnat/ravenscar-sfp-stm32h743nucleo/adalib/libgnat.a(s-assert.o)
 .data.system__assertions_E
                0x00000000240000e4        0x2 /home/badr/GNAT/2018-arm-elf/arm-eabi/lib/gnat/ravenscar-sfp-stm32h743nucleo/adalib/libgnat.a(s-assert.o)
                0x00000000240000e4                system__assertions_E
 *fill*         0x00000000240000e6        0x2 
 .data.system__assertions__assert_failure
                0x00000000240000e8       0x18 /home/badr/GNAT/2018-arm-elf/arm-eabi/lib/gnat/ravenscar-sfp-stm32h743nucleo/adalib/libgnat.a(s-assert.o)
                0x00000000240000e8                system__assertions__assert_failure
 .data          0x0000000024000100        0x0 /home/badr/GNAT/2018-arm-elf/arm-eabi/lib/gnat/ravenscar-sfp-stm32h743nucleo/adalib/libgnat.a(s-macres.o)
 .data.system__machine_reset_E
                0x0000000024000100        0x2 /home/badr/GNAT/2018-arm-elf/arm-eabi/lib/gnat/ravenscar-sfp-stm32h743nucleo/adalib/libgnat.a(s-macres.o)
                0x0000000024000100                system__machine_reset_E
 .data          0x0000000024000102        0x0 /home/badr/GNAT/2018-arm-elf/arm-eabi/lib/gnat/ravenscar-sfp-stm32h743nucleo/adalib/libgnat.a(s-memcop.o)
 .data.system__memory_copy_E
                0x0000000024000102        0x2 /home/badr/GNAT/2018-arm-elf/arm-eabi/lib/gnat/ravenscar-sfp-stm32h743nucleo/adalib/libgnat.a(s-memcop.o)
                0x0000000024000102                system__memory_copy_E
 .data          0x0000000024000104        0x0 /home/badr/GNAT/2018-arm-elf/arm-eabi/lib/gnat/ravenscar-sfp-stm32h743nucleo/adalib/libgnat.a(s-memset.o)
 .data.system__memory_set_E
                0x0000000024000104        0x2 /home/badr/GNAT/2018-arm-elf/arm-eabi/lib/gnat/ravenscar-sfp-stm32h743nucleo/adalib/libgnat.a(s-memset.o)
                0x0000000024000104                system__memory_set_E
 .data          0x0000000024000106        0x0 /home/badr/GNAT/2018-arm-elf/arm-eabi/lib/gnat/ravenscar-sfp-stm32h743nucleo/adalib/libgnat.a(s-parame.o)
 .data.system__parameters_E
                0x0000000024000106        0x2 /home/badr/GNAT/2018-arm-elf/arm-eabi/lib/gnat/ravenscar-sfp-stm32h743nucleo/adalib/libgnat.a(s-parame.o)
                0x0000000024000106                system__parameters_E
 .data          0x0000000024000108        0x0 /home/badr/GNAT/2018-arm-elf/arm-eabi/lib/gnat/ravenscar-sfp-stm32h743nucleo/adalib/libgnat.a(s-secsta.o)
 .data.system__secondary_stack_E
                0x0000000024000108        0x2 /home/badr/GNAT/2018-arm-elf/arm-eabi/lib/gnat/ravenscar-sfp-stm32h743nucleo/adalib/libgnat.a(s-secsta.o)
                0x0000000024000108                system__secondary_stack_E
 *fill*         0x000000002400010a        0x2 
 .data.system__secondary_stack__num_of_assigned_stacks
                0x000000002400010c        0x4 /home/badr/GNAT/2018-arm-elf/arm-eabi/lib/gnat/ravenscar-sfp-stm32h743nucleo/adalib/libgnat.a(s-secsta.o)
                0x000000002400010c                system__secondary_stack__num_of_assigned_stacks
 .data          0x0000000024000110        0x0 /home/badr/GNAT/2018-arm-elf/arm-eabi/lib/gnat/ravenscar-sfp-stm32h743nucleo/adalib/libgnat.a(s-textio.o)
 .data.system__text_io_E
                0x0000000024000110        0x2 /home/badr/GNAT/2018-arm-elf/arm-eabi/lib/gnat/ravenscar-sfp-stm32h743nucleo/adalib/libgnat.a(s-textio.o)
                0x0000000024000110                system__text_io_E
 .data.system__text_io__initialized
                0x0000000024000112        0x1 /home/badr/GNAT/2018-arm-elf/arm-eabi/lib/gnat/ravenscar-sfp-stm32h743nucleo/adalib/libgnat.a(s-textio.o)
                0x0000000024000112                system__text_io__initialized
 .data          0x0000000024000113        0x0 /home/badr/GNAT/2018-arm-elf/arm-eabi/lib/gnat/ravenscar-sfp-stm32h743nucleo/adalib/libgnat.a(start-rom.o)
 .data          0x0000000024000113        0x0 /home/badr/GNAT/2018-arm-elf/arm-eabi/lib/gnat/ravenscar-sfp-stm32h743nucleo/adalib/libgnat.a(s-semiho.o)
 *fill*         0x0000000024000113        0x1 
 .data.system__semihosting_E
                0x0000000024000114        0x2 /home/badr/GNAT/2018-arm-elf/arm-eabi/lib/gnat/ravenscar-sfp-stm32h743nucleo/adalib/libgnat.a(s-semiho.o)
                0x0000000024000114                system__semihosting_E
 .data.system__semihosting__buffer_index
                0x0000000024000116        0x2 /home/badr/GNAT/2018-arm-elf/arm-eabi/lib/gnat/ravenscar-sfp-stm32h743nucleo/adalib/libgnat.a(s-semiho.o)
 .data          0x0000000024000118        0x0 /home/badr/GNAT/2018-arm-elf/arm-eabi/lib/gnat/ravenscar-sfp-stm32h743nucleo/adalib/libgnat.a(start-common.o)
 .data          0x0000000024000118        0x0 /home/badr/GNAT/2018-arm-elf/bin/../lib/gcc/arm-eabi/7.3.1/thumb/v7e-m/fpv5/hard/libgcc.a(_aeabi_ldivmod.o)
 .data          0x0000000024000118        0x0 /home/badr/GNAT/2018-arm-elf/bin/../lib/gcc/arm-eabi/7.3.1/thumb/v7e-m/fpv5/hard/libgcc.a(_aeabi_uldivmod.o)
 .data          0x0000000024000118        0x0 /home/badr/GNAT/2018-arm-elf/bin/../lib/gcc/arm-eabi/7.3.1/thumb/v7e-m/fpv5/hard/libgcc.a(_udivmoddi4.o)
 .data          0x0000000024000118        0x0 /home/badr/GNAT/2018-arm-elf/bin/../lib/gcc/arm-eabi/7.3.1/thumb/v7e-m/fpv5/hard/libgcc.a(_dvmd_tls.o)
                0x0000000024000118                . = ALIGN (0x4)
                0x0000000024000118                __data_end = .
                0x0000000000000046                __data_words = ((__data_end - __data_start) >> 0x2)
                0x000000000800cbe8                __ccmdata_load = (__rom_end + (__data_words << 0x2))

.igot.plt       0x0000000024000118        0x0 load address 0x000000000800cbe8
 .igot.plt      0x0000000024000118        0x0 spi.o

.ccmdata        0x0000000020000000        0x0 load address 0x000000000800cbe8
                0x0000000020000000                __ccmdata_start = .
 *(.ccmdata .ccmdata.*)
                0x0000000020000000                . = ALIGN (0x4)
                0x0000000020000000                __ccmdata_end = .
                0x0000000000000000                __ccmdata_words = ((__ccmdata_end - __ccmdata_start) >> 0x2)

.bss            0x0000000024000118     0x2fa0 load address 0x000000000800cbe8
                0x0000000024000118                . = ALIGN (0x8)
                0x0000000024000118                __bss_start = .
 *(.bss .bss.*)
 .bss           0x0000000024000118        0x0 spi.o
 .bss           0x0000000024000118      0x210 b__spi.o
 .bss           0x0000000024000328        0x0 /home/badr/hackinvent/Ada_Drivers_Library/boards/stm32h743_nucleo/obj/sfp_lib_Debug/libada_drivers_library.a(stm32-board.o)
 .bss.stm32__board__all_leds
                0x0000000024000328       0x24 /home/badr/hackinvent/Ada_Drivers_Library/boards/stm32h743_nucleo/obj/sfp_lib_Debug/libada_drivers_library.a(stm32-board.o)
                0x0000000024000328                stm32__board__all_leds
 .bss.stm32__board__spi4_points
                0x000000002400034c       0x24 /home/badr/hackinvent/Ada_Drivers_Library/boards/stm32h743_nucleo/obj/sfp_lib_Debug/libada_drivers_library.a(stm32-board.o)
                0x000000002400034c                stm32__board__spi4_points
 .bss           0x0000000024000370        0x0 /home/badr/hackinvent/Ada_Drivers_Library/boards/stm32h743_nucleo/obj/sfp_lib_Debug/libada_drivers_library.a(stm32-device.o)
 .bss.stm32__device__pa0
                0x0000000024000370        0xc /home/badr/hackinvent/Ada_Drivers_Library/boards/stm32h743_nucleo/obj/sfp_lib_Debug/libada_drivers_library.a(stm32-device.o)
                0x0000000024000370                stm32__device__pa0
 .bss.stm32__device__pa1
                0x000000002400037c        0xc /home/badr/hackinvent/Ada_Drivers_Library/boards/stm32h743_nucleo/obj/sfp_lib_Debug/libada_drivers_library.a(stm32-device.o)
                0x000000002400037c                stm32__device__pa1
 .bss.stm32__device__pa2
                0x0000000024000388        0xc /home/badr/hackinvent/Ada_Drivers_Library/boards/stm32h743_nucleo/obj/sfp_lib_Debug/libada_drivers_library.a(stm32-device.o)
                0x0000000024000388                stm32__device__pa2
 .bss.stm32__device__pa3
                0x0000000024000394        0xc /home/badr/hackinvent/Ada_Drivers_Library/boards/stm32h743_nucleo/obj/sfp_lib_Debug/libada_drivers_library.a(stm32-device.o)
                0x0000000024000394                stm32__device__pa3
 .bss.stm32__device__pa4
                0x00000000240003a0        0xc /home/badr/hackinvent/Ada_Drivers_Library/boards/stm32h743_nucleo/obj/sfp_lib_Debug/libada_drivers_library.a(stm32-device.o)
                0x00000000240003a0                stm32__device__pa4
 .bss.stm32__device__pa5
                0x00000000240003ac        0xc /home/badr/hackinvent/Ada_Drivers_Library/boards/stm32h743_nucleo/obj/sfp_lib_Debug/libada_drivers_library.a(stm32-device.o)
                0x00000000240003ac                stm32__device__pa5
 .bss.stm32__device__pa6
                0x00000000240003b8        0xc /home/badr/hackinvent/Ada_Drivers_Library/boards/stm32h743_nucleo/obj/sfp_lib_Debug/libada_drivers_library.a(stm32-device.o)
                0x00000000240003b8                stm32__device__pa6
 .bss.stm32__device__pa7
                0x00000000240003c4        0xc /home/badr/hackinvent/Ada_Drivers_Library/boards/stm32h743_nucleo/obj/sfp_lib_Debug/libada_drivers_library.a(stm32-device.o)
                0x00000000240003c4                stm32__device__pa7
 .bss.stm32__device__pa8
                0x00000000240003d0        0xc /home/badr/hackinvent/Ada_Drivers_Library/boards/stm32h743_nucleo/obj/sfp_lib_Debug/libada_drivers_library.a(stm32-device.o)
                0x00000000240003d0                stm32__device__pa8
 .bss.stm32__device__pa9
                0x00000000240003dc        0xc /home/badr/hackinvent/Ada_Drivers_Library/boards/stm32h743_nucleo/obj/sfp_lib_Debug/libada_drivers_library.a(stm32-device.o)
                0x00000000240003dc                stm32__device__pa9
 .bss.stm32__device__pa10
                0x00000000240003e8        0xc /home/badr/hackinvent/Ada_Drivers_Library/boards/stm32h743_nucleo/obj/sfp_lib_Debug/libada_drivers_library.a(stm32-device.o)
                0x00000000240003e8                stm32__device__pa10
 .bss.stm32__device__pa11
                0x00000000240003f4        0xc /home/badr/hackinvent/Ada_Drivers_Library/boards/stm32h743_nucleo/obj/sfp_lib_Debug/libada_drivers_library.a(stm32-device.o)
                0x00000000240003f4                stm32__device__pa11
 .bss.stm32__device__pa12
                0x0000000024000400        0xc /home/badr/hackinvent/Ada_Drivers_Library/boards/stm32h743_nucleo/obj/sfp_lib_Debug/libada_drivers_library.a(stm32-device.o)
                0x0000000024000400                stm32__device__pa12
 .bss.stm32__device__pa13
                0x000000002400040c        0xc /home/badr/hackinvent/Ada_Drivers_Library/boards/stm32h743_nucleo/obj/sfp_lib_Debug/libada_drivers_library.a(stm32-device.o)
                0x000000002400040c                stm32__device__pa13
 .bss.stm32__device__pa14
                0x0000000024000418        0xc /home/badr/hackinvent/Ada_Drivers_Library/boards/stm32h743_nucleo/obj/sfp_lib_Debug/libada_drivers_library.a(stm32-device.o)
                0x0000000024000418                stm32__device__pa14
 .bss.stm32__device__pa15
                0x0000000024000424        0xc /home/badr/hackinvent/Ada_Drivers_Library/boards/stm32h743_nucleo/obj/sfp_lib_Debug/libada_drivers_library.a(stm32-device.o)
                0x0000000024000424                stm32__device__pa15
 .bss.stm32__device__pb0
                0x0000000024000430        0xc /home/badr/hackinvent/Ada_Drivers_Library/boards/stm32h743_nucleo/obj/sfp_lib_Debug/libada_drivers_library.a(stm32-device.o)
                0x0000000024000430                stm32__device(bool *, )
 .bss.stm32__device__pb1
                0x000000002400043c        0xc /home/badr/hackinvent/Ada_Drivers_Library/boards/stm32h743_nucleo/obj/sfp_lib_Debug/libada_drivers_library.a(stm32-device.o)
                0x000000002400043c                stm32__device__pb1
 .bss.stm32__device__pb2
                0x0000000024000448        0xc /home/badr/hackinvent/Ada_Drivers_Library/boards/stm32h743_nucleo/obj/sfp_lib_Debug/libada_drivers_library.a(stm32-device.o)
                0x0000000024000448                stm32__device__pb2
 .bss.stm32__device__pb3
                0x0000000024000454        0xc /home/badr/hackinvent/Ada_Drivers_Library/boards/stm32h743_nucleo/obj/sfp_lib_Debug/libada_drivers_library.a(stm32-device.o)
                0x0000000024000454                stm32__device__pb3
 .bss.stm32__device__pb4
                0x0000000024000460        0xc /home/badr/hackinvent/Ada_Drivers_Library/boards/stm32h743_nucleo/obj/sfp_lib_Debug/libada_drivers_library.a(stm32-device.o)
                0x0000000024000460                stm32__device__pb4
 .bss.stm32__device__pb5
                0x000000002400046c        0xc /home/badr/hackinvent/Ada_Drivers_Library/boards/stm32h743_nucleo/obj/sfp_lib_Debug/libada_drivers_library.a(stm32-device.o)
                0x000000002400046c                stm32__device__pb5
 .bss.stm32__device__pb6
                0x0000000024000478        0xc /home/badr/hackinvent/Ada_Drivers_Library/boards/stm32h743_nucleo/obj/sfp_lib_Debug/libada_drivers_library.a(stm32-device.o)
                0x0000000024000478                stm32__device__pb6
 .bss.stm32__device__pb7
                0x0000000024000484        0xc /home/badr/hackinvent/Ada_Drivers_Library/boards/stm32h743_nucleo/obj/sfp_lib_Debug/libada_drivers_library.a(stm32-device.o)
                0x0000000024000484                stm32__device__pb7
 .bss.stm32__device__pb8
                0x0000000024000490        0xc /home/badr/hackinvent/Ada_Drivers_Library/boards/stm32h743_nucleo/obj/sfp_lib_Debug/libada_drivers_library.a(stm32-device.o)
                0x0000000024000490                stm32__device__pb8
 .bss.stm32__device__pb9
                0x000000002400049c        0xc /home/badr/hackinvent/Ada_Drivers_Library/boards/stm32h743_nucleo/obj/sfp_lib_Debug/libada_drivers_library.a(stm32-device.o)
                0x000000002400049c                stm32__device__pb9
 .bss.stm32__device__pb10
                0x00000000240004a8        0xc /home/badr/hackinvent/Ada_Drivers_Library/boards/stm32h743_nucleo/obj/sfp_lib_Debug/libada_drivers_library.a(stm32-device.o)
                0x00000000240004a8                stm32__device__pb10
 .bss.stm32__device__pb11
                0x00000000240004b4        0xc /home/badr/hackinvent/Ada_Drivers_Library/boards/stm32h743_nucleo/obj/sfp_lib_Debug/libada_drivers_library.a(stm32-device.o)
                0x00000000240004b4                stm32__device__pb11
 .bss.stm32__device__pb12
                0x00000000240004c0        0xc /home/badr/hackinvent/Ada_Drivers_Library/boards/stm32h743_nucleo/obj/sfp_lib_Debug/libada_drivers_library.a(stm32-device.o)
                0x00000000240004c0                stm32__device__pb12
 .bss.stm32__device__pb13
                0x00000000240004cc        0xc /home/badr/hackinvent/Ada_Drivers_Library/boards/stm32h743_nucleo/obj/sfp_lib_Debug/libada_drivers_library.a(stm32-device.o)
                0x00000000240004cc                stm32__device__pb13
 .bss.stm32__device__pb14
                0x00000000240004d8        0xc /home/badr/hackinvent/Ada_Drivers_Library/boards/stm32h743_nucleo/obj/sfp_lib_Debug/libada_drivers_library.a(stm32-device.o)
                0x00000000240004d8                stm32__device__pb14
 .bss.stm32__device__pb15
                0x00000000240004e4        0xc /home/badr/hackinvent/Ada_Drivers_Library/boards/stm32h743_nucleo/obj/sfp_lib_Debug/libada_drivers_library.a(stm32-device.o)
                0x00000000240004e4                stm32__device__pb15
 .bss.stm32__device__pc0
                0x00000000240004f0        0xc /home/badr/hackinvent/Ada_Drivers_Library/boards/stm32h743_nucleo/obj/sfp_lib_Debug/libada_drivers_library.a(stm32-device.o)
                0x00000000240004f0                stm32__device(char *, )
 .bss.stm32__device__pc1
                0x00000000240004fc        0xc /home/badr/hackinvent/Ada_Drivers_Library/boards/stm32h743_nucleo/obj/sfp_lib_Debug/libada_drivers_library.a(stm32-device.o)
                0x00000000240004fc                stm32__device__pc1
 .bss.stm32__device__pc2
                0x0000000024000508        0xc /home/badr/hackinvent/Ada_Drivers_Library/boards/stm32h743_nucleo/obj/sfp_lib_Debug/libada_drivers_library.a(stm32-device.o)
                0x0000000024000508                stm32__device__pc2
 .bss.stm32__device__pc3
                0x0000000024000514        0xc /home/badr/hackinvent/Ada_Drivers_Library/boards/stm32h743_nucleo/obj/sfp_lib_Debug/libada_drivers_library.a(stm32-device.o)
                0x0000000024000514                stm32__device__pc3
 .bss.stm32__device__pc4
                0x0000000024000520        0xc /home/badr/hackinvent/Ada_Drivers_Library/boards/stm32h743_nucleo/obj/sfp_lib_Debug/libada_drivers_library.a(stm32-device.o)
                0x0000000024000520                stm32__device__pc4
 .bss.stm32__device__pc5
                0x000000002400052c        0xc /home/badr/hackinvent/Ada_Drivers_Library/boards/stm32h743_nucleo/obj/sfp_lib_Debug/libada_drivers_library.a(stm32-device.o)
                0x000000002400052c                stm32__device__pc5
 .bss.stm32__device__pc6
                0x0000000024000538        0xc /home/badr/hackinvent/Ada_Drivers_Library/boards/stm32h743_nucleo/obj/sfp_lib_Debug/libada_drivers_library.a(stm32-device.o)
                0x0000000024000538                stm32__device__pc6
 .bss.stm32__device__pc7
                0x0000000024000544        0xc /home/badr/hackinvent/Ada_Drivers_Library/boards/stm32h743_nucleo/obj/sfp_lib_Debug/libada_drivers_library.a(stm32-device.o)
                0x0000000024000544                stm32__device__pc7
 .bss.stm32__device__pc8
                0x0000000024000550        0xc /home/badr/hackinvent/Ada_Drivers_Library/boards/stm32h743_nucleo/obj/sfp_lib_Debug/libada_drivers_library.a(stm32-device.o)
                0x0000000024000550                stm32__device__pc8
 .bss.stm32__device__pc9
                0x000000002400055c        0xc /home/badr/hackinvent/Ada_Drivers_Library/boards/stm32h743_nucleo/obj/sfp_lib_Debug/libada_drivers_library.a(stm32-device.o)
                0x000000002400055c                stm32__device__pc9
 .bss.stm32__device__pc10
                0x0000000024000568        0xc /home/badr/hackinvent/Ada_Drivers_Library/boards/stm32h743_nucleo/obj/sfp_lib_Debug/libada_drivers_library.a(stm32-device.o)
                0x0000000024000568                stm32__device__pc10
 .bss.stm32__device__pc11
                0x0000000024000574        0xc /home/badr/hackinvent/Ada_Drivers_Library/boards/stm32h743_nucleo/obj/sfp_lib_Debug/libada_drivers_library.a(stm32-device.o)
                0x0000000024000574                stm32__device__pc11
 .bss.stm32__device__pc12
                0x0000000024000580        0xc /home/badr/hackinvent/Ada_Drivers_Library/boards/stm32h743_nucleo/obj/sfp_lib_Debug/libada_drivers_library.a(stm32-device.o)
                0x0000000024000580                stm32__device__pc12
 .bss.stm32__device__pc13
                0x000000002400058c        0xc /home/badr/hackinvent/Ada_Drivers_Library/boards/stm32h743_nucleo/obj/sfp_lib_Debug/libada_drivers_library.a(stm32-device.o)
                0x000000002400058c                stm32__device__pc13
 .bss.stm32__device__pc14
                0x0000000024000598        0xc /home/badr/hackinvent/Ada_Drivers_Library/boards/stm32h743_nucleo/obj/sfp_lib_Debug/libada_drivers_library.a(stm32-device.o)
                0x0000000024000598                stm32__device__pc14
 .bss.stm32__device__pc15
                0x00000000240005a4        0xc /home/badr/hackinvent/Ada_Drivers_Library/boards/stm32h743_nucleo/obj/sfp_lib_Debug/libada_drivers_library.a(stm32-device.o)
                0x00000000240005a4                stm32__device__pc15
 .bss.stm32__device__pd0
                0x00000000240005b0        0xc /home/badr/hackinvent/Ada_Drivers_Library/boards/stm32h743_nucleo/obj/sfp_lib_Debug/libada_drivers_library.a(stm32-device.o)
                0x00000000240005b0                stm32__device(double *, )
 .bss.stm32__device__pd1
                0x00000000240005bc        0xc /home/badr/hackinvent/Ada_Drivers_Library/boards/stm32h743_nucleo/obj/sfp_lib_Debug/libada_drivers_library.a(stm32-device.o)
                0x00000000240005bc                stm32__device__pd1
 .bss.stm32__device__pd2
                0x00000000240005c8        0xc /home/badr/hackinvent/Ada_Drivers_Library/boards/stm32h743_nucleo/obj/sfp_lib_Debug/libada_drivers_library.a(stm32-device.o)
                0x00000000240005c8                stm32__device__pd2
 .bss.stm32__device__pd3
                0x00000000240005d4        0xc /home/badr/hackinvent/Ada_Drivers_Library/boards/stm32h743_nucleo/obj/sfp_lib_Debug/libada_drivers_library.a(stm32-device.o)
                0x00000000240005d4                stm32__device__pd3
 .bss.stm32__device__pd4
                0x00000000240005e0        0xc /home/badr/hackinvent/Ada_Drivers_Library/boards/stm32h743_nucleo/obj/sfp_lib_Debug/libada_drivers_library.a(stm32-device.o)
                0x00000000240005e0                stm32__device__pd4
 .bss.stm32__device__pd5
                0x00000000240005ec        0xc /home/badr/hackinvent/Ada_Drivers_Library/boards/stm32h743_nucleo/obj/sfp_lib_Debug/libada_drivers_library.a(stm32-device.o)
                0x00000000240005ec                stm32__device__pd5
 .bss.stm32__device__pd6
                0x00000000240005f8        0xc /home/badr/hackinvent/Ada_Drivers_Library/boards/stm32h743_nucleo/obj/sfp_lib_Debug/libada_drivers_library.a(stm32-device.o)
                0x00000000240005f8                stm32__device__pd6
 .bss.stm32__device__pd7
                0x0000000024000604        0xc /home/badr/hackinvent/Ada_Drivers_Library/boards/stm32h743_nucleo/obj/sfp_lib_Debug/libada_drivers_library.a(stm32-device.o)
                0x0000000024000604                stm32__device__pd7
 .bss.stm32__device__pd8
                0x0000000024000610        0xc /home/badr/hackinvent/Ada_Drivers_Library/boards/stm32h743_nucleo/obj/sfp_lib_Debug/libada_drivers_library.a(stm32-device.o)
                0x0000000024000610                stm32__device__pd8
 .bss.stm32__device__pd9
                0x000000002400061c        0xc /home/badr/hackinvent/Ada_Drivers_Library/boards/stm32h743_nucleo/obj/sfp_lib_Debug/libada_drivers_library.a(stm32-device.o)
                0x000000002400061c                stm32__device__pd9
 .bss.stm32__device__pd10
                0x0000000024000628        0xc /home/badr/hackinvent/Ada_Drivers_Library/boards/stm32h743_nucleo/obj/sfp_lib_Debug/libada_drivers_library.a(stm32-device.o)
                0x0000000024000628                stm32__device__pd10
 .bss.stm32__device__pd11
                0x0000000024000634        0xc /home/badr/hackinvent/Ada_Drivers_Library/boards/stm32h743_nucleo/obj/sfp_lib_Debug/libada_drivers_library.a(stm32-device.o)
                0x0000000024000634                stm32__device__pd11
 .bss.stm32__device__pd12
                0x0000000024000640        0xc /home/badr/hackinvent/Ada_Drivers_Library/boards/stm32h743_nucleo/obj/sfp_lib_Debug/libada_drivers_library.a(stm32-device.o)
                0x0000000024000640                stm32__device__pd12
 .bss.stm32__device__pd13
                0x000000002400064c        0xc /home/badr/hackinvent/Ada_Drivers_Library/boards/stm32h743_nucleo/obj/sfp_lib_Debug/libada_drivers_library.a(stm32-device.o)
                0x000000002400064c                stm32__device__pd13
 .bss.stm32__device__pd14
                0x0000000024000658        0xc /home/badr/hackinvent/Ada_Drivers_Library/boards/stm32h743_nucleo/obj/sfp_lib_Debug/libada_drivers_library.a(stm32-device.o)
                0x0000000024000658                stm32__device__pd14
 .bss.stm32__device__pd15
                0x0000000024000664        0xc /home/badr/hackinvent/Ada_Drivers_Library/boards/stm32h743_nucleo/obj/sfp_lib_Debug/libada_drivers_library.a(stm32-device.o)
                0x0000000024000664                stm32__device__pd15
 .bss.stm32__device__pe0
                0x0000000024000670        0xc /home/badr/hackinvent/Ada_Drivers_Library/boards/stm32h743_nucleo/obj/sfp_lib_Debug/libada_drivers_library.a(stm32-device.o)
                0x0000000024000670                stm32__device__pe0
 .bss.stm32__device__pe1
                0x000000002400067c        0xc /home/badr/hackinvent/Ada_Drivers_Library/boards/stm32h743_nucleo/obj/sfp_lib_Debug/libada_drivers_library.a(stm32-device.o)
                0x000000002400067c                stm32__device__pe1
 .bss.stm32__device__pe2
                0x0000000024000688        0xc /home/badr/hackinvent/Ada_Drivers_Library/boards/stm32h743_nucleo/obj/sfp_lib_Debug/libada_drivers_library.a(stm32-device.o)
                0x0000000024000688                stm32__device__pe2
 .bss.stm32__device__pe3
                0x0000000024000694        0xc /home/badr/hackinvent/Ada_Drivers_Library/boards/stm32h743_nucleo/obj/sfp_lib_Debug/libada_drivers_library.a(stm32-device.o)
                0x0000000024000694                stm32__device__pe3
 .bss.stm32__device__pe4
                0x00000000240006a0        0xc /home/badr/hackinvent/Ada_Drivers_Library/boards/stm32h743_nucleo/obj/sfp_lib_Debug/libada_drivers_library.a(stm32-device.o)
                0x00000000240006a0                stm32__device__pe4
 .bss.stm32__device__pe5
                0x00000000240006ac        0xc /home/badr/hackinvent/Ada_Drivers_Library/boards/stm32h743_nucleo/obj/sfp_lib_Debug/libada_drivers_library.a(stm32-device.o)
                0x00000000240006ac                stm32__device__pe5
 .bss.stm32__device__pe6
                0x00000000240006b8        0xc /home/badr/hackinvent/Ada_Drivers_Library/boards/stm32h743_nucleo/obj/sfp_lib_Debug/libada_drivers_library.a(stm32-device.o)
                0x00000000240006b8                stm32__device__pe6
 .bss.stm32__device__pe7
                0x00000000240006c4        0xc /home/badr/hackinvent/Ada_Drivers_Library/boards/stm32h743_nucleo/obj/sfp_lib_Debug/libada_drivers_library.a(stm32-device.o)
                0x00000000240006c4                stm32__device__pe7
 .bss.stm32__device__pe8
                0x00000000240006d0        0xc /home/badr/hackinvent/Ada_Drivers_Library/boards/stm32h743_nucleo/obj/sfp_lib_Debug/libada_drivers_library.a(stm32-device.o)
                0x00000000240006d0                stm32__device__pe8
 .bss.stm32__device__pe9
                0x00000000240006dc        0xc /home/badr/hackinvent/Ada_Drivers_Library/boards/stm32h743_nucleo/obj/sfp_lib_Debug/libada_drivers_library.a(stm32-device.o)
                0x00000000240006dc                stm32__device__pe9
 .bss.stm32__device__pe10
                0x00000000240006e8        0xc /home/badr/hackinvent/Ada_Drivers_Library/boards/stm32h743_nucleo/obj/sfp_lib_Debug/libada_drivers_library.a(stm32-device.o)
                0x00000000240006e8                stm32__device__pe10
 .bss.stm32__device__pe11
                0x00000000240006f4        0xc /home/badr/hackinvent/Ada_Drivers_Library/boards/stm32h743_nucleo/obj/sfp_lib_Debug/libada_drivers_library.a(stm32-device.o)
                0x00000000240006f4                stm32__device__pe11
 .bss.stm32__device__pe12
                0x0000000024000700        0xc /home/badr/hackinvent/Ada_Drivers_Library/boards/stm32h743_nucleo/obj/sfp_lib_Debug/libada_drivers_library.a(stm32-device.o)
                0x0000000024000700                stm32__device__pe12
 .bss.stm32__device__pe13
                0x000000002400070c        0xc /home/badr/hackinvent/Ada_Drivers_Library/boards/stm32h743_nucleo/obj/sfp_lib_Debug/libada_drivers_library.a(stm32-device.o)
                0x000000002400070c                stm32__device__pe13
 .bss.stm32__device__pe14
                0x0000000024000718        0xc /home/badr/hackinvent/Ada_Drivers_Library/boards/stm32h743_nucleo/obj/sfp_lib_Debug/libada_drivers_library.a(stm32-device.o)
                0x0000000024000718                stm32__device__pe14
 .bss.stm32__device__pe15
                0x0000000024000724        0xc /home/badr/hackinvent/Ada_Drivers_Library/boards/stm32h743_nucleo/obj/sfp_lib_Debug/libada_drivers_library.a(stm32-device.o)
                0x0000000024000724                stm32__device__pe15
 .bss.stm32__device__pf0
                0x0000000024000730        0xc /home/badr/hackinvent/Ada_Drivers_Library/boards/stm32h743_nucleo/obj/sfp_lib_Debug/libada_drivers_library.a(stm32-device.o)
                0x0000000024000730                stm32__device(float *, )
 .bss.stm32__device__pf1
                0x000000002400073c        0xc /home/badr/hackinvent/Ada_Drivers_Library/boards/stm32h743_nucleo/obj/sfp_lib_Debug/libada_drivers_library.a(stm32-device.o)
                0x000000002400073c                stm32__device__pf1
 .bss.stm32__device__pf2
                0x0000000024000748        0xc /home/badr/hackinvent/Ada_Drivers_Library/boards/stm32h743_nucleo/obj/sfp_lib_Debug/libada_drivers_library.a(stm32-device.o)
                0x0000000024000748                stm32__device__pf2
 .bss.stm32__device__pf3
                0x0000000024000754        0xc /home/badr/hackinvent/Ada_Drivers_Library/boards/stm32h743_nucleo/obj/sfp_lib_Debug/libada_drivers_library.a(stm32-device.o)
                0x0000000024000754                stm32__device__pf3
 .bss.stm32__device__pf4
                0x0000000024000760        0xc /home/badr/hackinvent/Ada_Drivers_Library/boards/stm32h743_nucleo/obj/sfp_lib_Debug/libada_drivers_library.a(stm32-device.o)
                0x0000000024000760                stm32__device__pf4
 .bss.stm32__device__pf5
                0x000000002400076c        0xc /home/badr/hackinvent/Ada_Drivers_Library/boards/stm32h743_nucleo/obj/sfp_lib_Debug/libada_drivers_library.a(stm32-device.o)
                0x000000002400076c                stm32__device__pf5
 .bss.stm32__device__pf6
                0x0000000024000778        0xc /home/badr/hackinvent/Ada_Drivers_Library/boards/stm32h743_nucleo/obj/sfp_lib_Debug/libada_drivers_library.a(stm32-device.o)
                0x0000000024000778                stm32__device__pf6
 .bss.stm32__device__pf7
                0x0000000024000784        0xc /home/badr/hackinvent/Ada_Drivers_Library/boards/stm32h743_nucleo/obj/sfp_lib_Debug/libada_drivers_library.a(stm32-device.o)
                0x0000000024000784                stm32__device__pf7
 .bss.stm32__device__pf8
                0x0000000024000790        0xc /home/badr/hackinvent/Ada_Drivers_Library/boards/stm32h743_nucleo/obj/sfp_lib_Debug/libada_drivers_library.a(stm32-device.o)
                0x0000000024000790                stm32__device__pf8
 .bss.stm32__device__pf9
                0x000000002400079c        0xc /home/badr/hackinvent/Ada_Drivers_Library/boards/stm32h743_nucleo/obj/sfp_lib_Debug/libada_drivers_library.a(stm32-device.o)
                0x000000002400079c                stm32__device__pf9
 .bss.stm32__device__pf10
                0x00000000240007a8        0xc /home/badr/hackinvent/Ada_Drivers_Library/boards/stm32h743_nucleo/obj/sfp_lib_Debug/libada_drivers_library.a(stm32-device.o)
                0x00000000240007a8                stm32__device__pf10
 .bss.stm32__device__pf11
                0x00000000240007b4        0xc /home/badr/hackinvent/Ada_Drivers_Library/boards/stm32h743_nucleo/obj/sfp_lib_Debug/libada_drivers_library.a(stm32-device.o)
                0x00000000240007b4                stm32__device__pf11
 .bss.stm32__device__pf12
                0x00000000240007c0        0xc /home/badr/hackinvent/Ada_Drivers_Library/boards/stm32h743_nucleo/obj/sfp_lib_Debug/libada_drivers_library.a(stm32-device.o)
                0x00000000240007c0                stm32__device__pf12
 .bss.stm32__device__pf13
                0x00000000240007cc        0xc /home/badr/hackinvent/Ada_Drivers_Library/boards/stm32h743_nucleo/obj/sfp_lib_Debug/libada_drivers_library.a(stm32-device.o)
                0x00000000240007cc                stm32__device__pf13
 .bss.stm32__device__pf14
                0x00000000240007d8        0xc /home/badr/hackinvent/Ada_Drivers_Library/boards/stm32h743_nucleo/obj/sfp_lib_Debug/libada_drivers_library.a(stm32-device.o)
                0x00000000240007d8                stm32__device__pf14
 .bss.stm32__device__pf15
                0x00000000240007e4        0xc /home/badr/hackinvent/Ada_Drivers_Library/boards/stm32h743_nucleo/obj/sfp_lib_Debug/libada_drivers_library.a(stm32-device.o)
                0x00000000240007e4                stm32__device__pf15
 .bss.stm32__device__pg0
                0x00000000240007f0        0xc /home/badr/hackinvent/Ada_Drivers_Library/boards/stm32h743_nucleo/obj/sfp_lib_Debug/libada_drivers_library.a(stm32-device.o)
                0x00000000240007f0                stm32__device__pg0
 .bss.stm32__device__pg1
                0x00000000240007fc        0xc /home/badr/hackinvent/Ada_Drivers_Library/boards/stm32h743_nucleo/obj/sfp_lib_Debug/libada_drivers_library.a(stm32-device.o)
                0x00000000240007fc                stm32__device__pg1
 .bss.stm32__device__pg2
                0x0000000024000808        0xc /home/badr/hackinvent/Ada_Drivers_Library/boards/stm32h743_nucleo/obj/sfp_lib_Debug/libada_drivers_library.a(stm32-device.o)
                0x0000000024000808                stm32__device__pg2
 .bss.stm32__device__pg3
                0x0000000024000814        0xc /home/badr/hackinvent/Ada_Drivers_Library/boards/stm32h743_nucleo/obj/sfp_lib_Debug/libada_drivers_library.a(stm32-device.o)
                0x0000000024000814                stm32__device__pg3
 .bss.stm32__device__pg4
                0x0000000024000820        0xc /home/badr/hackinvent/Ada_Drivers_Library/boards/stm32h743_nucleo/obj/sfp_lib_Debug/libada_drivers_library.a(stm32-device.o)
                0x0000000024000820                stm32__device__pg4
 .bss.stm32__device__pg5
                0x000000002400082c        0xc /home/badr/hackinvent/Ada_Drivers_Library/boards/stm32h743_nucleo/obj/sfp_lib_Debug/libada_drivers_library.a(stm32-device.o)
                0x000000002400082c                stm32__device__pg5
 .bss.stm32__device__pg6
                0x0000000024000838        0xc /home/badr/hackinvent/Ada_Drivers_Library/boards/stm32h743_nucleo/obj/sfp_lib_Debug/libada_drivers_library.a(stm32-device.o)
                0x0000000024000838                stm32__device__pg6
 .bss.stm32__device__pg7
                0x0000000024000844        0xc /home/badr/hackinvent/Ada_Drivers_Library/boards/stm32h743_nucleo/obj/sfp_lib_Debug/libada_drivers_library.a(stm32-device.o)
                0x0000000024000844                stm32__device__pg7
 .bss.stm32__device__pg8
                0x0000000024000850        0xc /home/badr/hackinvent/Ada_Drivers_Library/boards/stm32h743_nucleo/obj/sfp_lib_Debug/libada_drivers_library.a(stm32-device.o)
                0x0000000024000850                stm32__device__pg8
 .bss.stm32__device__pg9
                0x000000002400085c        0xc /home/badr/hackinvent/Ada_Drivers_Library/boards/stm32h743_nucleo/obj/sfp_lib_Debug/libada_drivers_library.a(stm32-device.o)
                0x000000002400085c                stm32__device__pg9
 .bss.stm32__device__pg10
                0x0000000024000868        0xc /home/badr/hackinvent/Ada_Drivers_Library/boards/stm32h743_nucleo/obj/sfp_lib_Debug/libada_drivers_library.a(stm32-device.o)
                0x0000000024000868                stm32__device__pg10
 .bss.stm32__device__pg11
                0x0000000024000874        0xc /home/badr/hackinvent/Ada_Drivers_Library/boards/stm32h743_nucleo/obj/sfp_lib_Debug/libada_drivers_library.a(stm32-device.o)
                0x0000000024000874                stm32__device__pg11
 .bss.stm32__device__pg12
                0x0000000024000880        0xc /home/badr/hackinvent/Ada_Drivers_Library/boards/stm32h743_nucleo/obj/sfp_lib_Debug/libada_drivers_library.a(stm32-device.o)
                0x0000000024000880                stm32__device__pg12
 .bss.stm32__device__pg13
                0x000000002400088c        0xc /home/badr/hackinvent/Ada_Drivers_Library/boards/stm32h743_nucleo/obj/sfp_lib_Debug/libada_drivers_library.a(stm32-device.o)
                0x000000002400088c                stm32__device__pg13
 .bss.stm32__device__pg14
                0x0000000024000898        0xc /home/badr/hackinvent/Ada_Drivers_Library/boards/stm32h743_nucleo/obj/sfp_lib_Debug/libada_drivers_library.a(stm32-device.o)
                0x0000000024000898                stm32__device__pg14
 .bss.stm32__device__pg15
                0x00000000240008a4        0xc /home/badr/hackinvent/Ada_Drivers_Library/boards/stm32h743_nucleo/obj/sfp_lib_Debug/libada_drivers_library.a(stm32-device.o)
                0x00000000240008a4                stm32__device__pg15
 .bss.stm32__device__ph0
                0x00000000240008b0        0xc /home/badr/hackinvent/Ada_Drivers_Library/boards/stm32h743_nucleo/obj/sfp_lib_Debug/libada_drivers_library.a(stm32-device.o)
                0x00000000240008b0                stm32__device__ph0
 .bss.stm32__device__ph1
                0x00000000240008bc        0xc /home/badr/hackinvent/Ada_Drivers_Library/boards/stm32h743_nucleo/obj/sfp_lib_Debug/libada_drivers_library.a(stm32-device.o)
                0x00000000240008bc                stm32__device__ph1
 .bss.stm32__device__ph2
                0x00000000240008c8        0xc /home/badr/hackinvent/Ada_Drivers_Library/boards/stm32h743_nucleo/obj/sfp_lib_Debug/libada_drivers_library.a(stm32-device.o)
                0x00000000240008c8                stm32__device__ph2
 .bss.stm32__device__ph3
                0x00000000240008d4        0xc /home/badr/hackinvent/Ada_Drivers_Library/boards/stm32h743_nucleo/obj/sfp_lib_Debug/libada_drivers_library.a(stm32-device.o)
                0x00000000240008d4                stm32__device__ph3
 .bss.stm32__device__ph4
                0x00000000240008e0        0xc /home/badr/hackinvent/Ada_Drivers_Library/boards/stm32h743_nucleo/obj/sfp_lib_Debug/libada_drivers_library.a(stm32-device.o)
                0x00000000240008e0                stm32__device__ph4
 .bss.stm32__device__ph5
                0x00000000240008ec        0xc /home/badr/hackinvent/Ada_Drivers_Library/boards/stm32h743_nucleo/obj/sfp_lib_Debug/libada_drivers_library.a(stm32-device.o)
                0x00000000240008ec                stm32__device__ph5
 .bss.stm32__device__ph6
                0x00000000240008f8        0xc /home/badr/hackinvent/Ada_Drivers_Library/boards/stm32h743_nucleo/obj/sfp_lib_Debug/libada_drivers_library.a(stm32-device.o)
                0x00000000240008f8                stm32__device__ph6
 .bss.stm32__device__ph7
                0x0000000024000904        0xc /home/badr/hackinvent/Ada_Drivers_Library/boards/stm32h743_nucleo/obj/sfp_lib_Debug/libada_drivers_library.a(stm32-device.o)
                0x0000000024000904                stm32__device__ph7
 .bss.stm32__device__ph8
                0x0000000024000910        0xc /home/badr/hackinvent/Ada_Drivers_Library/boards/stm32h743_nucleo/obj/sfp_lib_Debug/libada_drivers_library.a(stm32-device.o)
                0x0000000024000910                stm32__device__ph8
 .bss.stm32__device__ph9
                0x000000002400091c        0xc /home/badr/hackinvent/Ada_Drivers_Library/boards/stm32h743_nucleo/obj/sfp_lib_Debug/libada_drivers_library.a(stm32-device.o)
                0x000000002400091c                stm32__device__ph9
 .bss.stm32__device__ph10
                0x0000000024000928        0xc /home/badr/hackinvent/Ada_Drivers_Library/boards/stm32h743_nucleo/obj/sfp_lib_Debug/libada_drivers_library.a(stm32-device.o)
                0x0000000024000928                stm32__device__ph10
 .bss.stm32__device__ph11
                0x0000000024000934        0xc /home/badr/hackinvent/Ada_Drivers_Library/boards/stm32h743_nucleo/obj/sfp_lib_Debug/libada_drivers_library.a(stm32-device.o)
                0x0000000024000934                stm32__device__ph11
 .bss.stm32__device__ph12
                0x0000000024000940        0xc /home/badr/hackinvent/Ada_Drivers_Library/boards/stm32h743_nucleo/obj/sfp_lib_Debug/libada_drivers_library.a(stm32-device.o)
                0x0000000024000940                stm32__device__ph12
 .bss.stm32__device__ph13
                0x000000002400094c        0xc /home/badr/hackinvent/Ada_Drivers_Library/boards/stm32h743_nucleo/obj/sfp_lib_Debug/libada_drivers_library.a(stm32-device.o)
                0x000000002400094c                stm32__device__ph13
 .bss.stm32__device__ph14
                0x0000000024000958        0xc /home/badr/hackinvent/Ada_Drivers_Library/boards/stm32h743_nucleo/obj/sfp_lib_Debug/libada_drivers_library.a(stm32-device.o)
                0x0000000024000958                stm32__device__ph14
 .bss.stm32__device__ph15
                0x0000000024000964        0xc /home/badr/hackinvent/Ada_Drivers_Library/boards/stm32h743_nucleo/obj/sfp_lib_Debug/libada_drivers_library.a(stm32-device.o)
                0x0000000024000964                stm32__device__ph15
 .bss.stm32__device__pi0
                0x0000000024000970        0xc /home/badr/hackinvent/Ada_Drivers_Library/boards/stm32h743_nucleo/obj/sfp_lib_Debug/libada_drivers_library.a(stm32-device.o)
                0x0000000024000970                stm32__device(int *, )
 .bss.stm32__device__pi1
                0x000000002400097c        0xc /home/badr/hackinvent/Ada_Drivers_Library/boards/stm32h743_nucleo/obj/sfp_lib_Debug/libada_drivers_library.a(stm32-device.o)
                0x000000002400097c                stm32__device__pi1
 .bss.stm32__device__pi2
                0x0000000024000988        0xc /home/badr/hackinvent/Ada_Drivers_Library/boards/stm32h743_nucleo/obj/sfp_lib_Debug/libada_drivers_library.a(stm32-device.o)
                0x0000000024000988                stm32__device__pi2
 .bss.stm32__device__pi3
                0x0000000024000994        0xc /home/badr/hackinvent/Ada_Drivers_Library/boards/stm32h743_nucleo/obj/sfp_lib_Debug/libada_drivers_library.a(stm32-device.o)
                0x0000000024000994                stm32__device__pi3
 .bss.stm32__device__pi4
                0x00000000240009a0        0xc /home/badr/hackinvent/Ada_Drivers_Library/boards/stm32h743_nucleo/obj/sfp_lib_Debug/libada_drivers_library.a(stm32-device.o)
                0x00000000240009a0                stm32__device__pi4
 .bss.stm32__device__pi5
                0x00000000240009ac        0xc /home/badr/hackinvent/Ada_Drivers_Library/boards/stm32h743_nucleo/obj/sfp_lib_Debug/libada_drivers_library.a(stm32-device.o)
                0x00000000240009ac                stm32__device__pi5
 .bss.stm32__device__pi6
                0x00000000240009b8        0xc /home/badr/hackinvent/Ada_Drivers_Library/boards/stm32h743_nucleo/obj/sfp_lib_Debug/libada_drivers_library.a(stm32-device.o)
                0x00000000240009b8                stm32__device__pi6
 .bss.stm32__device__pi7
                0x00000000240009c4        0xc /home/badr/hackinvent/Ada_Drivers_Library/boards/stm32h743_nucleo/obj/sfp_lib_Debug/libada_drivers_library.a(stm32-device.o)
                0x00000000240009c4                stm32__device__pi7
 .bss.stm32__device__pi8
                0x00000000240009d0        0xc /home/badr/hackinvent/Ada_Drivers_Library/boards/stm32h743_nucleo/obj/sfp_lib_Debug/libada_drivers_library.a(stm32-device.o)
                0x00000000240009d0                stm32__device__pi8
 .bss.stm32__device__pi9
                0x00000000240009dc        0xc /home/badr/hackinvent/Ada_Drivers_Library/boards/stm32h743_nucleo/obj/sfp_lib_Debug/libada_drivers_library.a(stm32-device.o)
                0x00000000240009dc                stm32__device__pi9
 .bss.stm32__device__pi10
                0x00000000240009e8        0xc /home/badr/hackinvent/Ada_Drivers_Library/boards/stm32h743_nucleo/obj/sfp_lib_Debug/libada_drivers_library.a(stm32-device.o)
                0x00000000240009e8                stm32__device__pi10
 .bss.stm32__device__pi11
                0x00000000240009f4        0xc /home/badr/hackinvent/Ada_Drivers_Library/boards/stm32h743_nucleo/obj/sfp_lib_Debug/libada_drivers_library.a(stm32-device.o)
                0x00000000240009f4                stm32__device__pi11
 .bss.stm32__device__pi12
                0x0000000024000a00        0xc /home/badr/hackinvent/Ada_Drivers_Library/boards/stm32h743_nucleo/obj/sfp_lib_Debug/libada_drivers_library.a(stm32-device.o)
                0x0000000024000a00                stm32__device__pi12
 .bss.stm32__device__pi13
                0x0000000024000a0c        0xc /home/badr/hackinvent/Ada_Drivers_Library/boards/stm32h743_nucleo/obj/sfp_lib_Debug/libada_drivers_library.a(stm32-device.o)
                0x0000000024000a0c                stm32__device__pi13
 .bss.stm32__device__pi14
                0x0000000024000a18        0xc /home/badr/hackinvent/Ada_Drivers_Library/boards/stm32h743_nucleo/obj/sfp_lib_Debug/libada_drivers_library.a(stm32-device.o)
                0x0000000024000a18                stm32__device__pi14
 .bss.stm32__device__pi15
                0x0000000024000a24        0xc /home/badr/hackinvent/Ada_Drivers_Library/boards/stm32h743_nucleo/obj/sfp_lib_Debug/libada_drivers_library.a(stm32-device.o)
                0x0000000024000a24                stm32__device__pi15
 .bss.stm32__device__pj0
                0x0000000024000a30        0xc /home/badr/hackinvent/Ada_Drivers_Library/boards/stm32h743_nucleo/obj/sfp_lib_Debug/libada_drivers_library.a(stm32-device.o)
                0x0000000024000a30                stm32__device__pj0
 .bss.stm32__device__pj1
                0x0000000024000a3c        0xc /home/badr/hackinvent/Ada_Drivers_Library/boards/stm32h743_nucleo/obj/sfp_lib_Debug/libada_drivers_library.a(stm32-device.o)
                0x0000000024000a3c                stm32__device__pj1
 .bss.stm32__device__pj2
                0x0000000024000a48        0xc /home/badr/hackinvent/Ada_Drivers_Library/boards/stm32h743_nucleo/obj/sfp_lib_Debug/libada_drivers_library.a(stm32-device.o)
                0x0000000024000a48                stm32__device__pj2
 .bss.stm32__device__pj3
                0x0000000024000a54        0xc /home/badr/hackinvent/Ada_Drivers_Library/boards/stm32h743_nucleo/obj/sfp_lib_Debug/libada_drivers_library.a(stm32-device.o)
                0x0000000024000a54                stm32__device__pj3
 .bss.stm32__device__pj4
                0x0000000024000a60        0xc /home/badr/hackinvent/Ada_Drivers_Library/boards/stm32h743_nucleo/obj/sfp_lib_Debug/libada_drivers_library.a(stm32-device.o)
                0x0000000024000a60                stm32__device__pj4
 .bss.stm32__device__pj5
                0x0000000024000a6c        0xc /home/badr/hackinvent/Ada_Drivers_Library/boards/stm32h743_nucleo/obj/sfp_lib_Debug/libada_drivers_library.a(stm32-device.o)
                0x0000000024000a6c                stm32__device__pj5
 .bss.stm32__device__pj6
                0x0000000024000a78        0xc /home/badr/hackinvent/Ada_Drivers_Library/boards/stm32h743_nucleo/obj/sfp_lib_Debug/libada_drivers_library.a(stm32-device.o)
                0x0000000024000a78                stm32__device__pj6
 .bss.stm32__device__pj7
                0x0000000024000a84        0xc /home/badr/hackinvent/Ada_Drivers_Library/boards/stm32h743_nucleo/obj/sfp_lib_Debug/libada_drivers_library.a(stm32-device.o)
                0x0000000024000a84                stm32__device__pj7
 .bss.stm32__device__pj8
                0x0000000024000a90        0xc /home/badr/hackinvent/Ada_Drivers_Library/boards/stm32h743_nucleo/obj/sfp_lib_Debug/libada_drivers_library.a(stm32-device.o)
                0x0000000024000a90                stm32__device__pj8
 .bss.stm32__device__pj9
                0x0000000024000a9c        0xc /home/badr/hackinvent/Ada_Drivers_Library/boards/stm32h743_nucleo/obj/sfp_lib_Debug/libada_drivers_library.a(stm32-device.o)
                0x0000000024000a9c                stm32__device__pj9
 .bss.stm32__device__pj10
                0x0000000024000aa8        0xc /home/badr/hackinvent/Ada_Drivers_Library/boards/stm32h743_nucleo/obj/sfp_lib_Debug/libada_drivers_library.a(stm32-device.o)
                0x0000000024000aa8                stm32__device__pj10
 .bss.stm32__device__pj11
                0x0000000024000ab4        0xc /home/badr/hackinvent/Ada_Drivers_Library/boards/stm32h743_nucleo/obj/sfp_lib_Debug/libada_drivers_library.a(stm32-device.o)
                0x0000000024000ab4                stm32__device__pj11
 .bss.stm32__device__pj12
                0x0000000024000ac0        0xc /home/badr/hackinvent/Ada_Drivers_Library/boards/stm32h743_nucleo/obj/sfp_lib_Debug/libada_drivers_library.a(stm32-device.o)
                0x0000000024000ac0                stm32__device__pj12
 .bss.stm32__device__pj13
                0x0000000024000acc        0xc /home/badr/hackinvent/Ada_Drivers_Library/boards/stm32h743_nucleo/obj/sfp_lib_Debug/libada_drivers_library.a(stm32-device.o)
                0x0000000024000acc                stm32__device__pj13
 .bss.stm32__device__pj14
                0x0000000024000ad8        0xc /home/badr/hackinvent/Ada_Drivers_Library/boards/stm32h743_nucleo/obj/sfp_lib_Debug/libada_drivers_library.a(stm32-device.o)
                0x0000000024000ad8                stm32__device__pj14
 .bss.stm32__device__pj15
                0x0000000024000ae4        0xc /home/badr/hackinvent/Ada_Drivers_Library/boards/stm32h743_nucleo/obj/sfp_lib_Debug/libada_drivers_library.a(stm32-device.o)
                0x0000000024000ae4                stm32__device__pj15
 .bss.stm32__device__pk0
                0x0000000024000af0        0xc /home/badr/hackinvent/Ada_Drivers_Library/boards/stm32h743_nucleo/obj/sfp_lib_Debug/libada_drivers_library.a(stm32-device.o)
                0x0000000024000af0                stm32__device__pk0
 .bss.stm32__device__pk1
                0x0000000024000afc        0xc /home/badr/hackinvent/Ada_Drivers_Library/boards/stm32h743_nucleo/obj/sfp_lib_Debug/libada_drivers_library.a(stm32-device.o)
                0x0000000024000afc                stm32__device__pk1
 .bss.stm32__device__pk2
                0x0000000024000b08        0xc /home/badr/hackinvent/Ada_Drivers_Library/boards/stm32h743_nucleo/obj/sfp_lib_Debug/libada_drivers_library.a(stm32-device.o)
                0x0000000024000b08                stm32__device__pk2
 .bss.stm32__device__pk3
                0x0000000024000b14        0xc /home/badr/hackinvent/Ada_Drivers_Library/boards/stm32h743_nucleo/obj/sfp_lib_Debug/libada_drivers_library.a(stm32-device.o)
                0x0000000024000b14                stm32__device__pk3
 .bss.stm32__device__pk4
                0x0000000024000b20        0xc /home/badr/hackinvent/Ada_Drivers_Library/boards/stm32h743_nucleo/obj/sfp_lib_Debug/libada_drivers_library.a(stm32-device.o)
                0x0000000024000b20                stm32__device__pk4
 .bss.stm32__device__pk5
                0x0000000024000b2c        0xc /home/badr/hackinvent/Ada_Drivers_Library/boards/stm32h743_nucleo/obj/sfp_lib_Debug/libada_drivers_library.a(stm32-device.o)
                0x0000000024000b2c                stm32__device__pk5
 .bss.stm32__device__pk6
                0x0000000024000b38        0xc /home/badr/hackinvent/Ada_Drivers_Library/boards/stm32h743_nucleo/obj/sfp_lib_Debug/libada_drivers_library.a(stm32-device.o)
                0x0000000024000b38                stm32__device__pk6
 .bss.stm32__device__pk7
                0x0000000024000b44        0xc /home/badr/hackinvent/Ada_Drivers_Library/boards/stm32h743_nucleo/obj/sfp_lib_Debug/libada_drivers_library.a(stm32-device.o)
                0x0000000024000b44                stm32__device__pk7
 .bss.stm32__device__pk8
                0x0000000024000b50        0xc /home/badr/hackinvent/Ada_Drivers_Library/boards/stm32h743_nucleo/obj/sfp_lib_Debug/libada_drivers_library.a(stm32-device.o)
                0x0000000024000b50                stm32__device__pk8
 .bss.stm32__device__pk9
                0x0000000024000b5c        0xc /home/badr/hackinvent/Ada_Drivers_Library/boards/stm32h743_nucleo/obj/sfp_lib_Debug/libada_drivers_library.a(stm32-device.o)
                0x0000000024000b5c                stm32__device__pk9
 .bss.stm32__device__pk10
                0x0000000024000b68        0xc /home/badr/hackinvent/Ada_Drivers_Library/boards/stm32h743_nucleo/obj/sfp_lib_Debug/libada_drivers_library.a(stm32-device.o)
                0x0000000024000b68                stm32__device__pk10
 .bss.stm32__device__pk11
                0x0000000024000b74        0xc /home/badr/hackinvent/Ada_Drivers_Library/boards/stm32h743_nucleo/obj/sfp_lib_Debug/libada_drivers_library.a(stm32-device.o)
                0x0000000024000b74                stm32__device__pk11
 .bss.stm32__device__pk12
                0x0000000024000b80        0xc /home/badr/hackinvent/Ada_Drivers_Library/boards/stm32h743_nucleo/obj/sfp_lib_Debug/libada_drivers_library.a(stm32-device.o)
                0x0000000024000b80                stm32__device__pk12
 .bss.stm32__device__pk13
                0x0000000024000b8c        0xc /home/badr/hackinvent/Ada_Drivers_Library/boards/stm32h743_nucleo/obj/sfp_lib_Debug/libada_drivers_library.a(stm32-device.o)
                0x0000000024000b8c                stm32__device__pk13
 .bss.stm32__device__pk14
                0x0000000024000b98        0xc /home/badr/hackinvent/Ada_Drivers_Library/boards/stm32h743_nucleo/obj/sfp_lib_Debug/libada_drivers_library.a(stm32-device.o)
                0x0000000024000b98                stm32__device__pk14
 .bss.stm32__device__pk15
                0x0000000024000ba4        0xc /home/badr/hackinvent/Ada_Drivers_Library/boards/stm32h743_nucleo/obj/sfp_lib_Debug/libada_drivers_library.a(stm32-device.o)
                0x0000000024000ba4                stm32__device__pk15
 .bss.stm32__device__spi_1
                0x0000000024000bb0        0x8 /home/badr/hackinvent/Ada_Drivers_Library/boards/stm32h743_nucleo/obj/sfp_lib_Debug/libada_drivers_library.a(stm32-device.o)
                0x0000000024000bb0                stm32__device__spi_1
 .bss.stm32__device__spi_2
                0x0000000024000bb8        0x8 /home/badr/hackinvent/Ada_Drivers_Library/boards/stm32h743_nucleo/obj/sfp_lib_Debug/libada_drivers_library.a(stm32-device.o)
                0x0000000024000bb8                stm32__device__spi_2
 .bss.stm32__device__spi_3
                0x0000000024000bc0        0x8 /home/badr/hackinvent/Ada_Drivers_Library/boards/stm32h743_nucleo/obj/sfp_lib_Debug/libada_drivers_library.a(stm32-device.o)
                0x0000000024000bc0                stm32__device__spi_3
 .bss.stm32__device__spi_4
                0x0000000024000bc8        0x8 /home/badr/hackinvent/Ada_Drivers_Library/boards/stm32h743_nucleo/obj/sfp_lib_Debug/libada_drivers_library.a(stm32-device.o)
                0x0000000024000bc8                stm32__device__spi_4
 .bss.stm32__device__spi_5
                0x0000000024000bd0        0x8 /home/badr/hackinvent/Ada_Drivers_Library/boards/stm32h743_nucleo/obj/sfp_lib_Debug/libada_drivers_library.a(stm32-device.o)
                0x0000000024000bd0                stm32__device__spi_5
 .bss.stm32__device__spi_6
                0x0000000024000bd8        0x8 /home/badr/hackinvent/Ada_Drivers_Library/boards/stm32h743_nucleo/obj/sfp_lib_Debug/libada_drivers_library.a(stm32-device.o)
                0x0000000024000bd8                stm32__device__spi_6
 .bss.stm32__device__sysfreq
                0x0000000024000be0       0x1c /home/badr/hackinvent/Ada_Drivers_Library/boards/stm32h743_nucleo/obj/sfp_lib_Debug/libada_drivers_library.a(stm32-device.o)
                0x0000000024000be0                stm32__device__sysfreq
 .bss           0x0000000024000bfc        0x0 /home/badr/hackinvent/Ada_Drivers_Library/boards/stm32h743_nucleo/obj/sfp_lib_Debug/libada_drivers_library.a(stm32-exti.o)
 .bss           0x0000000024000bfc        0x0 /home/badr/hackinvent/Ada_Drivers_Library/boards/stm32h743_nucleo/obj/sfp_lib_Debug/libada_drivers_library.a(stm32-gpio.o)
 .bss           0x0000000024000bfc        0x0 /home/badr/hackinvent/Ada_Drivers_Library/boards/stm32h743_nucleo/obj/sfp_lib_Debug/libada_drivers_library.a(stm32-rcc.o)
 .bss           0x0000000024000bfc        0x0 /home/badr/hackinvent/Ada_Drivers_Library/boards/stm32h743_nucleo/obj/sfp_lib_Debug/libada_drivers_library.a(stm32-spi.o)
 .bss           0x0000000024000bfc        0x0 /home/badr/hackinvent/Ada_Drivers_Library/boards/stm32h743_nucleo/obj/sfp_lib_Debug/libada_drivers_library.a(stm32-syscfg.o)
 .bss           0x0000000024000bfc        0x0 /home/badr/hackinvent/Ada_Drivers_Library/boards/stm32h743_nucleo/obj/sfp_lib_Debug/libada_drivers_library.a(hal-gpio.o)
 .bss           0x0000000024000bfc        0x0 /home/badr/hackinvent/Ada_Drivers_Library/boards/stm32h743_nucleo/obj/sfp_lib_Debug/libada_drivers_library.a(hal-spi.o)
 .bss           0x0000000024000bfc        0x0 /home/badr/GNAT/2018-arm-elf/arm-eabi/lib/gnat/ravenscar-sfp-stm32h743nucleo/adalib/libgnarl.a(a-reatim.o)
 .bss           0x0000000024000bfc        0x0 /home/badr/GNAT/2018-arm-elf/arm-eabi/lib/gnat/ravenscar-sfp-stm32h743nucleo/adalib/libgnarl.a(a-retide.o)
 .bss           0x0000000024000bfc        0x0 /home/badr/GNAT/2018-arm-elf/arm-eabi/lib/gnat/ravenscar-sfp-stm32h743nucleo/adalib/libgnarl.a(s-bbtiev.o)
 .bss           0x0000000024000bfc        0x0 /home/badr/GNAT/2018-arm-elf/arm-eabi/lib/gnat/ravenscar-sfp-stm32h743nucleo/adalib/libgnarl.a(s-bbtime.o)
 .bss           0x0000000024000bfc        0x0 /home/badr/GNAT/2018-arm-elf/arm-eabi/lib/gnat/ravenscar-sfp-stm32h743nucleo/adalib/libgnarl.a(s-taprop.o)
 *fill*         0x0000000024000bfc        0x4 
 .bss.system__task_primitives__operations__idle_stacks
                0x0000000024000c00      0x800 /home/badr/GNAT/2018-arm-elf/arm-eabi/lib/gnat/ravenscar-sfp-stm32h743nucleo/adalib/libgnarl.a(s-taprop.o)
                0x0000000024000c00                system__task_primitives__operations__idle_stacks
 .bss.__gnat_idle_stack_table
                0x0000000024001400        0x4 /home/badr/GNAT/2018-arm-elf/arm-eabi/lib/gnat/ravenscar-sfp-stm32h743nucleo/adalib/libgnarl.a(s-taprop.o)
                0x0000000024001400                __gnat_idle_stack_table
 *fill*         0x0000000024001404        0x4 
 .bss.system__task_primitives__operations__idle_tasks
                0x0000000024001408       0xb8 /home/badr/GNAT/2018-arm-elf/arm-eabi/lib/gnat/ravenscar-sfp-stm32h743nucleo/adalib/libgnarl.a(s-taprop.o)
                0x0000000024001408                system__task_primitives__operations__idle_tasks
 .bss           0x00000000240014c0        0x0 /home/badr/GNAT/2018-arm-elf/arm-eabi/lib/gnat/ravenscar-sfp-stm32h743nucleo/adalib/libgnarl.a(s-tasdeb.o)
 .bss           0x00000000240014c0        0x0 /home/badr/GNAT/2018-arm-elf/arm-eabi/lib/gnat/ravenscar-sfp-stm32h743nucleo/adalib/libgnarl.a(s-taskin.o)
 .bss.system__tasking__environment_task
                0x00000000240014c0       0xb8 /home/badr/GNAT/2018-arm-elf/arm-eabi/lib/gnat/ravenscar-sfp-stm32h743nucleo/adalib/libgnarl.a(s-taskin.o)
 .bss           0x0000000024001578        0x0 /home/badr/GNAT/2018-arm-elf/arm-eabi/lib/gnat/ravenscar-sfp-stm32h743nucleo/adalib/libgnarl.a(s-bbbosu.o)
 .bss.__gnat_alarm_time
                0x0000000024001578        0x4 /home/badr/GNAT/2018-arm-elf/arm-eabi/lib/gnat/ravenscar-sfp-stm32h743nucleo/adalib/libgnarl.a(s-bbbosu.o)
                0x0000000024001578                __gnat_alarm_time
 .bss.system__bb__board_support__next_tick_time
                0x000000002400157c        0x4 /home/badr/GNAT/2018-arm-elf/arm-eabi/lib/gnat/ravenscar-sfp-stm32h743nucleo/adalib/libgnarl.a(s-bbbosu.o)
                0x000000002400157c                system__bb__board_support__next_tick_time
 .bss           0x0000000024001580        0x0 /home/badr/GNAT/2018-arm-elf/arm-eabi/lib/gnat/ravenscar-sfp-stm32h743nucleo/adalib/libgnarl.a(s-bbcppr.o)
 .bss.__gnat_bb_exception_handlers
                0x0000000024001580       0x44 /home/badr/GNAT/2018-arm-elf/arm-eabi/lib/gnat/ravenscar-sfp-stm32h743nucleo/adalib/libgnarl.a(s-bbcppr.o)
                0x0000000024001580                __gnat_bb_exception_handlers
 .bss           0x00000000240015c4        0x0 /home/badr/GNAT/2018-arm-elf/arm-eabi/lib/gnat/ravenscar-sfp-stm32h743nucleo/adalib/libgnarl.a(s-bbinte.o)
 .bss.interrupt_stack_table
                0x00000000240015c4        0x4 /home/badr/GNAT/2018-arm-elf/arm-eabi/lib/gnat/ravenscar-sfp-stm32h743nucleo/adalib/libgnarl.a(s-bbinte.o)
                0x00000000240015c4                interrupt_stack_table
 .bss.system__bb__interrupts__interrupt_handlers_table
                0x00000000240015c8      0x25c /home/badr/GNAT/2018-arm-elf/arm-eabi/lib/gnat/ravenscar-sfp-stm32h743nucleo/adalib/libgnarl.a(s-bbinte.o)
                0x00000000240015c8                system__bb__interrupts__interrupt_handlers_table
 .bss           0x0000000024001824        0x0 /home/badr/GNAT/2018-arm-elf/arm-eabi/lib/gnat/ravenscar-sfp-stm32h743nucleo/adalib/libgnarl.a(s-bbprot.o)
 .bss           0x0000000024001824        0x0 /home/badr/GNAT/2018-arm-elf/arm-eabi/lib/gnat/ravenscar-sfp-stm32h743nucleo/adalib/libgnarl.a(s-bbthqu.o)
 .bss           0x0000000024001824        0x0 /home/badr/GNAT/2018-arm-elf/arm-eabi/lib/gnat/ravenscar-sfp-stm32h743nucleo/adalib/libgnarl.a(s-bbthre.o)
 .bss           0x0000000024001824        0x0 /home/badr/GNAT/2018-arm-elf/arm-eabi/lib/gnat/ravenscar-sfp-stm32h743nucleo/adalib/libgnarl.a(s-bcpcst.o)
 .bss           0x0000000024001824        0x0 /home/badr/GNAT/2018-arm-elf/arm-eabi/lib/gnat/ravenscar-sfp-stm32h743nucleo/adalib/libgnarl.a(handler.o)
 .bss           0x0000000024001824        0x0 /home/badr/GNAT/2018-arm-elf/arm-eabi/lib/gnat/ravenscar-sfp-stm32h743nucleo/adalib/libgnat.a(a-elchha.o)
 .bss           0x0000000024001824        0x0 /home/badr/GNAT/2018-arm-elf/arm-eabi/lib/gnat/ravenscar-sfp-stm32h743nucleo/adalib/libgnat.a(a-except.o)
 .bss           0x0000000024001824        0x0 /home/badr/GNAT/2018-arm-elf/arm-eabi/lib/gnat/ravenscar-sfp-stm32h743nucleo/adalib/libgnat.a(breakpoint_handler-cortexm.o)
 .bss           0x0000000024001824        0x0 /home/badr/GNAT/2018-arm-elf/arm-eabi/lib/gnat/ravenscar-sfp-stm32h743nucleo/adalib/libgnat.a(g-io.o)
 .bss           0x0000000024001824        0x0 /home/badr/GNAT/2018-arm-elf/arm-eabi/lib/gnat/ravenscar-sfp-stm32h743nucleo/adalib/libgnat.a(s-assert.o)
 .bss           0x0000000024001824        0x0 /home/badr/GNAT/2018-arm-elf/arm-eabi/lib/gnat/ravenscar-sfp-stm32h743nucleo/adalib/libgnat.a(s-macres.o)
 .bss           0x0000000024001824        0x0 /home/badr/GNAT/2018-arm-elf/arm-eabi/lib/gnat/ravenscar-sfp-stm32h743nucleo/adalib/libgnat.a(s-memcop.o)
 .bss           0x0000000024001824        0x0 /home/badr/GNAT/2018-arm-elf/arm-eabi/lib/gnat/ravenscar-sfp-stm32h743nucleo/adalib/libgnat.a(s-memset.o)
 .bss           0x0000000024001824        0x0 /home/badr/GNAT/2018-arm-elf/arm-eabi/lib/gnat/ravenscar-sfp-stm32h743nucleo/adalib/libgnat.a(s-parame.o)
 .bss           0x0000000024001824        0x0 /home/badr/GNAT/2018-arm-elf/arm-eabi/lib/gnat/ravenscar-sfp-stm32h743nucleo/adalib/libgnat.a(s-secsta.o)
 .bss.system__secondary_stack__ss_pool
                0x0000000024001824        0x4 /home/badr/GNAT/2018-arm-elf/arm-eabi/lib/gnat/ravenscar-sfp-stm32h743nucleo/adalib/libgnat.a(s-secsta.o)
                0x0000000024001824                system__secondary_stack__ss_pool
 .bss.__gnat_binder_ss_count
                0x0000000024001828        0x4 /home/badr/GNAT/2018-arm-elf/arm-eabi/lib/gnat/ravenscar-sfp-stm32h743nucleo/adalib/libgnat.a(s-secsta.o)
                0x0000000024001828                __gnat_binder_ss_count
 .bss.__gnat_default_ss_size
                0x000000002400182c        0x4 /home/badr/GNAT/2018-arm-elf/arm-eabi/lib/gnat/ravenscar-sfp-stm32h743nucleo/adalib/libgnat.a(s-secsta.o)
                0x000000002400182c                __gnat_default_ss_size
 .bss.__gnat_default_ss_pool
                0x0000000024001830        0x4 /home/badr/GNAT/2018-arm-elf/arm-eabi/lib/gnat/ravenscar-sfp-stm32h743nucleo/adalib/libgnat.a(s-secsta.o)
                0x0000000024001830                __gnat_default_ss_pool
 .bss           0x0000000024001834        0x0 /home/badr/GNAT/2018-arm-elf/arm-eabi/lib/gnat/ravenscar-sfp-stm32h743nucleo/adalib/libgnat.a(s-textio.o)
 .bss           0x0000000024001834        0x0 /home/badr/GNAT/2018-arm-elf/arm-eabi/lib/gnat/ravenscar-sfp-stm32h743nucleo/adalib/libgnat.a(start-rom.o)
 .bss           0x0000000024001834        0x0 /home/badr/GNAT/2018-arm-elf/arm-eabi/lib/gnat/ravenscar-sfp-stm32h743nucleo/adalib/libgnat.a(s-semiho.o)
 .bss.system__semihosting__buffer
                0x0000000024001834       0x80 /home/badr/GNAT/2018-arm-elf/arm-eabi/lib/gnat/ravenscar-sfp-stm32h743nucleo/adalib/libgnat.a(s-semiho.o)
 .bss           0x00000000240018b4        0x0 /home/badr/GNAT/2018-arm-elf/arm-eabi/lib/gnat/ravenscar-sfp-stm32h743nucleo/adalib/libgnat.a(start-common.o)
 .bss           0x00000000240018b4        0x0 /home/badr/GNAT/2018-arm-elf/bin/../lib/gcc/arm-eabi/7.3.1/thumb/v7e-m/fpv5/hard/libgcc.a(_aeabi_ldivmod.o)
 .bss           0x00000000240018b4        0x0 /home/badr/GNAT/2018-arm-elf/bin/../lib/gcc/arm-eabi/7.3.1/thumb/v7e-m/fpv5/hard/libgcc.a(_aeabi_uldivmod.o)
 .bss           0x00000000240018b4        0x0 /home/badr/GNAT/2018-arm-elf/bin/../lib/gcc/arm-eabi/7.3.1/thumb/v7e-m/fpv5/hard/libgcc.a(_udivmoddi4.o)
 .bss           0x00000000240018b4        0x0 /home/badr/GNAT/2018-arm-elf/bin/../lib/gcc/arm-eabi/7.3.1/thumb/v7e-m/fpv5/hard/libgcc.a(_dvmd_tls.o)
 *(COMMON)
                0x00000000240018b8                . = ALIGN (0x8)
 *fill*         0x00000000240018b4        0x4 
                0x00000000240018b8                __bss_end = .
                0x00000000240018b8                __interrupt_stack_start = .
 *(.interrupt_stacks)
 .interrupt_stacks
                0x00000000240018b8      0x800 /home/badr/GNAT/2018-arm-elf/arm-eabi/lib/gnat/ravenscar-sfp-stm32h743nucleo/adalib/libgnarl.a(s-bbinte.o)
                0x00000000240018b8                system__bb__interrupts__interrupt_stacks
                0x00000000240020b8                . = ALIGN (0x8)
                0x00000000240020b8                __interrupt_stack_end = .
                0x00000000240020b8                __stack_start = .
                0x00000000240030b8                . = (. + DEFINED (__stack_size)?__stack_size:_DEFAULT_STACK_SIZE)
 *fill*         0x00000000240020b8     0x1000 
                0x00000000240030b8                . = ALIGN (0x8)
                0x00000000240030b8                __stack_end = .
                0x00000000240030b8                _end = .
                0x00000000240030b8                __heap_start = .
                0x0000000024080000                __heap_end = (ORIGIN (sram_bs) + LENGTH (sram_bs))
                0x00000000000005e8                __bss_words = ((__bss_end - __bss_start) >> 0x2)

.debug
 *(.debug)

.line
 *(.line)

.debug_srcinfo
 *(.debug_srcinfo)

.debug_sfnames
 *(.debug_sfnames)

.debug_aranges  0x0000000000000000      0xca0
 *(.debug_aranges)
 .debug_aranges
                0x0000000000000000       0x48 /home/badr/hackinvent/Ada_Drivers_Library/boards/stm32h743_nucleo/obj/sfp_lib_Debug/libada_drivers_library.a(stm32-board.o)
 .debug_aranges
                0x0000000000000048       0x78 /home/badr/hackinvent/Ada_Drivers_Library/boards/stm32h743_nucleo/obj/sfp_lib_Debug/libada_drivers_library.a(stm32-device.o)
 .debug_aranges
                0x00000000000000c0       0x50 /home/badr/hackinvent/Ada_Drivers_Library/boards/stm32h743_nucleo/obj/sfp_lib_Debug/libada_drivers_library.a(stm32-exti.o)
 .debug_aranges
                0x0000000000000110       0xf8 /home/badr/hackinvent/Ada_Drivers_Library/boards/stm32h743_nucleo/obj/sfp_lib_Debug/libada_drivers_library.a(stm32-gpio.o)
 .debug_aranges
                0x0000000000000208       0x20 /home/badr/hackinvent/Ada_Drivers_Library/boards/stm32h743_nucleo/obj/sfp_lib_Debug/libada_drivers_library.a(stm32-rcc.o)
 .debug_aranges
                0x0000000000000228      0x188 /home/badr/hackinvent/Ada_Drivers_Library/boards/stm32h743_nucleo/obj/sfp_lib_Debug/libada_drivers_library.a(stm32-spi.o)
 .debug_aranges
                0x00000000000003b0       0x40 /home/badr/hackinvent/Ada_Drivers_Library/boards/stm32h743_nucleo/obj/sfp_lib_Debug/libada_drivers_library.a(stm32-syscfg.o)
 .debug_aranges
                0x00000000000003f0       0x18 /home/badr/hackinvent/Ada_Drivers_Library/boards/stm32h743_nucleo/obj/sfp_lib_Debug/libada_drivers_library.a(hal-gpio.o)
 .debug_aranges
                0x0000000000000408       0x18 /home/badr/hackinvent/Ada_Drivers_Library/boards/stm32h743_nucleo/obj/sfp_lib_Debug/libada_drivers_library.a(hal-spi.o)
 .debug_aranges
                0x0000000000000420       0xd8 /home/badr/GNAT/2018-arm-elf/arm-eabi/lib/gnat/ravenscar-sfp-stm32h743nucleo/adalib/libgnarl.a(a-reatim.o)
 .debug_aranges
                0x00000000000004f8       0x28 /home/badr/GNAT/2018-arm-elf/arm-eabi/lib/gnat/ravenscar-sfp-stm32h743nucleo/adalib/libgnarl.a(a-retide.o)
 .debug_aranges
                0x0000000000000520       0x58 /home/badr/GNAT/2018-arm-elf/arm-eabi/lib/gnat/ravenscar-sfp-stm32h743nucleo/adalib/libgnarl.a(s-bbtiev.o)
 .debug_aranges
                0x0000000000000578       0x60 /home/badr/GNAT/2018-arm-elf/arm-eabi/lib/gnat/ravenscar-sfp-stm32h743nucleo/adalib/libgnarl.a(s-bbtime.o)
 .debug_aranges
                0x00000000000005d8       0xa8 /home/badr/GNAT/2018-arm-elf/arm-eabi/lib/gnat/ravenscar-sfp-stm32h743nucleo/adalib/libgnarl.a(s-taprop.o)
 .debug_aranges
                0x0000000000000680       0x20 /home/badr/GNAT/2018-arm-elf/arm-eabi/lib/gnat/ravenscar-sfp-stm32h743nucleo/adalib/libgnarl.a(s-tasdeb.o)
 .debug_aranges
                0x00000000000006a0       0x40 /home/badr/GNAT/2018-arm-elf/arm-eabi/lib/gnat/ravenscar-sfp-stm32h743nucleo/adalib/libgnarl.a(s-taskin.o)
 .debug_aranges
                0x00000000000006e0       0xb0 /home/badr/GNAT/2018-arm-elf/arm-eabi/lib/gnat/ravenscar-sfp-stm32h743nucleo/adalib/libgnarl.a(s-bbbosu.o)
 .debug_aranges
                0x0000000000000790       0x88 /home/badr/GNAT/2018-arm-elf/arm-eabi/lib/gnat/ravenscar-sfp-stm32h743nucleo/adalib/libgnarl.a(s-bbcppr.o)
 .debug_aranges
                0x0000000000000818       0x40 /home/badr/GNAT/2018-arm-elf/arm-eabi/lib/gnat/ravenscar-sfp-stm32h743nucleo/adalib/libgnarl.a(s-bbinte.o)
 .debug_aranges
                0x0000000000000858       0x28 /home/badr/GNAT/2018-arm-elf/arm-eabi/lib/gnat/ravenscar-sfp-stm32h743nucleo/adalib/libgnarl.a(s-bbprot.o)
 .debug_aranges
                0x0000000000000880       0x78 /home/badr/GNAT/2018-arm-elf/arm-eabi/lib/gnat/ravenscar-sfp-stm32h743nucleo/adalib/libgnarl.a(s-bbthqu.o)
 .debug_aranges
                0x00000000000008f8       0x80 /home/badr/GNAT/2018-arm-elf/arm-eabi/lib/gnat/ravenscar-sfp-stm32h743nucleo/adalib/libgnarl.a(s-bbthre.o)
 .debug_aranges
                0x0000000000000978       0x30 /home/badr/GNAT/2018-arm-elf/arm-eabi/lib/gnat/ravenscar-sfp-stm32h743nucleo/adalib/libgnarl.a(s-bcpcst.o)
 .debug_aranges
                0x00000000000009a8       0x20 /home/badr/GNAT/2018-arm-elf/arm-eabi/lib/gnat/ravenscar-sfp-stm32h743nucleo/adalib/libgnarl.a(handler.o)
 .debug_aranges
                0x00000000000009c8       0x28 /home/badr/GNAT/2018-arm-elf/arm-eabi/lib/gnat/ravenscar-sfp-stm32h743nucleo/adalib/libgnat.a(a-elchha.o)
 .debug_aranges
                0x00000000000009f0       0x18 /home/badr/GNAT/2018-arm-elf/arm-eabi/lib/gnat/ravenscar-sfp-stm32h743nucleo/adalib/libgnat.a(a-except.o)
 .debug_aranges
                0x0000000000000a08       0x20 /home/badr/GNAT/2018-arm-elf/arm-eabi/lib/gnat/ravenscar-sfp-stm32h743nucleo/adalib/libgnat.a(breakpoint_handler-cortexm.o)
 .debug_aranges
                0x0000000000000a28       0x40 /home/badr/GNAT/2018-arm-elf/arm-eabi/lib/gnat/ravenscar-sfp-stm32h743nucleo/adalib/libgnat.a(g-io.o)
 .debug_aranges
                0x0000000000000a68       0x20 /home/badr/GNAT/2018-arm-elf/arm-eabi/lib/gnat/ravenscar-sfp-stm32h743nucleo/adalib/libgnat.a(s-assert.o)
 .debug_aranges
                0x0000000000000a88       0x30 /home/badr/GNAT/2018-arm-elf/arm-eabi/lib/gnat/ravenscar-sfp-stm32h743nucleo/adalib/libgnat.a(s-macres.o)
 .debug_aranges
                0x0000000000000ab8       0x20 /home/badr/GNAT/2018-arm-elf/arm-eabi/lib/gnat/ravenscar-sfp-stm32h743nucleo/adalib/libgnat.a(s-memcop.o)
 .debug_aranges
                0x0000000000000ad8       0x20 /home/badr/GNAT/2018-arm-elf/arm-eabi/lib/gnat/ravenscar-sfp-stm32h743nucleo/adalib/libgnat.a(s-memset.o)
 .debug_aranges
                0x0000000000000af8       0x20 /home/badr/GNAT/2018-arm-elf/arm-eabi/lib/gnat/ravenscar-sfp-stm32h743nucleo/adalib/libgnat.a(s-parame.o)
 .debug_aranges
                0x0000000000000b18       0x40 /home/badr/GNAT/2018-arm-elf/arm-eabi/lib/gnat/ravenscar-sfp-stm32h743nucleo/adalib/libgnat.a(s-secsta.o)
 .debug_aranges
                0x0000000000000b58       0x48 /home/badr/GNAT/2018-arm-elf/arm-eabi/lib/gnat/ravenscar-sfp-stm32h743nucleo/adalib/libgnat.a(s-textio.o)
 .debug_aranges
                0x0000000000000ba0       0x20 /home/badr/GNAT/2018-arm-elf/arm-eabi/lib/gnat/ravenscar-sfp-stm32h743nucleo/adalib/libgnat.a(start-rom.o)
 .debug_aranges
                0x0000000000000bc0       0x40 /home/badr/GNAT/2018-arm-elf/arm-eabi/lib/gnat/ravenscar-sfp-stm32h743nucleo/adalib/libgnat.a(s-semiho.o)
 .debug_aranges
                0x0000000000000c00       0x20 /home/badr/GNAT/2018-arm-elf/arm-eabi/lib/gnat/ravenscar-sfp-stm32h743nucleo/adalib/libgnat.a(start-common.o)
 .debug_aranges
                0x0000000000000c20       0x20 /home/badr/GNAT/2018-arm-elf/bin/../lib/gcc/arm-eabi/7.3.1/thumb/v7e-m/fpv5/hard/libgcc.a(_aeabi_ldivmod.o)
 .debug_aranges
                0x0000000000000c40       0x20 /home/badr/GNAT/2018-arm-elf/bin/../lib/gcc/arm-eabi/7.3.1/thumb/v7e-m/fpv5/hard/libgcc.a(_aeabi_uldivmod.o)
 .debug_aranges
                0x0000000000000c60       0x20 /home/badr/GNAT/2018-arm-elf/bin/../lib/gcc/arm-eabi/7.3.1/thumb/v7e-m/fpv5/hard/libgcc.a(_udivmoddi4.o)
 .debug_aranges
                0x0000000000000c80       0x20 /home/badr/GNAT/2018-arm-elf/bin/../lib/gcc/arm-eabi/7.3.1/thumb/v7e-m/fpv5/hard/libgcc.a(_dvmd_tls.o)

.debug_pubnames
 *(.debug_pubnames)

.debug_info     0x0000000000000000     0xf90a
 *(.debug_info .gnu.linkonce.wi.*)
 .debug_info    0x0000000000000000     0x1954 /home/badr/hackinvent/Ada_Drivers_Library/boards/stm32h743_nucleo/obj/sfp_lib_Debug/libada_drivers_library.a(stm32-board.o)
 .debug_info    0x0000000000001954     0x2fb1 /home/badr/hackinvent/Ada_Drivers_Library/boards/stm32h743_nucleo/obj/sfp_lib_Debug/libada_drivers_library.a(stm32-device.o)
 .debug_info    0x0000000000004905      0x242 /home/badr/hackinvent/Ada_Drivers_Library/boards/stm32h743_nucleo/obj/sfp_lib_Debug/libada_drivers_library.a(stm32-exti.o)
 .debug_info    0x0000000000004b47     0x14cd /home/badr/hackinvent/Ada_Drivers_Library/boards/stm32h743_nucleo/obj/sfp_lib_Debug/libada_drivers_library.a(stm32-gpio.o)
 .debug_info    0x0000000000006014      0x19b /home/badr/hackinvent/Ada_Drivers_Library/boards/stm32h743_nucleo/obj/sfp_lib_Debug/libada_drivers_library.a(stm32-rcc.o)
 .debug_info    0x00000000000061af     0x1c94 /home/badr/hackinvent/Ada_Drivers_Library/boards/stm32h743_nucleo/obj/sfp_lib_Debug/libada_drivers_library.a(stm32-spi.o)
 .debug_info    0x0000000000007e43      0xb31 /home/badr/hackinvent/Ada_Drivers_Library/boards/stm32h743_nucleo/obj/sfp_lib_Debug/libada_drivers_library.a(stm32-syscfg.o)
 .debug_info    0x0000000000008974       0x41 /home/badr/hackinvent/Ada_Drivers_Library/boards/stm32h743_nucleo/obj/sfp_lib_Debug/libada_drivers_library.a(hal-gpio.o)
 .debug_info    0x00000000000089b5       0x5d /home/badr/hackinvent/Ada_Drivers_Library/boards/stm32h743_nucleo/obj/sfp_lib_Debug/libada_drivers_library.a(hal-spi.o)
 .debug_info    0x0000000000008a12      0x8c9 /home/badr/GNAT/2018-arm-elf/arm-eabi/lib/gnat/ravenscar-sfp-stm32h743nucleo/adalib/libgnarl.a(a-reatim.o)
 .debug_info    0x00000000000092db      0x103 /home/badr/GNAT/2018-arm-elf/arm-eabi/lib/gnat/ravenscar-sfp-stm32h743nucleo/adalib/libgnarl.a(a-retide.o)
 .debug_info    0x00000000000093de      0x5d4 /home/badr/GNAT/2018-arm-elf/arm-eabi/lib/gnat/ravenscar-sfp-stm32h743nucleo/adalib/libgnarl.a(s-bbtiev.o)
 .debug_info    0x00000000000099b2      0x5b7 /home/badr/GNAT/2018-arm-elf/arm-eabi/lib/gnat/ravenscar-sfp-stm32h743nucleo/adalib/libgnarl.a(s-bbtime.o)
 .debug_info    0x0000000000009f69      0xbfd /home/badr/GNAT/2018-arm-elf/arm-eabi/lib/gnat/ravenscar-sfp-stm32h743nucleo/adalib/libgnarl.a(s-taprop.o)
 .debug_info    0x000000000000ab66      0x65b /home/badr/GNAT/2018-arm-elf/arm-eabi/lib/gnat/ravenscar-sfp-stm32h743nucleo/adalib/libgnarl.a(s-tasdeb.o)
 .debug_info    0x000000000000b1c1      0x8d0 /home/badr/GNAT/2018-arm-elf/arm-eabi/lib/gnat/ravenscar-sfp-stm32h743nucleo/adalib/libgnarl.a(s-taskin.o)
 .debug_info    0x000000000000ba91      0x52a /home/badr/GNAT/2018-arm-elf/arm-eabi/lib/gnat/ravenscar-sfp-stm32h743nucleo/adalib/libgnarl.a(s-bbbosu.o)
 .debug_info    0x000000000000bfbb      0x677 /home/badr/GNAT/2018-arm-elf/arm-eabi/lib/gnat/ravenscar-sfp-stm32h743nucleo/adalib/libgnarl.a(s-bbcppr.o)
 .debug_info    0x000000000000c632      0x46c /home/badr/GNAT/2018-arm-elf/arm-eabi/lib/gnat/ravenscar-sfp-stm32h743nucleo/adalib/libgnarl.a(s-bbinte.o)
 .debug_info    0x000000000000ca9e       0x95 /home/badr/GNAT/2018-arm-elf/arm-eabi/lib/gnat/ravenscar-sfp-stm32h743nucleo/adalib/libgnarl.a(s-bbprot.o)
 .debug_info    0x000000000000cb33      0x546 /home/badr/GNAT/2018-arm-elf/arm-eabi/lib/gnat/ravenscar-sfp-stm32h743nucleo/adalib/libgnarl.a(s-bbthqu.o)
 .debug_info    0x000000000000d079      0x60c /home/badr/GNAT/2018-arm-elf/arm-eabi/lib/gnat/ravenscar-sfp-stm32h743nucleo/adalib/libgnarl.a(s-bbthre.o)
 .debug_info    0x000000000000d685      0x11a /home/badr/GNAT/2018-arm-elf/arm-eabi/lib/gnat/ravenscar-sfp-stm32h743nucleo/adalib/libgnarl.a(s-bcpcst.o)
 .debug_info    0x000000000000d79f       0x26 /home/badr/GNAT/2018-arm-elf/arm-eabi/lib/gnat/ravenscar-sfp-stm32h743nucleo/adalib/libgnarl.a(handler.o)
 .debug_info    0x000000000000d7c5      0x145 /home/badr/GNAT/2018-arm-elf/arm-eabi/lib/gnat/ravenscar-sfp-stm32h743nucleo/adalib/libgnat.a(a-elchha.o)
 .debug_info    0x000000000000d90a      0x149 /home/badr/GNAT/2018-arm-elf/arm-eabi/lib/gnat/ravenscar-sfp-stm32h743nucleo/adalib/libgnat.a(a-except.o)
 .debug_info    0x000000000000da53       0x26 /home/badr/GNAT/2018-arm-elf/arm-eabi/lib/gnat/ravenscar-sfp-stm32h743nucleo/adalib/libgnat.a(breakpoint_handler-cortexm.o)
 .debug_info    0x000000000000da79      0x256 /home/badr/GNAT/2018-arm-elf/arm-eabi/lib/gnat/ravenscar-sfp-stm32h743nucleo/adalib/libgnat.a(g-io.o)
 .debug_info    0x000000000000dccf      0x169 /home/badr/GNAT/2018-arm-elf/arm-eabi/lib/gnat/ravenscar-sfp-stm32h743nucleo/adalib/libgnat.a(s-assert.o)
 .debug_info    0x000000000000de38       0xb0 /home/badr/GNAT/2018-arm-elf/arm-eabi/lib/gnat/ravenscar-sfp-stm32h743nucleo/adalib/libgnat.a(s-macres.o)
 .debug_info    0x000000000000dee8       0xbf /home/badr/GNAT/2018-arm-elf/arm-eabi/lib/gnat/ravenscar-sfp-stm32h743nucleo/adalib/libgnat.a(s-memcop.o)
 .debug_info    0x000000000000dfa7      0x11f /home/badr/GNAT/2018-arm-elf/arm-eabi/lib/gnat/ravenscar-sfp-stm32h743nucleo/adalib/libgnat.a(s-memset.o)
 .debug_info    0x000000000000e0c6      0x13c /home/badr/GNAT/2018-arm-elf/arm-eabi/lib/gnat/ravenscar-sfp-stm32h743nucleo/adalib/libgnat.a(s-parame.o)
 .debug_info    0x000000000000e202      0x5bf /home/badr/GNAT/2018-arm-elf/arm-eabi/lib/gnat/ravenscar-sfp-stm32h743nucleo/adalib/libgnat.a(s-secsta.o)
 .debug_info    0x000000000000e7c1       0xe4 /home/badr/GNAT/2018-arm-elf/arm-eabi/lib/gnat/ravenscar-sfp-stm32h743nucleo/adalib/libgnat.a(s-textio.o)
 .debug_info    0x000000000000e8a5       0x26 /home/badr/GNAT/2018-arm-elf/arm-eabi/lib/gnat/ravenscar-sfp-stm32h743nucleo/adalib/libgnat.a(start-rom.o)
 .debug_info    0x000000000000e8cb      0x2a8 /home/badr/GNAT/2018-arm-elf/arm-eabi/lib/gnat/ravenscar-sfp-stm32h743nucleo/adalib/libgnat.a(s-semiho.o)
 .debug_info    0x000000000000eb73       0x26 /home/badr/GNAT/2018-arm-elf/arm-eabi/lib/gnat/ravenscar-sfp-stm32h743nucleo/adalib/libgnat.a(start-common.o)
 .debug_info    0x000000000000eb99       0x26 /home/badr/GNAT/2018-arm-elf/bin/../lib/gcc/arm-eabi/7.3.1/thumb/v7e-m/fpv5/hard/libgcc.a(_aeabi_ldivmod.o)
 .debug_info    0x000000000000ebbf       0x26 /home/badr/GNAT/2018-arm-elf/bin/../lib/gcc/arm-eabi/7.3.1/thumb/v7e-m/fpv5/hard/libgcc.a(_aeabi_uldivmod.o)
 .debug_info    0x000000000000ebe5      0xcff /home/badr/GNAT/2018-arm-elf/bin/../lib/gcc/arm-eabi/7.3.1/thumb/v7e-m/fpv5/hard/libgcc.a(_udivmoddi4.o)
 .debug_info    0x000000000000f8e4       0x26 /home/badr/GNAT/2018-arm-elf/bin/../lib/gcc/arm-eabi/7.3.1/thumb/v7e-m/fpv5/hard/libgcc.a(_dvmd_tls.o)

.debug_abbrev   0x0000000000000000     0x3da5
 *(.debug_abbrev)
 .debug_abbrev  0x0000000000000000      0x395 /home/badr/hackinvent/Ada_Drivers_Library/boards/stm32h743_nucleo/obj/sfp_lib_Debug/libada_drivers_library.a(stm32-board.o)
 .debug_abbrev  0x0000000000000395      0x42f /home/badr/hackinvent/Ada_Drivers_Library/boards/stm32h743_nucleo/obj/sfp_lib_Debug/libada_drivers_library.a(stm32-device.o)
 .debug_abbrev  0x00000000000007c4       0xb1 /home/badr/hackinvent/Ada_Drivers_Library/boards/stm32h743_nucleo/obj/sfp_lib_Debug/libada_drivers_library.a(stm32-exti.o)
 .debug_abbrev  0x0000000000000875      0x425 /home/badr/hackinvent/Ada_Drivers_Library/boards/stm32h743_nucleo/obj/sfp_lib_Debug/libada_drivers_library.a(stm32-gpio.o)
 .debug_abbrev  0x0000000000000c9a       0x8f /home/badr/hackinvent/Ada_Drivers_Library/boards/stm32h743_nucleo/obj/sfp_lib_Debug/libada_drivers_library.a(stm32-rcc.o)
 .debug_abbrev  0x0000000000000d29      0x34e /home/badr/hackinvent/Ada_Drivers_Library/boards/stm32h743_nucleo/obj/sfp_lib_Debug/libada_drivers_library.a(stm32-spi.o)
 .debug_abbrev  0x0000000000001077      0x2d7 /home/badr/hackinvent/Ada_Drivers_Library/boards/stm32h743_nucleo/obj/sfp_lib_Debug/libada_drivers_library.a(stm32-syscfg.o)
 .debug_abbrev  0x000000000000134e       0x28 /home/badr/hackinvent/Ada_Drivers_Library/boards/stm32h743_nucleo/obj/sfp_lib_Debug/libada_drivers_library.a(hal-gpio.o)
 .debug_abbrev  0x0000000000001376       0x28 /home/badr/hackinvent/Ada_Drivers_Library/boards/stm32h743_nucleo/obj/sfp_lib_Debug/libada_drivers_library.a(hal-spi.o)
 .debug_abbrev  0x000000000000139e      0x1ce /home/badr/GNAT/2018-arm-elf/arm-eabi/lib/gnat/ravenscar-sfp-stm32h743nucleo/adalib/libgnarl.a(a-reatim.o)
 .debug_abbrev  0x000000000000156c       0x9d /home/badr/GNAT/2018-arm-elf/arm-eabi/lib/gnat/ravenscar-sfp-stm32h743nucleo/adalib/libgnarl.a(a-retide.o)
 .debug_abbrev  0x0000000000001609      0x23b /home/badr/GNAT/2018-arm-elf/arm-eabi/lib/gnat/ravenscar-sfp-stm32h743nucleo/adalib/libgnarl.a(s-bbtiev.o)
 .debug_abbrev  0x0000000000001844      0x24c /home/badr/GNAT/2018-arm-elf/arm-eabi/lib/gnat/ravenscar-sfp-stm32h743nucleo/adalib/libgnarl.a(s-bbtime.o)
 .debug_abbrev  0x0000000000001a90      0x402 /home/badr/GNAT/2018-arm-elf/arm-eabi/lib/gnat/ravenscar-sfp-stm32h743nucleo/adalib/libgnarl.a(s-taprop.o)
 .debug_abbrev  0x0000000000001e92      0x232 /home/badr/GNAT/2018-arm-elf/arm-eabi/lib/gnat/ravenscar-sfp-stm32h743nucleo/adalib/libgnarl.a(s-tasdeb.o)
 .debug_abbrev  0x00000000000020c4      0x2e1 /home/badr/GNAT/2018-arm-elf/arm-eabi/lib/gnat/ravenscar-sfp-stm32h743nucleo/adalib/libgnarl.a(s-taskin.o)
 .debug_abbrev  0x00000000000023a5      0x240 /home/badr/GNAT/2018-arm-elf/arm-eabi/lib/gnat/ravenscar-sfp-stm32h743nucleo/adalib/libgnarl.a(s-bbbosu.o)
 .debug_abbrev  0x00000000000025e5      0x26c /home/badr/GNAT/2018-arm-elf/arm-eabi/lib/gnat/ravenscar-sfp-stm32h743nucleo/adalib/libgnarl.a(s-bbcppr.o)
 .debug_abbrev  0x0000000000002851      0x1fb /home/badr/GNAT/2018-arm-elf/arm-eabi/lib/gnat/ravenscar-sfp-stm32h743nucleo/adalib/libgnarl.a(s-bbinte.o)
 .debug_abbrev  0x0000000000002a4c       0x65 /home/badr/GNAT/2018-arm-elf/arm-eabi/lib/gnat/ravenscar-sfp-stm32h743nucleo/adalib/libgnarl.a(s-bbprot.o)
 .debug_abbrev  0x0000000000002ab1      0x289 /home/badr/GNAT/2018-arm-elf/arm-eabi/lib/gnat/ravenscar-sfp-stm32h743nucleo/adalib/libgnarl.a(s-bbthqu.o)
 .debug_abbrev  0x0000000000002d3a      0x26d /home/badr/GNAT/2018-arm-elf/arm-eabi/lib/gnat/ravenscar-sfp-stm32h743nucleo/adalib/libgnarl.a(s-bbthre.o)
 .debug_abbrev  0x0000000000002fa7       0xb0 /home/badr/GNAT/2018-arm-elf/arm-eabi/lib/gnat/ravenscar-sfp-stm32h743nucleo/adalib/libgnarl.a(s-bcpcst.o)
 .debug_abbrev  0x0000000000003057       0x14 /home/badr/GNAT/2018-arm-elf/arm-eabi/lib/gnat/ravenscar-sfp-stm32h743nucleo/adalib/libgnarl.a(handler.o)
 .debug_abbrev  0x000000000000306b      0x113 /home/badr/GNAT/2018-arm-elf/arm-eabi/lib/gnat/ravenscar-sfp-stm32h743nucleo/adalib/libgnat.a(a-elchha.o)
 .debug_abbrev  0x000000000000317e       0xc6 /home/badr/GNAT/2018-arm-elf/arm-eabi/lib/gnat/ravenscar-sfp-stm32h743nucleo/adalib/libgnat.a(a-except.o)
 .debug_abbrev  0x0000000000003244       0x14 /home/badr/GNAT/2018-arm-elf/arm-eabi/lib/gnat/ravenscar-sfp-stm32h743nucleo/adalib/libgnat.a(breakpoint_handler-cortexm.o)
 .debug_abbrev  0x0000000000003258      0x134 /home/badr/GNAT/2018-arm-elf/arm-eabi/lib/gnat/ravenscar-sfp-stm32h743nucleo/adalib/libgnat.a(g-io.o)
 .debug_abbrev  0x000000000000338c       0xd2 /home/badr/GNAT/2018-arm-elf/arm-eabi/lib/gnat/ravenscar-sfp-stm32h743nucleo/adalib/libgnat.a(s-assert.o)
 .debug_abbrev  0x000000000000345e       0xbd /home/badr/GNAT/2018-arm-elf/arm-eabi/lib/gnat/ravenscar-sfp-stm32h743nucleo/adalib/libgnat.a(s-macres.o)
 .debug_abbrev  0x000000000000351b       0x76 /home/badr/GNAT/2018-arm-elf/arm-eabi/lib/gnat/ravenscar-sfp-stm32h743nucleo/adalib/libgnat.a(s-memcop.o)
 .debug_abbrev  0x0000000000003591       0xc6 /home/badr/GNAT/2018-arm-elf/arm-eabi/lib/gnat/ravenscar-sfp-stm32h743nucleo/adalib/libgnat.a(s-memset.o)
 .debug_abbrev  0x0000000000003657       0x95 /home/badr/GNAT/2018-arm-elf/arm-eabi/lib/gnat/ravenscar-sfp-stm32h743nucleo/adalib/libgnat.a(s-parame.o)
 .debug_abbrev  0x00000000000036ec      0x2a9 /home/badr/GNAT/2018-arm-elf/arm-eabi/lib/gnat/ravenscar-sfp-stm32h743nucleo/adalib/libgnat.a(s-secsta.o)
 .debug_abbrev  0x0000000000003995       0xb5 /home/badr/GNAT/2018-arm-elf/arm-eabi/lib/gnat/ravenscar-sfp-stm32h743nucleo/adalib/libgnat.a(s-textio.o)
 .debug_abbrev  0x0000000000003a4a       0x14 /home/badr/GNAT/2018-arm-elf/arm-eabi/lib/gnat/ravenscar-sfp-stm32h743nucleo/adalib/libgnat.a(start-rom.o)
 .debug_abbrev  0x0000000000003a5e      0x15e /home/badr/GNAT/2018-arm-elf/arm-eabi/lib/gnat/ravenscar-sfp-stm32h743nucleo/adalib/libgnat.a(s-semiho.o)
 .debug_abbrev  0x0000000000003bbc       0x14 /home/badr/GNAT/2018-arm-elf/arm-eabi/lib/gnat/ravenscar-sfp-stm32h743nucleo/adalib/libgnat.a(start-common.o)
 .debug_abbrev  0x0000000000003bd0       0x14 /home/badr/GNAT/2018-arm-elf/bin/../lib/gcc/arm-eabi/7.3.1/thumb/v7e-m/fpv5/hard/libgcc.a(_aeabi_ldivmod.o)
 .debug_abbrev  0x0000000000003be4       0x14 /home/badr/GNAT/2018-arm-elf/bin/../lib/gcc/arm-eabi/7.3.1/thumb/v7e-m/fpv5/hard/libgcc.a(_aeabi_uldivmod.o)
 .debug_abbrev  0x0000000000003bf8      0x199 /home/badr/GNAT/2018-arm-elf/bin/../lib/gcc/arm-eabi/7.3.1/thumb/v7e-m/fpv5/hard/libgcc.a(_udivmoddi4.o)
 .debug_abbrev  0x0000000000003d91       0x14 /home/badr/GNAT/2018-arm-elf/bin/../lib/gcc/arm-eabi/7.3.1/thumb/v7e-m/fpv5/hard/libgcc.a(_dvmd_tls.o)

.debug_line     0x0000000000000000     0x62e3
 *(.debug_line)
 .debug_line    0x0000000000000000      0x328 /home/badr/hackinvent/Ada_Drivers_Library/boards/stm32h743_nucleo/obj/sfp_lib_Debug/libada_drivers_library.a(stm32-board.o)
 .debug_line    0x0000000000000328      0x6fc /home/badr/hackinvent/Ada_Drivers_Library/boards/stm32h743_nucleo/obj/sfp_lib_Debug/libada_drivers_library.a(stm32-device.o)
 .debug_line    0x0000000000000a24      0x115 /home/badr/hackinvent/Ada_Drivers_Library/boards/stm32h743_nucleo/obj/sfp_lib_Debug/libada_drivers_library.a(stm32-exti.o)
 .debug_line    0x0000000000000b39      0x886 /home/badr/hackinvent/Ada_Drivers_Library/boards/stm32h743_nucleo/obj/sfp_lib_Debug/libada_drivers_library.a(stm32-gpio.o)
 .debug_line    0x00000000000013bf       0xa9 /home/badr/hackinvent/Ada_Drivers_Library/boards/stm32h743_nucleo/obj/sfp_lib_Debug/libada_drivers_library.a(stm32-rcc.o)
 .debug_line    0x0000000000001468      0xd04 /home/badr/hackinvent/Ada_Drivers_Library/boards/stm32h743_nucleo/obj/sfp_lib_Debug/libada_drivers_library.a(stm32-spi.o)
 .debug_line    0x000000000000216c      0x2fa /home/badr/hackinvent/Ada_Drivers_Library/boards/stm32h743_nucleo/obj/sfp_lib_Debug/libada_drivers_library.a(stm32-syscfg.o)
 .debug_line    0x0000000000002466       0x1d /home/badr/hackinvent/Ada_Drivers_Library/boards/stm32h743_nucleo/obj/sfp_lib_Debug/libada_drivers_library.a(hal-gpio.o)
 .debug_line    0x0000000000002483       0x1d /home/badr/hackinvent/Ada_Drivers_Library/boards/stm32h743_nucleo/obj/sfp_lib_Debug/libada_drivers_library.a(hal-spi.o)
 .debug_line    0x00000000000024a0      0x3fb /home/badr/GNAT/2018-arm-elf/arm-eabi/lib/gnat/ravenscar-sfp-stm32h743nucleo/adalib/libgnarl.a(a-reatim.o)
 .debug_line    0x000000000000289b       0xb5 /home/badr/GNAT/2018-arm-elf/arm-eabi/lib/gnat/ravenscar-sfp-stm32h743nucleo/adalib/libgnarl.a(a-retide.o)
 .debug_line    0x0000000000002950      0x33e /home/badr/GNAT/2018-arm-elf/arm-eabi/lib/gnat/ravenscar-sfp-stm32h743nucleo/adalib/libgnarl.a(s-bbtiev.o)
 .debug_line    0x0000000000002c8e      0x2ea /home/badr/GNAT/2018-arm-elf/arm-eabi/lib/gnat/ravenscar-sfp-stm32h743nucleo/adalib/libgnarl.a(s-bbtime.o)
 .debug_line    0x0000000000002f78      0x498 /home/badr/GNAT/2018-arm-elf/arm-eabi/lib/gnat/ravenscar-sfp-stm32h743nucleo/adalib/libgnarl.a(s-taprop.o)
 .debug_line    0x0000000000003410      0x1f3 /home/badr/GNAT/2018-arm-elf/arm-eabi/lib/gnat/ravenscar-sfp-stm32h743nucleo/adalib/libgnarl.a(s-tasdeb.o)
 .debug_line    0x0000000000003603      0x37b /home/badr/GNAT/2018-arm-elf/arm-eabi/lib/gnat/ravenscar-sfp-stm32h743nucleo/adalib/libgnarl.a(s-taskin.o)
 .debug_line    0x000000000000397e      0x413 /home/badr/GNAT/2018-arm-elf/arm-eabi/lib/gnat/ravenscar-sfp-stm32h743nucleo/adalib/libgnarl.a(s-bbbosu.o)
 .debug_line    0x0000000000003d91      0x50b /home/badr/GNAT/2018-arm-elf/arm-eabi/lib/gnat/ravenscar-sfp-stm32h743nucleo/adalib/libgnarl.a(s-bbcppr.o)
 .debug_line    0x000000000000429c      0x238 /home/badr/GNAT/2018-arm-elf/arm-eabi/lib/gnat/ravenscar-sfp-stm32h743nucleo/adalib/libgnarl.a(s-bbinte.o)
 .debug_line    0x00000000000044d4       0xc3 /home/badr/GNAT/2018-arm-elf/arm-eabi/lib/gnat/ravenscar-sfp-stm32h743nucleo/adalib/libgnarl.a(s-bbprot.o)
 .debug_line    0x0000000000004597      0x602 /home/badr/GNAT/2018-arm-elf/arm-eabi/lib/gnat/ravenscar-sfp-stm32h743nucleo/adalib/libgnarl.a(s-bbthqu.o)
 .debug_line    0x0000000000004b99      0x455 /home/badr/GNAT/2018-arm-elf/arm-eabi/lib/gnat/ravenscar-sfp-stm32h743nucleo/adalib/libgnarl.a(s-bbthre.o)
 .debug_line    0x0000000000004fee       0xb2 /home/badr/GNAT/2018-arm-elf/arm-eabi/lib/gnat/ravenscar-sfp-stm32h743nucleo/adalib/libgnarl.a(s-bcpcst.o)
 .debug_line    0x00000000000050a0       0xa6 /home/badr/GNAT/2018-arm-elf/arm-eabi/lib/gnat/ravenscar-sfp-stm32h743nucleo/adalib/libgnarl.a(handler.o)
 .debug_line    0x0000000000005146       0xc5 /home/badr/GNAT/2018-arm-elf/arm-eabi/lib/gnat/ravenscar-sfp-stm32h743nucleo/adalib/libgnat.a(a-elchha.o)
 .debug_line    0x000000000000520b       0x89 /home/badr/GNAT/2018-arm-elf/arm-eabi/lib/gnat/ravenscar-sfp-stm32h743nucleo/adalib/libgnat.a(a-except.o)
 .debug_line    0x0000000000005294       0x9f /home/badr/GNAT/2018-arm-elf/arm-eabi/lib/gnat/ravenscar-sfp-stm32h743nucleo/adalib/libgnat.a(breakpoint_handler-cortexm.o)
 .debug_line    0x0000000000005333      0x1c6 /home/badr/GNAT/2018-arm-elf/arm-eabi/lib/gnat/ravenscar-sfp-stm32h743nucleo/adalib/libgnat.a(g-io.o)
 .debug_line    0x00000000000054f9      0x14d /home/badr/GNAT/2018-arm-elf/arm-eabi/lib/gnat/ravenscar-sfp-stm32h743nucleo/adalib/libgnat.a(s-assert.o)
 .debug_line    0x0000000000005646       0xaa /home/badr/GNAT/2018-arm-elf/arm-eabi/lib/gnat/ravenscar-sfp-stm32h743nucleo/adalib/libgnat.a(s-macres.o)
 .debug_line    0x00000000000056f0       0xe8 /home/badr/GNAT/2018-arm-elf/arm-eabi/lib/gnat/ravenscar-sfp-stm32h743nucleo/adalib/libgnat.a(s-memcop.o)
 .debug_line    0x00000000000057d8       0xcf /home/badr/GNAT/2018-arm-elf/arm-eabi/lib/gnat/ravenscar-sfp-stm32h743nucleo/adalib/libgnat.a(s-memset.o)
 .debug_line    0x00000000000058a7       0xa0 /home/badr/GNAT/2018-arm-elf/arm-eabi/lib/gnat/ravenscar-sfp-stm32h743nucleo/adalib/libgnat.a(s-parame.o)
 .debug_line    0x0000000000005947      0x1b0 /home/badr/GNAT/2018-arm-elf/arm-eabi/lib/gnat/ravenscar-sfp-stm32h743nucleo/adalib/libgnat.a(s-secsta.o)
 .debug_line    0x0000000000005af7      0x127 /home/badr/GNAT/2018-arm-elf/arm-eabi/lib/gnat/ravenscar-sfp-stm32h743nucleo/adalib/libgnat.a(s-textio.o)
 .debug_line    0x0000000000005c1e       0xc1 /home/badr/GNAT/2018-arm-elf/arm-eabi/lib/gnat/ravenscar-sfp-stm32h743nucleo/adalib/libgnat.a(start-rom.o)
 .debug_line    0x0000000000005cdf      0x159 /home/badr/GNAT/2018-arm-elf/arm-eabi/lib/gnat/ravenscar-sfp-stm32h743nucleo/adalib/libgnat.a(s-semiho.o)
 .debug_line    0x0000000000005e38       0xf1 /home/badr/GNAT/2018-arm-elf/arm-eabi/lib/gnat/ravenscar-sfp-stm32h743nucleo/adalib/libgnat.a(start-common.o)
 .debug_line    0x0000000000005f29       0x85 /home/badr/GNAT/2018-arm-elf/bin/../lib/gcc/arm-eabi/7.3.1/thumb/v7e-m/fpv5/hard/libgcc.a(_aeabi_ldivmod.o)
 .debug_line    0x0000000000005fae       0x67 /home/badr/GNAT/2018-arm-elf/bin/../lib/gcc/arm-eabi/7.3.1/thumb/v7e-m/fpv5/hard/libgcc.a(_aeabi_uldivmod.o)
 .debug_line    0x0000000000006015      0x267 /home/badr/GNAT/2018-arm-elf/bin/../lib/gcc/arm-eabi/7.3.1/thumb/v7e-m/fpv5/hard/libgcc.a(_udivmoddi4.o)
 .debug_line    0x000000000000627c       0x67 /home/badr/GNAT/2018-arm-elf/bin/../lib/gcc/arm-eabi/7.3.1/thumb/v7e-m/fpv5/hard/libgcc.a(_dvmd_tls.o)

.debug_frame    0x0000000000000000     0x3018
 *(.debug_frame)
 .debug_frame   0x0000000000000000       0xe0 /home/badr/hackinvent/Ada_Drivers_Library/boards/stm32h743_nucleo/obj/sfp_lib_Debug/libada_drivers_library.a(stm32-board.o)
 .debug_frame   0x00000000000000e0      0x20c /home/badr/hackinvent/Ada_Drivers_Library/boards/stm32h743_nucleo/obj/sfp_lib_Debug/libada_drivers_library.a(stm32-device.o)
 .debug_frame   0x00000000000002ec      0x128 /home/badr/hackinvent/Ada_Drivers_Library/boards/stm32h743_nucleo/obj/sfp_lib_Debug/libada_drivers_library.a(stm32-exti.o)
 .debug_frame   0x0000000000000414      0x670 /home/badr/hackinvent/Ada_Drivers_Library/boards/stm32h743_nucleo/obj/sfp_lib_Debug/libada_drivers_library.a(stm32-gpio.o)
 .debug_frame   0x0000000000000a84       0x30 /home/badr/hackinvent/Ada_Drivers_Library/boards/stm32h743_nucleo/obj/sfp_lib_Debug/libada_drivers_library.a(stm32-rcc.o)
 .debug_frame   0x0000000000000ab4      0x7cc /home/badr/hackinvent/Ada_Drivers_Library/boards/stm32h743_nucleo/obj/sfp_lib_Debug/libada_drivers_library.a(stm32-spi.o)
 .debug_frame   0x0000000000001280       0xd4 /home/badr/hackinvent/Ada_Drivers_Library/boards/stm32h743_nucleo/obj/sfp_lib_Debug/libada_drivers_library.a(stm32-syscfg.o)
 .debug_frame   0x0000000000001354       0x60 /home/badr/hackinvent/Ada_Drivers_Library/boards/stm32h743_nucleo/obj/sfp_lib_Debug/libada_drivers_library.a(hal-spi.o)
 .debug_frame   0x00000000000013b4      0x3e0 /home/badr/GNAT/2018-arm-elf/arm-eabi/lib/gnat/ravenscar-sfp-stm32h743nucleo/adalib/libgnarl.a(a-reatim.o)
 .debug_frame   0x0000000000001794       0x5c /home/badr/GNAT/2018-arm-elf/arm-eabi/lib/gnat/ravenscar-sfp-stm32h743nucleo/adalib/libgnarl.a(a-retide.o)
 .debug_frame   0x00000000000017f0      0x190 /home/badr/GNAT/2018-arm-elf/arm-eabi/lib/gnat/ravenscar-sfp-stm32h743nucleo/adalib/libgnarl.a(s-bbtiev.o)
 .debug_frame   0x0000000000001980      0x1bc /home/badr/GNAT/2018-arm-elf/arm-eabi/lib/gnat/ravenscar-sfp-stm32h743nucleo/adalib/libgnarl.a(s-bbtime.o)
 .debug_frame   0x0000000000001b3c      0x30c /home/badr/GNAT/2018-arm-elf/arm-eabi/lib/gnat/ravenscar-sfp-stm32h743nucleo/adalib/libgnarl.a(s-taprop.o)
 .debug_frame   0x0000000000001e48       0x34 /home/badr/GNAT/2018-arm-elf/arm-eabi/lib/gnat/ravenscar-sfp-stm32h743nucleo/adalib/libgnarl.a(s-tasdeb.o)
 .debug_frame   0x0000000000001e7c      0x10c /home/badr/GNAT/2018-arm-elf/arm-eabi/lib/gnat/ravenscar-sfp-stm32h743nucleo/adalib/libgnarl.a(s-taskin.o)
 .debug_frame   0x0000000000001f88      0x2f4 /home/badr/GNAT/2018-arm-elf/arm-eabi/lib/gnat/ravenscar-sfp-stm32h743nucleo/adalib/libgnarl.a(s-bbbosu.o)
 .debug_frame   0x000000000000227c      0x244 /home/badr/GNAT/2018-arm-elf/arm-eabi/lib/gnat/ravenscar-sfp-stm32h743nucleo/adalib/libgnarl.a(s-bbcppr.o)
 .debug_frame   0x00000000000024c0      0x118 /home/badr/GNAT/2018-arm-elf/arm-eabi/lib/gnat/ravenscar-sfp-stm32h743nucleo/adalib/libgnarl.a(s-bbinte.o)
 .debug_frame   0x00000000000025d8       0x48 /home/badr/GNAT/2018-arm-elf/arm-eabi/lib/gnat/ravenscar-sfp-stm32h743nucleo/adalib/libgnarl.a(s-bbprot.o)
 .debug_frame   0x0000000000002620      0x1c4 /home/badr/GNAT/2018-arm-elf/arm-eabi/lib/gnat/ravenscar-sfp-stm32h743nucleo/adalib/libgnarl.a(s-bbthqu.o)
 .debug_frame   0x00000000000027e4      0x200 /home/badr/GNAT/2018-arm-elf/arm-eabi/lib/gnat/ravenscar-sfp-stm32h743nucleo/adalib/libgnarl.a(s-bbthre.o)
 .debug_frame   0x00000000000029e4       0x60 /home/badr/GNAT/2018-arm-elf/arm-eabi/lib/gnat/ravenscar-sfp-stm32h743nucleo/adalib/libgnarl.a(s-bcpcst.o)
 .debug_frame   0x0000000000002a44       0x58 /home/badr/GNAT/2018-arm-elf/arm-eabi/lib/gnat/ravenscar-sfp-stm32h743nucleo/adalib/libgnat.a(a-elchha.o)
 .debug_frame   0x0000000000002a9c       0xcc /home/badr/GNAT/2018-arm-elf/arm-eabi/lib/gnat/ravenscar-sfp-stm32h743nucleo/adalib/libgnat.a(g-io.o)
 .debug_frame   0x0000000000002b68       0x30 /home/badr/GNAT/2018-arm-elf/arm-eabi/lib/gnat/ravenscar-sfp-stm32h743nucleo/adalib/libgnat.a(s-assert.o)
 .debug_frame   0x0000000000002b98       0x64 /home/badr/GNAT/2018-arm-elf/arm-eabi/lib/gnat/ravenscar-sfp-stm32h743nucleo/adalib/libgnat.a(s-macres.o)
 .debug_frame   0x0000000000002bfc       0x34 /home/badr/GNAT/2018-arm-elf/arm-eabi/lib/gnat/ravenscar-sfp-stm32h743nucleo/adalib/libgnat.a(s-memcop.o)
 .debug_frame   0x0000000000002c30       0x34 /home/badr/GNAT/2018-arm-elf/arm-eabi/lib/gnat/ravenscar-sfp-stm32h743nucleo/adalib/libgnat.a(s-memset.o)
 .debug_frame   0x0000000000002c64       0x38 /home/badr/GNAT/2018-arm-elf/arm-eabi/lib/gnat/ravenscar-sfp-stm32h743nucleo/adalib/libgnat.a(s-parame.o)
 .debug_frame   0x0000000000002c9c      0x10c /home/badr/GNAT/2018-arm-elf/arm-eabi/lib/gnat/ravenscar-sfp-stm32h743nucleo/adalib/libgnat.a(s-secsta.o)
 .debug_frame   0x0000000000002da8       0xd8 /home/badr/GNAT/2018-arm-elf/arm-eabi/lib/gnat/ravenscar-sfp-stm32h743nucleo/adalib/libgnat.a(s-textio.o)
 .debug_frame   0x0000000000002e80       0xf4 /home/badr/GNAT/2018-arm-elf/arm-eabi/lib/gnat/ravenscar-sfp-stm32h743nucleo/adalib/libgnat.a(s-semiho.o)
 .debug_frame   0x0000000000002f74       0x44 /home/badr/GNAT/2018-arm-elf/bin/../lib/gcc/arm-eabi/7.3.1/thumb/v7e-m/fpv5/hard/libgcc.a(_aeabi_ldivmod.o)
 .debug_frame   0x0000000000002fb8       0x2c /home/badr/GNAT/2018-arm-elf/bin/../lib/gcc/arm-eabi/7.3.1/thumb/v7e-m/fpv5/hard/libgcc.a(_aeabi_uldivmod.o)
 .debug_frame   0x0000000000002fe4       0x34 /home/badr/GNAT/2018-arm-elf/bin/../lib/gcc/arm-eabi/7.3.1/thumb/v7e-m/fpv5/hard/libgcc.a(_udivmoddi4.o)

.debug_str      0x0000000000000000     0xd551
 *(.debug_str)
 .debug_str     0x0000000000000000     0x1e0f /home/badr/hackinvent/Ada_Drivers_Library/boards/stm32h743_nucleo/obj/sfp_lib_Debug/libada_drivers_library.a(stm32-board.o)
                                       0x1ec4 (size before relaxing)
 .debug_str     0x0000000000001e0f     0x22d9 /home/badr/hackinvent/Ada_Drivers_Library/boards/stm32h743_nucleo/obj/sfp_lib_Debug/libada_drivers_library.a(stm32-device.o)
                                       0x3709 (size before relaxing)
 .debug_str     0x00000000000040e8      0x524 /home/badr/hackinvent/Ada_Drivers_Library/boards/stm32h743_nucleo/obj/sfp_lib_Debug/libada_drivers_library.a(stm32-exti.o)
                                        0x724 (size before relaxing)
 .debug_str     0x000000000000460c      0x52d /home/badr/hackinvent/Ada_Drivers_Library/boards/stm32h743_nucleo/obj/sfp_lib_Debug/libada_drivers_library.a(stm32-gpio.o)
                                       0x1aea (size before relaxing)
 .debug_str     0x0000000000004b39       0x94 /home/badr/hackinvent/Ada_Drivers_Library/boards/stm32h743_nucleo/obj/sfp_lib_Debug/libada_drivers_library.a(stm32-rcc.o)
                                        0x5a0 (size before relaxing)
 .debug_str     0x0000000000004bcd      0x6a4 /home/badr/hackinvent/Ada_Drivers_Library/boards/stm32h743_nucleo/obj/sfp_lib_Debug/libada_drivers_library.a(stm32-spi.o)
                                       0x157f (size before relaxing)
 .debug_str     0x0000000000005271      0x170 /home/badr/hackinvent/Ada_Drivers_Library/boards/stm32h743_nucleo/obj/sfp_lib_Debug/libada_drivers_library.a(stm32-syscfg.o)
                                       0x1033 (size before relaxing)
 .debug_str     0x00000000000053e1       0x3f /home/badr/hackinvent/Ada_Drivers_Library/boards/stm32h743_nucleo/obj/sfp_lib_Debug/libada_drivers_library.a(hal-gpio.o)
                                        0x256 (size before relaxing)
 .debug_str     0x0000000000005420       0x3e /home/badr/hackinvent/Ada_Drivers_Library/boards/stm32h743_nucleo/obj/sfp_lib_Debug/libada_drivers_library.a(hal-spi.o)
                                        0x29f (size before relaxing)
 .debug_str     0x000000000000545e      0x8c0 /home/badr/GNAT/2018-arm-elf/arm-eabi/lib/gnat/ravenscar-sfp-stm32h743nucleo/adalib/libgnarl.a(a-reatim.o)
                                        0x916 (size before relaxing)
 .debug_str     0x0000000000005d1e      0x364 /home/badr/GNAT/2018-arm-elf/arm-eabi/lib/gnat/ravenscar-sfp-stm32h743nucleo/adalib/libgnarl.a(a-retide.o)
                                        0x4c4 (size before relaxing)
 .debug_str     0x0000000000006082      0x684 /home/badr/GNAT/2018-arm-elf/arm-eabi/lib/gnat/ravenscar-sfp-stm32h743nucleo/adalib/libgnarl.a(s-bbtiev.o)
                                        0x8e1 (size before relaxing)
 .debug_str     0x0000000000006706      0x4ef /home/badr/GNAT/2018-arm-elf/arm-eabi/lib/gnat/ravenscar-sfp-stm32h743nucleo/adalib/libgnarl.a(s-bbtime.o)
                                        0xa26 (size before relaxing)
 .debug_str     0x0000000000006bf5     0x1125 /home/badr/GNAT/2018-arm-elf/arm-eabi/lib/gnat/ravenscar-sfp-stm32h743nucleo/adalib/libgnarl.a(s-taprop.o)
                                       0x1641 (size before relaxing)
 .debug_str     0x0000000000007d1a      0x26d /home/badr/GNAT/2018-arm-elf/arm-eabi/lib/gnat/ravenscar-sfp-stm32h743nucleo/adalib/libgnarl.a(s-tasdeb.o)
                                        0xe43 (size before relaxing)
 .debug_str     0x0000000000007f87      0x30f /home/badr/GNAT/2018-arm-elf/arm-eabi/lib/gnat/ravenscar-sfp-stm32h743nucleo/adalib/libgnarl.a(s-taskin.o)
                                       0x10b6 (size before relaxing)
 .debug_str     0x0000000000008296      0x792 /home/badr/GNAT/2018-arm-elf/arm-eabi/lib/gnat/ravenscar-sfp-stm32h743nucleo/adalib/libgnarl.a(s-bbbosu.o)
                                        0xb0e (size before relaxing)
 .debug_str     0x0000000000008a28      0x890 /home/badr/GNAT/2018-arm-elf/arm-eabi/lib/gnat/ravenscar-sfp-stm32h743nucleo/adalib/libgnarl.a(s-bbcppr.o)
                                        0xce9 (size before relaxing)
 .debug_str     0x00000000000092b8      0x36f /home/badr/GNAT/2018-arm-elf/arm-eabi/lib/gnat/ravenscar-sfp-stm32h743nucleo/adalib/libgnarl.a(s-bbinte.o)
                                        0x9c7 (size before relaxing)
 .debug_str     0x0000000000009627       0xef /home/badr/GNAT/2018-arm-elf/arm-eabi/lib/gnat/ravenscar-sfp-stm32h743nucleo/adalib/libgnarl.a(s-bbprot.o)
                                        0x3a4 (size before relaxing)
 .debug_str     0x0000000000009716      0x46a /home/badr/GNAT/2018-arm-elf/arm-eabi/lib/gnat/ravenscar-sfp-stm32h743nucleo/adalib/libgnarl.a(s-bbthqu.o)
                                        0x9ee (size before relaxing)
 .debug_str     0x0000000000009b80      0x27f /home/badr/GNAT/2018-arm-elf/arm-eabi/lib/gnat/ravenscar-sfp-stm32h743nucleo/adalib/libgnarl.a(s-bbthre.o)
                                        0x8ff (size before relaxing)
 .debug_str     0x0000000000009dff      0x2ff /home/badr/GNAT/2018-arm-elf/arm-eabi/lib/gnat/ravenscar-sfp-stm32h743nucleo/adalib/libgnarl.a(s-bcpcst.o)
                                        0x563 (size before relaxing)
 .debug_str     0x000000000000a0fe       0x81 /home/badr/GNAT/2018-arm-elf/arm-eabi/lib/gnat/ravenscar-sfp-stm32h743nucleo/adalib/libgnarl.a(handler.o)
                                         0xf1 (size before relaxing)
 .debug_str     0x000000000000a17f      0x371 /home/badr/GNAT/2018-arm-elf/arm-eabi/lib/gnat/ravenscar-sfp-stm32h743nucleo/adalib/libgnat.a(a-elchha.o)
                                        0x408 (size before relaxing)
 .debug_str     0x000000000000a4f0      0x2f5 /home/badr/GNAT/2018-arm-elf/arm-eabi/lib/gnat/ravenscar-sfp-stm32h743nucleo/adalib/libgnat.a(a-except.o)
                                        0x394 (size before relaxing)
 .debug_str     0x000000000000a7e5       0x66 /home/badr/GNAT/2018-arm-elf/arm-eabi/lib/gnat/ravenscar-sfp-stm32h743nucleo/adalib/libgnat.a(breakpoint_handler-cortexm.o)
                                         0xe5 (size before relaxing)
 .debug_str     0x000000000000a84b      0x2d2 /home/badr/GNAT/2018-arm-elf/arm-eabi/lib/gnat/ravenscar-sfp-stm32h743nucleo/adalib/libgnat.a(g-io.o)
                                        0x3d8 (size before relaxing)
 .debug_str     0x000000000000ab1d      0x243 /home/badr/GNAT/2018-arm-elf/arm-eabi/lib/gnat/ravenscar-sfp-stm32h743nucleo/adalib/libgnat.a(s-assert.o)
                                        0x3a1 (size before relaxing)
 .debug_str     0x000000000000ad60       0xb1 /home/badr/GNAT/2018-arm-elf/arm-eabi/lib/gnat/ravenscar-sfp-stm32h743nucleo/adalib/libgnat.a(s-macres.o)
                                        0x313 (size before relaxing)
 .debug_str     0x000000000000ae11       0xd8 /home/badr/GNAT/2018-arm-elf/arm-eabi/lib/gnat/ravenscar-sfp-stm32h743nucleo/adalib/libgnat.a(s-memcop.o)
                                        0x308 (size before relaxing)
 .debug_str     0x000000000000aee9       0x8c /home/badr/GNAT/2018-arm-elf/arm-eabi/lib/gnat/ravenscar-sfp-stm32h743nucleo/adalib/libgnat.a(s-memset.o)
                                        0x352 (size before relaxing)
 .debug_str     0x000000000000af75      0x201 /home/badr/GNAT/2018-arm-elf/arm-eabi/lib/gnat/ravenscar-sfp-stm32h743nucleo/adalib/libgnat.a(s-parame.o)
                                        0x487 (size before relaxing)
 .debug_str     0x000000000000b176      0x964 /home/badr/GNAT/2018-arm-elf/arm-eabi/lib/gnat/ravenscar-sfp-stm32h743nucleo/adalib/libgnat.a(s-secsta.o)
                                        0xd5a (size before relaxing)
 .debug_str     0x000000000000bada      0x2c6 /home/badr/GNAT/2018-arm-elf/arm-eabi/lib/gnat/ravenscar-sfp-stm32h743nucleo/adalib/libgnat.a(s-textio.o)
                                        0x348 (size before relaxing)
 .debug_str     0x000000000000bda0       0x73 /home/badr/GNAT/2018-arm-elf/arm-eabi/lib/gnat/ravenscar-sfp-stm32h743nucleo/adalib/libgnat.a(start-rom.o)
                                         0xf2 (size before relaxing)
 .debug_str     0x000000000000be13      0x2a5 /home/badr/GNAT/2018-arm-elf/arm-eabi/lib/gnat/ravenscar-sfp-stm32h743nucleo/adalib/libgnat.a(s-semiho.o)
                                        0x552 (size before relaxing)
 .debug_str     0x000000000000c0b8       0x66 /home/badr/GNAT/2018-arm-elf/arm-eabi/lib/gnat/ravenscar-sfp-stm32h743nucleo/adalib/libgnat.a(start-common.o)
                                         0xe5 (size before relaxing)
 .debug_str     0x000000000000c11e       0xa1 /home/badr/GNAT/2018-arm-elf/bin/../lib/gcc/arm-eabi/7.3.1/thumb/v7e-m/fpv5/hard/libgcc.a(_aeabi_ldivmod.o)
                                         0xb0 (size before relaxing)
 .debug_str     0x000000000000c1bf       0xb0 /home/badr/GNAT/2018-arm-elf/bin/../lib/gcc/arm-eabi/7.3.1/thumb/v7e-m/fpv5/hard/libgcc.a(_aeabi_uldivmod.o)
 .debug_str     0x000000000000c1bf     0x135b /home/badr/GNAT/2018-arm-elf/bin/../lib/gcc/arm-eabi/7.3.1/thumb/v7e-m/fpv5/hard/libgcc.a(_udivmoddi4.o)
                                       0x140c (size before relaxing)
 .debug_str     0x000000000000d51a       0x37 /home/badr/GNAT/2018-arm-elf/bin/../lib/gcc/arm-eabi/7.3.1/thumb/v7e-m/fpv5/hard/libgcc.a(_dvmd_tls.o)
                                         0xb4 (size before relaxing)

.debug_loc      0x0000000000000000      0xdaa
 *(.debug_loc)
 .debug_loc     0x0000000000000000      0xdaa /home/badr/GNAT/2018-arm-elf/bin/../lib/gcc/arm-eabi/7.3.1/thumb/v7e-m/fpv5/hard/libgcc.a(_udivmoddi4.o)

.debug_macinfo
 *(.debug_macinfo)

.debug_pubtypes
 *(.debug_pubtypes)

.debug_ranges   0x0000000000000000      0xa58
 *(.debug_ranges)
 .debug_ranges  0x0000000000000000       0x38 /home/badr/hackinvent/Ada_Drivers_Library/boards/stm32h743_nucleo/obj/sfp_lib_Debug/libada_drivers_library.a(stm32-board.o)
 .debug_ranges  0x0000000000000038       0x68 /home/badr/hackinvent/Ada_Drivers_Library/boards/stm32h743_nucleo/obj/sfp_lib_Debug/libada_drivers_library.a(stm32-device.o)
 .debug_ranges  0x00000000000000a0       0x40 /home/badr/hackinvent/Ada_Drivers_Library/boards/stm32h743_nucleo/obj/sfp_lib_Debug/libada_drivers_library.a(stm32-exti.o)
 .debug_ranges  0x00000000000000e0       0xe8 /home/badr/hackinvent/Ada_Drivers_Library/boards/stm32h743_nucleo/obj/sfp_lib_Debug/libada_drivers_library.a(stm32-gpio.o)
 .debug_ranges  0x00000000000001c8       0x10 /home/badr/hackinvent/Ada_Drivers_Library/boards/stm32h743_nucleo/obj/sfp_lib_Debug/libada_drivers_library.a(stm32-rcc.o)
 .debug_ranges  0x00000000000001d8      0x178 /home/badr/hackinvent/Ada_Drivers_Library/boards/stm32h743_nucleo/obj/sfp_lib_Debug/libada_drivers_library.a(stm32-spi.o)
 .debug_ranges  0x0000000000000350       0x30 /home/badr/hackinvent/Ada_Drivers_Library/boards/stm32h743_nucleo/obj/sfp_lib_Debug/libada_drivers_library.a(stm32-syscfg.o)
 .debug_ranges  0x0000000000000380       0xc8 /home/badr/GNAT/2018-arm-elf/arm-eabi/lib/gnat/ravenscar-sfp-stm32h743nucleo/adalib/libgnarl.a(a-reatim.o)
 .debug_ranges  0x0000000000000448       0x18 /home/badr/GNAT/2018-arm-elf/arm-eabi/lib/gnat/ravenscar-sfp-stm32h743nucleo/adalib/libgnarl.a(a-retide.o)
 .debug_ranges  0x0000000000000460       0x48 /home/badr/GNAT/2018-arm-elf/arm-eabi/lib/gnat/ravenscar-sfp-stm32h743nucleo/adalib/libgnarl.a(s-bbtiev.o)
 .debug_ranges  0x00000000000004a8       0x68 /home/badr/GNAT/2018-arm-elf/arm-eabi/lib/gnat/ravenscar-sfp-stm32h743nucleo/adalib/libgnarl.a(s-bbtime.o)
 .debug_ranges  0x0000000000000510       0x98 /home/badr/GNAT/2018-arm-elf/arm-eabi/lib/gnat/ravenscar-sfp-stm32h743nucleo/adalib/libgnarl.a(s-taprop.o)
 .debug_ranges  0x00000000000005a8       0x10 /home/badr/GNAT/2018-arm-elf/arm-eabi/lib/gnat/ravenscar-sfp-stm32h743nucleo/adalib/libgnarl.a(s-tasdeb.o)
 .debug_ranges  0x00000000000005b8       0x30 /home/badr/GNAT/2018-arm-elf/arm-eabi/lib/gnat/ravenscar-sfp-stm32h743nucleo/adalib/libgnarl.a(s-taskin.o)
 .debug_ranges  0x00000000000005e8       0xa0 /home/badr/GNAT/2018-arm-elf/arm-eabi/lib/gnat/ravenscar-sfp-stm32h743nucleo/adalib/libgnarl.a(s-bbbosu.o)
 .debug_ranges  0x0000000000000688       0x78 /home/badr/GNAT/2018-arm-elf/arm-eabi/lib/gnat/ravenscar-sfp-stm32h743nucleo/adalib/libgnarl.a(s-bbcppr.o)
 .debug_ranges  0x0000000000000700       0x30 /home/badr/GNAT/2018-arm-elf/arm-eabi/lib/gnat/ravenscar-sfp-stm32h743nucleo/adalib/libgnarl.a(s-bbinte.o)
 .debug_ranges  0x0000000000000730       0x18 /home/badr/GNAT/2018-arm-elf/arm-eabi/lib/gnat/ravenscar-sfp-stm32h743nucleo/adalib/libgnarl.a(s-bbprot.o)
 .debug_ranges  0x0000000000000748       0x68 /home/badr/GNAT/2018-arm-elf/arm-eabi/lib/gnat/ravenscar-sfp-stm32h743nucleo/adalib/libgnarl.a(s-bbthqu.o)
 .debug_ranges  0x00000000000007b0       0x70 /home/badr/GNAT/2018-arm-elf/arm-eabi/lib/gnat/ravenscar-sfp-stm32h743nucleo/adalib/libgnarl.a(s-bbthre.o)
 .debug_ranges  0x0000000000000820       0x20 /home/badr/GNAT/2018-arm-elf/arm-eabi/lib/gnat/ravenscar-sfp-stm32h743nucleo/adalib/libgnarl.a(s-bcpcst.o)
 .debug_ranges  0x0000000000000840       0x18 /home/badr/GNAT/2018-arm-elf/arm-eabi/lib/gnat/ravenscar-sfp-stm32h743nucleo/adalib/libgnat.a(a-elchha.o)
 .debug_ranges  0x0000000000000858       0x30 /home/badr/GNAT/2018-arm-elf/arm-eabi/lib/gnat/ravenscar-sfp-stm32h743nucleo/adalib/libgnat.a(g-io.o)
 .debug_ranges  0x0000000000000888       0x10 /home/badr/GNAT/2018-arm-elf/arm-eabi/lib/gnat/ravenscar-sfp-stm32h743nucleo/adalib/libgnat.a(s-assert.o)
 .debug_ranges  0x0000000000000898       0x20 /home/badr/GNAT/2018-arm-elf/arm-eabi/lib/gnat/ravenscar-sfp-stm32h743nucleo/adalib/libgnat.a(s-macres.o)
 .debug_ranges  0x00000000000008b8       0x10 /home/badr/GNAT/2018-arm-elf/arm-eabi/lib/gnat/ravenscar-sfp-stm32h743nucleo/adalib/libgnat.a(s-memcop.o)
 .debug_ranges  0x00000000000008c8       0x10 /home/badr/GNAT/2018-arm-elf/arm-eabi/lib/gnat/ravenscar-sfp-stm32h743nucleo/adalib/libgnat.a(s-memset.o)
 .debug_ranges  0x00000000000008d8       0x10 /home/badr/GNAT/2018-arm-elf/arm-eabi/lib/gnat/ravenscar-sfp-stm32h743nucleo/adalib/libgnat.a(s-parame.o)
 .debug_ranges  0x00000000000008e8       0x30 /home/badr/GNAT/2018-arm-elf/arm-eabi/lib/gnat/ravenscar-sfp-stm32h743nucleo/adalib/libgnat.a(s-secsta.o)
 .debug_ranges  0x0000000000000918       0x38 /home/badr/GNAT/2018-arm-elf/arm-eabi/lib/gnat/ravenscar-sfp-stm32h743nucleo/adalib/libgnat.a(s-textio.o)
 .debug_ranges  0x0000000000000950       0x30 /home/badr/GNAT/2018-arm-elf/arm-eabi/lib/gnat/ravenscar-sfp-stm32h743nucleo/adalib/libgnat.a(s-semiho.o)
 .debug_ranges  0x0000000000000980       0xd8 /home/badr/GNAT/2018-arm-elf/bin/../lib/gcc/arm-eabi/7.3.1/thumb/v7e-m/fpv5/hard/libgcc.a(_udivmoddi4.o)

.comment        0x0000000000000000       0x3d
 .comment       0x0000000000000000       0x3d spi.o
                                         0x3e (size before relaxing)
 .comment       0x000000000000003d       0x3e b__spi.o
 .comment       0x000000000000003d       0x3e /home/badr/hackinvent/Ada_Drivers_Library/boards/stm32h743_nucleo/obj/sfp_lib_Debug/libada_drivers_library.a(stm32-board.o)
 .comment       0x000000000000003d       0x3e /home/badr/hackinvent/Ada_Drivers_Library/boards/stm32h743_nucleo/obj/sfp_lib_Debug/libada_drivers_library.a(stm32-device.o)
 .comment       0x000000000000003d       0x3e /home/badr/hackinvent/Ada_Drivers_Library/boards/stm32h743_nucleo/obj/sfp_lib_Debug/libada_drivers_library.a(stm32-exti.o)
 .comment       0x000000000000003d       0x3e /home/badr/hackinvent/Ada_Drivers_Library/boards/stm32h743_nucleo/obj/sfp_lib_Debug/libada_drivers_library.a(stm32-gpio.o)
 .comment       0x000000000000003d       0x3e /home/badr/hackinvent/Ada_Drivers_Library/boards/stm32h743_nucleo/obj/sfp_lib_Debug/libada_drivers_library.a(stm32-rcc.o)
 .comment       0x000000000000003d       0x3e /home/badr/hackinvent/Ada_Drivers_Library/boards/stm32h743_nucleo/obj/sfp_lib_Debug/libada_drivers_library.a(stm32-spi.o)
 .comment       0x000000000000003d       0x3e /home/badr/hackinvent/Ada_Drivers_Library/boards/stm32h743_nucleo/obj/sfp_lib_Debug/libada_drivers_library.a(stm32-syscfg.o)
 .comment       0x000000000000003d       0x3e /home/badr/hackinvent/Ada_Drivers_Library/boards/stm32h743_nucleo/obj/sfp_lib_Debug/libada_drivers_library.a(hal-gpio.o)
 .comment       0x000000000000003d       0x3e /home/badr/hackinvent/Ada_Drivers_Library/boards/stm32h743_nucleo/obj/sfp_lib_Debug/libada_drivers_library.a(hal-spi.o)
 .comment       0x000000000000003d       0x3e /home/badr/GNAT/2018-arm-elf/arm-eabi/lib/gnat/ravenscar-sfp-stm32h743nucleo/adalib/libgnarl.a(a-reatim.o)
 .comment       0x000000000000003d       0x3e /home/badr/GNAT/2018-arm-elf/arm-eabi/lib/gnat/ravenscar-sfp-stm32h743nucleo/adalib/libgnarl.a(a-retide.o)
 .comment       0x000000000000003d       0x3e /home/badr/GNAT/2018-arm-elf/arm-eabi/lib/gnat/ravenscar-sfp-stm32h743nucleo/adalib/libgnarl.a(s-bbtiev.o)
 .comment       0x000000000000003d       0x3e /home/badr/GNAT/2018-arm-elf/arm-eabi/lib/gnat/ravenscar-sfp-stm32h743nucleo/adalib/libgnarl.a(s-bbtime.o)
 .comment       0x000000000000003d       0x3e /home/badr/GNAT/2018-arm-elf/arm-eabi/lib/gnat/ravenscar-sfp-stm32h743nucleo/adalib/libgnarl.a(s-taprop.o)
 .comment       0x000000000000003d       0x3e /home/badr/GNAT/2018-arm-elf/arm-eabi/lib/gnat/ravenscar-sfp-stm32h743nucleo/adalib/libgnarl.a(s-tasdeb.o)
 .comment       0x000000000000003d       0x3e /home/badr/GNAT/2018-arm-elf/arm-eabi/lib/gnat/ravenscar-sfp-stm32h743nucleo/adalib/libgnarl.a(s-taskin.o)
 .comment       0x000000000000003d       0x3e /home/badr/GNAT/2018-arm-elf/arm-eabi/lib/gnat/ravenscar-sfp-stm32h743nucleo/adalib/libgnarl.a(s-bbbosu.o)
 .comment       0x000000000000003d       0x3e /home/badr/GNAT/2018-arm-elf/arm-eabi/lib/gnat/ravenscar-sfp-stm32h743nucleo/adalib/libgnarl.a(s-bbcppr.o)
 .comment       0x000000000000003d       0x3e /home/badr/GNAT/2018-arm-elf/arm-eabi/lib/gnat/ravenscar-sfp-stm32h743nucleo/adalib/libgnarl.a(s-bbinte.o)
 .comment       0x000000000000003d       0x3e /home/badr/GNAT/2018-arm-elf/arm-eabi/lib/gnat/ravenscar-sfp-stm32h743nucleo/adalib/libgnarl.a(s-bbprot.o)
 .comment       0x000000000000003d       0x3e /home/badr/GNAT/2018-arm-elf/arm-eabi/lib/gnat/ravenscar-sfp-stm32h743nucleo/adalib/libgnarl.a(s-bbthqu.o)
 .comment       0x000000000000003d       0x3e /home/badr/GNAT/2018-arm-elf/arm-eabi/lib/gnat/ravenscar-sfp-stm32h743nucleo/adalib/libgnarl.a(s-bbthre.o)
 .comment       0x000000000000003d       0x3e /home/badr/GNAT/2018-arm-elf/arm-eabi/lib/gnat/ravenscar-sfp-stm32h743nucleo/adalib/libgnarl.a(s-bcpcst.o)
 .comment       0x000000000000003d       0x3e /home/badr/GNAT/2018-arm-elf/arm-eabi/lib/gnat/ravenscar-sfp-stm32h743nucleo/adalib/libgnat.a(a-elchha.o)
 .comment       0x000000000000003d       0x3e /home/badr/GNAT/2018-arm-elf/arm-eabi/lib/gnat/ravenscar-sfp-stm32h743nucleo/adalib/libgnat.a(a-except.o)
 .comment       0x000000000000003d       0x3e /home/badr/GNAT/2018-arm-elf/arm-eabi/lib/gnat/ravenscar-sfp-stm32h743nucleo/adalib/libgnat.a(g-io.o)
 .comment       0x000000000000003d       0x3e /home/badr/GNAT/2018-arm-elf/arm-eabi/lib/gnat/ravenscar-sfp-stm32h743nucleo/adalib/libgnat.a(s-assert.o)
 .comment       0x000000000000003d       0x3e /home/badr/GNAT/2018-arm-elf/arm-eabi/lib/gnat/ravenscar-sfp-stm32h743nucleo/adalib/libgnat.a(s-macres.o)
 .comment       0x000000000000003d       0x3e /home/badr/GNAT/2018-arm-elf/arm-eabi/lib/gnat/ravenscar-sfp-stm32h743nucleo/adalib/libgnat.a(s-memcop.o)
 .comment       0x000000000000003d       0x3e /home/badr/GNAT/2018-arm-elf/arm-eabi/lib/gnat/ravenscar-sfp-stm32h743nucleo/adalib/libgnat.a(s-memset.o)
 .comment       0x000000000000003d       0x3e /home/badr/GNAT/2018-arm-elf/arm-eabi/lib/gnat/ravenscar-sfp-stm32h743nucleo/adalib/libgnat.a(s-parame.o)
 .comment       0x000000000000003d       0x3e /home/badr/GNAT/2018-arm-elf/arm-eabi/lib/gnat/ravenscar-sfp-stm32h743nucleo/adalib/libgnat.a(s-secsta.o)
 .comment       0x000000000000003d       0x3e /home/badr/GNAT/2018-arm-elf/arm-eabi/lib/gnat/ravenscar-sfp-stm32h743nucleo/adalib/libgnat.a(s-textio.o)
 .comment       0x000000000000003d       0x3e /home/badr/GNAT/2018-arm-elf/arm-eabi/lib/gnat/ravenscar-sfp-stm32h743nucleo/adalib/libgnat.a(s-semiho.o)
 .comment       0x000000000000003d       0x3e /home/badr/GNAT/2018-arm-elf/bin/../lib/gcc/arm-eabi/7.3.1/thumb/v7e-m/fpv5/hard/libgcc.a(_udivmoddi4.o)

.ARM.attributes
                0x0000000000000000       0x35
 .ARM.attributes
                0x0000000000000000       0x35 spi.o
 .ARM.attributes
                0x0000000000000035       0x35 b__spi.o
 .ARM.attributes
                0x000000000000006a       0x35 /home/badr/hackinvent/Ada_Drivers_Library/boards/stm32h743_nucleo/obj/sfp_lib_Debug/libada_drivers_library.a(stm32-board.o)
 .ARM.attributes
                0x000000000000009f       0x35 /home/badr/hackinvent/Ada_Drivers_Library/boards/stm32h743_nucleo/obj/sfp_lib_Debug/libada_drivers_library.a(stm32-device.o)
 .ARM.attributes
                0x00000000000000d4       0x35 /home/badr/hackinvent/Ada_Drivers_Library/boards/stm32h743_nucleo/obj/sfp_lib_Debug/libada_drivers_library.a(stm32-exti.o)
 .ARM.attributes
                0x0000000000000109       0x35 /home/badr/hackinvent/Ada_Drivers_Library/boards/stm32h743_nucleo/obj/sfp_lib_Debug/libada_drivers_library.a(stm32-gpio.o)
 .ARM.attributes
                0x000000000000013e       0x35 /home/badr/hackinvent/Ada_Drivers_Library/boards/stm32h743_nucleo/obj/sfp_lib_Debug/libada_drivers_library.a(stm32-rcc.o)
 .ARM.attributes
                0x0000000000000173       0x35 /home/badr/hackinvent/Ada_Drivers_Library/boards/stm32h743_nucleo/obj/sfp_lib_Debug/libada_drivers_library.a(stm32-spi.o)
 .ARM.attributes
                0x00000000000001a8       0x35 /home/badr/hackinvent/Ada_Drivers_Library/boards/stm32h743_nucleo/obj/sfp_lib_Debug/libada_drivers_library.a(stm32-syscfg.o)
 .ARM.attributes
                0x00000000000001dd       0x35 /home/badr/hackinvent/Ada_Drivers_Library/boards/stm32h743_nucleo/obj/sfp_lib_Debug/libada_drivers_library.a(hal-gpio.o)
 .ARM.attributes
                0x0000000000000212       0x35 /home/badr/hackinvent/Ada_Drivers_Library/boards/stm32h743_nucleo/obj/sfp_lib_Debug/libada_drivers_library.a(hal-spi.o)
 .ARM.attributes
                0x0000000000000247       0x35 /home/badr/GNAT/2018-arm-elf/arm-eabi/lib/gnat/ravenscar-sfp-stm32h743nucleo/adalib/libgnarl.a(a-reatim.o)
 .ARM.attributes
                0x000000000000027c       0x35 /home/badr/GNAT/2018-arm-elf/arm-eabi/lib/gnat/ravenscar-sfp-stm32h743nucleo/adalib/libgnarl.a(a-retide.o)
 .ARM.attributes
                0x00000000000002b1       0x35 /home/badr/GNAT/2018-arm-elf/arm-eabi/lib/gnat/ravenscar-sfp-stm32h743nucleo/adalib/libgnarl.a(s-bbtiev.o)
 .ARM.attributes
                0x00000000000002e6       0x35 /home/badr/GNAT/2018-arm-elf/arm-eabi/lib/gnat/ravenscar-sfp-stm32h743nucleo/adalib/libgnarl.a(s-bbtime.o)
 .ARM.attributes
                0x000000000000031b       0x35 /home/badr/GNAT/2018-arm-elf/arm-eabi/lib/gnat/ravenscar-sfp-stm32h743nucleo/adalib/libgnarl.a(s-taprop.o)
 .ARM.attributes
                0x0000000000000350       0x35 /home/badr/GNAT/2018-arm-elf/arm-eabi/lib/gnat/ravenscar-sfp-stm32h743nucleo/adalib/libgnarl.a(s-tasdeb.o)
 .ARM.attributes
                0x0000000000000385       0x35 /home/badr/GNAT/2018-arm-elf/arm-eabi/lib/gnat/ravenscar-sfp-stm32h743nucleo/adalib/libgnarl.a(s-taskin.o)
 .ARM.attributes
                0x00000000000003ba       0x35 /home/badr/GNAT/2018-arm-elf/arm-eabi/lib/gnat/ravenscar-sfp-stm32h743nucleo/adalib/libgnarl.a(s-bbbosu.o)
 .ARM.attributes
                0x00000000000003ef       0x35 /home/badr/GNAT/2018-arm-elf/arm-eabi/lib/gnat/ravenscar-sfp-stm32h743nucleo/adalib/libgnarl.a(s-bbcppr.o)
 .ARM.attributes
                0x0000000000000424       0x35 /home/badr/GNAT/2018-arm-elf/arm-eabi/lib/gnat/ravenscar-sfp-stm32h743nucleo/adalib/libgnarl.a(s-bbinte.o)
 .ARM.attributes
                0x0000000000000459       0x35 /home/badr/GNAT/2018-arm-elf/arm-eabi/lib/gnat/ravenscar-sfp-stm32h743nucleo/adalib/libgnarl.a(s-bbprot.o)
 .ARM.attributes
                0x000000000000048e       0x35 /home/badr/GNAT/2018-arm-elf/arm-eabi/lib/gnat/ravenscar-sfp-stm32h743nucleo/adalib/libgnarl.a(s-bbthqu.o)
 .ARM.attributes
                0x00000000000004c3       0x35 /home/badr/GNAT/2018-arm-elf/arm-eabi/lib/gnat/ravenscar-sfp-stm32h743nucleo/adalib/libgnarl.a(s-bbthre.o)
 .ARM.attributes
                0x00000000000004f8       0x35 /home/badr/GNAT/2018-arm-elf/arm-eabi/lib/gnat/ravenscar-sfp-stm32h743nucleo/adalib/libgnarl.a(s-bcpcst.o)
 .ARM.attributes
                0x000000000000052d       0x23 /home/badr/GNAT/2018-arm-elf/arm-eabi/lib/gnat/ravenscar-sfp-stm32h743nucleo/adalib/libgnarl.a(handler.o)
 .ARM.attributes
                0x0000000000000550       0x35 /home/badr/GNAT/2018-arm-elf/arm-eabi/lib/gnat/ravenscar-sfp-stm32h743nucleo/adalib/libgnat.a(a-elchha.o)
 .ARM.attributes
                0x0000000000000585       0x35 /home/badr/GNAT/2018-arm-elf/arm-eabi/lib/gnat/ravenscar-sfp-stm32h743nucleo/adalib/libgnat.a(a-except.o)
 .ARM.attributes
                0x00000000000005ba       0x23 /home/badr/GNAT/2018-arm-elf/arm-eabi/lib/gnat/ravenscar-sfp-stm32h743nucleo/adalib/libgnat.a(breakpoint_handler-cortexm.o)
 .ARM.attributes
                0x00000000000005dd       0x35 /home/badr/GNAT/2018-arm-elf/arm-eabi/lib/gnat/ravenscar-sfp-stm32h743nucleo/adalib/libgnat.a(g-io.o)
 .ARM.attributes
                0x0000000000000612       0x35 /home/badr/GNAT/2018-arm-elf/arm-eabi/lib/gnat/ravenscar-sfp-stm32h743nucleo/adalib/libgnat.a(s-assert.o)
 .ARM.attributes
                0x0000000000000647       0x35 /home/badr/GNAT/2018-arm-elf/arm-eabi/lib/gnat/ravenscar-sfp-stm32h743nucleo/adalib/libgnat.a(s-macres.o)
 .ARM.attributes
                0x000000000000067c       0x35 /home/badr/GNAT/2018-arm-elf/arm-eabi/lib/gnat/ravenscar-sfp-stm32h743nucleo/adalib/libgnat.a(s-memcop.o)
 .ARM.attributes
                0x00000000000006b1       0x35 /home/badr/GNAT/2018-arm-elf/arm-eabi/lib/gnat/ravenscar-sfp-stm32h743nucleo/adalib/libgnat.a(s-memset.o)
 .ARM.attributes
                0x00000000000006e6       0x35 /home/badr/GNAT/2018-arm-elf/arm-eabi/lib/gnat/ravenscar-sfp-stm32h743nucleo/adalib/libgnat.a(s-parame.o)
 .ARM.attributes
                0x000000000000071b       0x35 /home/badr/GNAT/2018-arm-elf/arm-eabi/lib/gnat/ravenscar-sfp-stm32h743nucleo/adalib/libgnat.a(s-secsta.o)
 .ARM.attributes
                0x0000000000000750       0x35 /home/badr/GNAT/2018-arm-elf/arm-eabi/lib/gnat/ravenscar-sfp-stm32h743nucleo/adalib/libgnat.a(s-textio.o)
 .ARM.attributes
                0x0000000000000785       0x23 /home/badr/GNAT/2018-arm-elf/arm-eabi/lib/gnat/ravenscar-sfp-stm32h743nucleo/adalib/libgnat.a(start-rom.o)
 .ARM.attributes
                0x00000000000007a8       0x35 /home/badr/GNAT/2018-arm-elf/arm-eabi/lib/gnat/ravenscar-sfp-stm32h743nucleo/adalib/libgnat.a(s-semiho.o)
 .ARM.attributes
                0x00000000000007dd       0x23 /home/badr/GNAT/2018-arm-elf/arm-eabi/lib/gnat/ravenscar-sfp-stm32h743nucleo/adalib/libgnat.a(start-common.o)
 .ARM.attributes
                0x0000000000000800       0x20 /home/badr/GNAT/2018-arm-elf/bin/../lib/gcc/arm-eabi/7.3.1/thumb/v7e-m/fpv5/hard/libgcc.a(_aeabi_ldivmod.o)
 .ARM.attributes
                0x0000000000000820       0x20 /home/badr/GNAT/2018-arm-elf/bin/../lib/gcc/arm-eabi/7.3.1/thumb/v7e-m/fpv5/hard/libgcc.a(_aeabi_uldivmod.o)
 .ARM.attributes
                0x0000000000000840       0x32 /home/badr/GNAT/2018-arm-elf/bin/../lib/gcc/arm-eabi/7.3.1/thumb/v7e-m/fpv5/hard/libgcc.a(_udivmoddi4.o)
 .ARM.attributes
                0x0000000000000872       0x20 /home/badr/GNAT/2018-arm-elf/bin/../lib/gcc/arm-eabi/7.3.1/thumb/v7e-m/fpv5/hard/libgcc.a(_dvmd_tls.o)

.gnu.attributes
 *(.gnu.attributes)

/DISCARD/
 *(.note.GNU-stack)
 *(.gnu_debuglink)
 *(.gnu.lto_*)
OUTPUT(spi elf32-littlearm)
