Archive member included to satisfy reference by file (symbol)

/home/badr/hackinvent/Ada_Drivers_Library/boards/stm32h743_nucleo/obj/sfp_lib_Debug/libada_drivers_library.a(stm32-device.o)
                              blink.o (stm32__device__enable_clock_main)
/home/badr/hackinvent/Ada_Drivers_Library/boards/stm32h743_nucleo/obj/sfp_lib_Debug/libada_drivers_library.a(stm32-exti.o)
                              b__blink.o (stm32__exti_E)
/home/badr/hackinvent/Ada_Drivers_Library/boards/stm32h743_nucleo/obj/sfp_lib_Debug/libada_drivers_library.a(stm32-gpio.o)
                              /home/badr/hackinvent/Ada_Drivers_Library/boards/stm32h743_nucleo/obj/sfp_lib_Debug/libada_drivers_library.a(stm32-device.o) (stm32__gpio__gpio_pointT)
/home/badr/hackinvent/Ada_Drivers_Library/boards/stm32h743_nucleo/obj/sfp_lib_Debug/libada_drivers_library.a(stm32-rcc.o)
                              /home/badr/hackinvent/Ada_Drivers_Library/boards/stm32h743_nucleo/obj/sfp_lib_Debug/libada_drivers_library.a(stm32-gpio.o) (stm32__rcc__syscfg_clock_enable)
/home/badr/hackinvent/Ada_Drivers_Library/boards/stm32h743_nucleo/obj/sfp_lib_Debug/libada_drivers_library.a(stm32-syscfg.o)
                              /home/badr/hackinvent/Ada_Drivers_Library/boards/stm32h743_nucleo/obj/sfp_lib_Debug/libada_drivers_library.a(stm32-gpio.o) (stm32__syscfg__connect_external_interrupt__2)
/home/badr/hackinvent/Ada_Drivers_Library/boards/stm32h743_nucleo/obj/sfp_lib_Debug/libada_drivers_library.a(hal-gpio.o)
                              /home/badr/hackinvent/Ada_Drivers_Library/boards/stm32h743_nucleo/obj/sfp_lib_Debug/libada_drivers_library.a(stm32-gpio.o) (hal__gpio__gpio_pointT)
/home/badr/GNAT/2018-arm-elf/arm-eabi/lib/gnat/ravenscar-sfp-stm32h743nucleo/adalib/libgnarl.a(a-reatim.o)
                              blink.o (ada__real_time__Oadd)
/home/badr/GNAT/2018-arm-elf/arm-eabi/lib/gnat/ravenscar-sfp-stm32h743nucleo/adalib/libgnarl.a(a-retide.o)
                              blink.o (ada__real_time__delays__delay_until)
/home/badr/GNAT/2018-arm-elf/arm-eabi/lib/gnat/ravenscar-sfp-stm32h743nucleo/adalib/libgnarl.a(s-bbtiev.o)
                              b__blink.o (system__bb__timing_events___elabb)
/home/badr/GNAT/2018-arm-elf/arm-eabi/lib/gnat/ravenscar-sfp-stm32h743nucleo/adalib/libgnarl.a(s-bbtime.o)
                              /home/badr/GNAT/2018-arm-elf/arm-eabi/lib/gnat/ravenscar-sfp-stm32h743nucleo/adalib/libgnarl.a(s-bbtiev.o) (system__bb__time__get_next_timeout)
/home/badr/GNAT/2018-arm-elf/arm-eabi/lib/gnat/ravenscar-sfp-stm32h743nucleo/adalib/libgnarl.a(s-taprop.o)
                              /home/badr/GNAT/2018-arm-elf/arm-eabi/lib/gnat/ravenscar-sfp-stm32h743nucleo/adalib/libgnarl.a(a-retide.o) (system__task_primitives__operations(short,...)(long, float))
/home/badr/GNAT/2018-arm-elf/arm-eabi/lib/gnat/ravenscar-sfp-stm32h743nucleo/adalib/libgnarl.a(s-tasdeb.o)
                              /home/badr/GNAT/2018-arm-elf/arm-eabi/lib/gnat/ravenscar-sfp-stm32h743nucleo/adalib/libgnarl.a(s-taprop.o) (system__tasking__debug__add_task_id)
/home/badr/GNAT/2018-arm-elf/arm-eabi/lib/gnat/ravenscar-sfp-stm32h743nucleo/adalib/libgnarl.a(s-taskin.o)
                              /home/badr/GNAT/2018-arm-elf/arm-eabi/lib/gnat/ravenscar-sfp-stm32h743nucleo/adalib/libgnarl.a(s-taprop.o) (system__tasking__initialize_atcb)
/home/badr/GNAT/2018-arm-elf/arm-eabi/lib/gnat/ravenscar-sfp-stm32h743nucleo/adalib/libgnarl.a(s-bbbosu.o)
                              /home/badr/GNAT/2018-arm-elf/arm-eabi/lib/gnat/ravenscar-sfp-stm32h743nucleo/adalib/libgnarl.a(s-bbtime.o) (system__bb__board_support__time__max_timer_interval)
/home/badr/GNAT/2018-arm-elf/arm-eabi/lib/gnat/ravenscar-sfp-stm32h743nucleo/adalib/libgnarl.a(s-bbcppr.o)
                              /home/badr/GNAT/2018-arm-elf/arm-eabi/lib/gnat/ravenscar-sfp-stm32h743nucleo/adalib/libgnarl.a(s-bbbosu.o) (system__bb__cpu_primitives__enable_interrupts)
/home/badr/GNAT/2018-arm-elf/arm-eabi/lib/gnat/ravenscar-sfp-stm32h743nucleo/adalib/libgnarl.a(s-bbinte.o)
                              /home/badr/GNAT/2018-arm-elf/arm-eabi/lib/gnat/ravenscar-sfp-stm32h743nucleo/adalib/libgnarl.a(s-bbbosu.o) (system__bb__interrupts__attach_handler)
/home/badr/GNAT/2018-arm-elf/arm-eabi/lib/gnat/ravenscar-sfp-stm32h743nucleo/adalib/libgnarl.a(s-bbprot.o)
                              /home/badr/GNAT/2018-arm-elf/arm-eabi/lib/gnat/ravenscar-sfp-stm32h743nucleo/adalib/libgnarl.a(s-bbtime.o) (system__bb__protection__enter_kernel)
/home/badr/GNAT/2018-arm-elf/arm-eabi/lib/gnat/ravenscar-sfp-stm32h743nucleo/adalib/libgnarl.a(s-bbthqu.o)
                              /home/badr/GNAT/2018-arm-elf/arm-eabi/lib/gnat/ravenscar-sfp-stm32h743nucleo/adalib/libgnarl.a(s-bbtiev.o) (system__bb__threads__queues__change_priority)
/home/badr/GNAT/2018-arm-elf/arm-eabi/lib/gnat/ravenscar-sfp-stm32h743nucleo/adalib/libgnarl.a(s-bbthre.o)
                              /home/badr/GNAT/2018-arm-elf/arm-eabi/lib/gnat/ravenscar-sfp-stm32h743nucleo/adalib/libgnarl.a(s-taprop.o) (system__bb__threads__get_affinity)
/home/badr/GNAT/2018-arm-elf/arm-eabi/lib/gnat/ravenscar-sfp-stm32h743nucleo/adalib/libgnarl.a(s-bcpcst.o)
                              /home/badr/GNAT/2018-arm-elf/arm-eabi/lib/gnat/ravenscar-sfp-stm32h743nucleo/adalib/libgnarl.a(s-bbcppr.o) (system__bb__cpu_primitives__context_switch_trigger__initialize_context_switch)
/home/badr/GNAT/2018-arm-elf/arm-eabi/lib/gnat/ravenscar-sfp-stm32h743nucleo/adalib/libgnarl.a(handler.o)
                              /home/badr/GNAT/2018-arm-elf/arm-eabi/lib/gnat/ravenscar-sfp-stm32h743nucleo/adalib/libgnarl.a(s-bbcppr.o) (__vectors)
/home/badr/GNAT/2018-arm-elf/arm-eabi/lib/gnat/ravenscar-sfp-stm32h743nucleo/adalib/libgnat.a(a-elchha.o)
                              /home/badr/hackinvent/Ada_Drivers_Library/boards/stm32h743_nucleo/obj/sfp_lib_Debug/libada_drivers_library.a(stm32-device.o) (__gnat_last_chance_handler)
/home/badr/GNAT/2018-arm-elf/arm-eabi/lib/gnat/ravenscar-sfp-stm32h743nucleo/adalib/libgnat.a(a-except.o)
                              /home/badr/hackinvent/Ada_Drivers_Library/boards/stm32h743_nucleo/obj/sfp_lib_Debug/libada_drivers_library.a(stm32-device.o) (ada__exceptions__empty_c_string___UNC)
/home/badr/GNAT/2018-arm-elf/arm-eabi/lib/gnat/ravenscar-sfp-stm32h743nucleo/adalib/libgnat.a(breakpoint_handler-cortexm.o)
                              /home/badr/GNAT/2018-arm-elf/arm-eabi/lib/gnat/ravenscar-sfp-stm32h743nucleo/adalib/libgnarl.a(handler.o) (__gnat_bkpt_trap)
/home/badr/GNAT/2018-arm-elf/arm-eabi/lib/gnat/ravenscar-sfp-stm32h743nucleo/adalib/libgnat.a(g-io.o)
                              /home/badr/GNAT/2018-arm-elf/arm-eabi/lib/gnat/ravenscar-sfp-stm32h743nucleo/adalib/libgnat.a(a-elchha.o) (gnat__io__put__2)
/home/badr/GNAT/2018-arm-elf/arm-eabi/lib/gnat/ravenscar-sfp-stm32h743nucleo/adalib/libgnat.a(s-assert.o)
                              /home/badr/hackinvent/Ada_Drivers_Library/boards/stm32h743_nucleo/obj/sfp_lib_Debug/libada_drivers_library.a(stm32-gpio.o) (system__assertions__raise_assert_failure)
/home/badr/GNAT/2018-arm-elf/arm-eabi/lib/gnat/ravenscar-sfp-stm32h743nucleo/adalib/libgnat.a(s-macres.o)
                              /home/badr/GNAT/2018-arm-elf/arm-eabi/lib/gnat/ravenscar-sfp-stm32h743nucleo/adalib/libgnat.a(a-elchha.o) (system__machine_reset__stop)
/home/badr/GNAT/2018-arm-elf/arm-eabi/lib/gnat/ravenscar-sfp-stm32h743nucleo/adalib/libgnat.a(s-memcop.o)
                              /home/badr/hackinvent/Ada_Drivers_Library/boards/stm32h743_nucleo/obj/sfp_lib_Debug/libada_drivers_library.a(stm32-device.o) (memcpy)
/home/badr/GNAT/2018-arm-elf/arm-eabi/lib/gnat/ravenscar-sfp-stm32h743nucleo/adalib/libgnat.a(s-memset.o)
                              /home/badr/GNAT/2018-arm-elf/arm-eabi/lib/gnat/ravenscar-sfp-stm32h743nucleo/adalib/libgnarl.a(s-bbcppr.o) (memset)
/home/badr/GNAT/2018-arm-elf/arm-eabi/lib/gnat/ravenscar-sfp-stm32h743nucleo/adalib/libgnat.a(s-parame.o)
                              /home/badr/GNAT/2018-arm-elf/arm-eabi/lib/gnat/ravenscar-sfp-stm32h743nucleo/adalib/libgnarl.a(s-taskin.o) (system__parameters__adjust_storage_size)
/home/badr/GNAT/2018-arm-elf/arm-eabi/lib/gnat/ravenscar-sfp-stm32h743nucleo/adalib/libgnat.a(s-secsta.o)
                              b__blink.o (system__secondary_stack__ss_stackIP)
/home/badr/GNAT/2018-arm-elf/arm-eabi/lib/gnat/ravenscar-sfp-stm32h743nucleo/adalib/libgnat.a(s-textio.o)
                              /home/badr/GNAT/2018-arm-elf/arm-eabi/lib/gnat/ravenscar-sfp-stm32h743nucleo/adalib/libgnat.a(g-io.o) (system__text_io__initialize)
/home/badr/GNAT/2018-arm-elf/arm-eabi/lib/gnat/ravenscar-sfp-stm32h743nucleo/adalib/libgnat.a(start-rom.o)
                              (_start_rom)
/home/badr/GNAT/2018-arm-elf/arm-eabi/lib/gnat/ravenscar-sfp-stm32h743nucleo/adalib/libgnat.a(s-semiho.o)
                              /home/badr/GNAT/2018-arm-elf/arm-eabi/lib/gnat/ravenscar-sfp-stm32h743nucleo/adalib/libgnat.a(s-textio.o) (system__semihosting__put)
/home/badr/GNAT/2018-arm-elf/arm-eabi/lib/gnat/ravenscar-sfp-stm32h743nucleo/adalib/libgnat.a(start-common.o)
                              /home/badr/GNAT/2018-arm-elf/arm-eabi/lib/gnat/ravenscar-sfp-stm32h743nucleo/adalib/libgnat.a(start-rom.o) (_stm32_start_common)
/home/badr/GNAT/2018-arm-elf/bin/../lib/gcc/arm-eabi/7.3.1/thumb/v7e-m/fpv5/hard/libgcc.a(_aeabi_ldivmod.o)
                              /home/badr/GNAT/2018-arm-elf/arm-eabi/lib/gnat/ravenscar-sfp-stm32h743nucleo/adalib/libgnarl.a(a-reatim.o) (__aeabi_ldivmod)
/home/badr/GNAT/2018-arm-elf/bin/../lib/gcc/arm-eabi/7.3.1/thumb/v7e-m/fpv5/hard/libgcc.a(_aeabi_uldivmod.o)
                              /home/badr/GNAT/2018-arm-elf/arm-eabi/lib/gnat/ravenscar-sfp-stm32h743nucleo/adalib/libgnarl.a(a-reatim.o) (__aeabi_uldivmod)
/home/badr/GNAT/2018-arm-elf/bin/../lib/gcc/arm-eabi/7.3.1/thumb/v7e-m/fpv5/hard/libgcc.a(_udivmoddi4.o)
                              /home/badr/GNAT/2018-arm-elf/bin/../lib/gcc/arm-eabi/7.3.1/thumb/v7e-m/fpv5/hard/libgcc.a(_aeabi_ldivmod.o) (__udivmoddi4)
/home/badr/GNAT/2018-arm-elf/bin/../lib/gcc/arm-eabi/7.3.1/thumb/v7e-m/fpv5/hard/libgcc.a(_dvmd_tls.o)
                              /home/badr/GNAT/2018-arm-elf/bin/../lib/gcc/arm-eabi/7.3.1/thumb/v7e-m/fpv5/hard/libgcc.a(_aeabi_ldivmod.o) (__aeabi_ldiv0)

Memory Configuration

Name             Origin             Length             Attributes
ITCMRAM          0x0000000000000000 0x0000000000010000 xrw
FLASH            0x0000000008000000 0x0000000000200000 xr
DTCMRAM          0x0000000020000000 0x0000000000020000 xrw
RAM_D1           0x0000000024000000 0x0000000000080000 xrw
RAM_D2           0x0000000030000000 0x0000000000048000 xrw
RAM_D3           0x0000000038000000 0x0000000000010000 xrw
*default*        0x0000000000000000 0xffffffffffffffff

Linker script and memory map

LOAD blink.o
LOAD b__blink.o
LOAD /home/badr/hackinvent/Ada_Drivers_Library/boards/stm32h743_nucleo/obj/sfp_lib_Debug/libada_drivers_library.a
LOAD /home/badr/GNAT/2018-arm-elf/arm-eabi/lib/gnat/ravenscar-sfp-stm32h743nucleo/adalib/libgnarl.a
LOAD /home/badr/GNAT/2018-arm-elf/arm-eabi/lib/gnat/ravenscar-sfp-stm32h743nucleo/adalib/libgnat.a
START GROUP
LOAD /home/badr/GNAT/2018-arm-elf/bin/../lib/gcc/arm-eabi/7.3.1/thumb/v7e-m/fpv5/hard/libgcc.a
END GROUP
                0x0000000020020000                _estack = 0x20020000
                0x0000000000000200                _Min_Heap_Size = 0x200
                0x0000000000000400                _Min_Stack_Size = 0x400
                0x0000000000000000                __DYNAMIC = 0x0
                0x0000000000001000                _DEFAULT_STACK_SIZE = 0x1000

.text           0x0000000008000000     0x92f4
 *(.vectors)
 .vectors       0x0000000008000000       0x14 /home/badr/GNAT/2018-arm-elf/arm-eabi/lib/gnat/ravenscar-sfp-stm32h743nucleo/adalib/libgnat.a(start-rom.o)
 *(.text .text.* .gnu.linkonce.t*)
 .text          0x0000000008000014       0x78 blink.o
                0x0000000008000040                _ada_blink
 .text          0x000000000800008c      0x13c b__blink.o
                0x000000000800008c                ada_main__Tsec_default_sized_stacksBIP
                0x00000000080000d0                adainit
                0x0000000008000190                main
                0x00000000080001ac                ada_main___elabb
 .text          0x00000000080001c8        0x0 /home/badr/hackinvent/Ada_Drivers_Library/boards/stm32h743_nucleo/obj/sfp_lib_Debug/libada_drivers_library.a(stm32-device.o)
 .text.stm32__device__rcc_system_clocksIP
                0x00000000080001c8       0x14 /home/badr/hackinvent/Ada_Drivers_Library/boards/stm32h743_nucleo/obj/sfp_lib_Debug/libada_drivers_library.a(stm32-device.o)
                0x00000000080001c8                stm32__device__rcc_system_clocksIP
 .text.stm32__device__enable_clock_main
                0x00000000080001dc      0x364 /home/badr/hackinvent/Ada_Drivers_Library/boards/stm32h743_nucleo/obj/sfp_lib_Debug/libada_drivers_library.a(stm32-device.o)
                0x00000000080001dc                stm32__device__enable_clock_main
 .text.stm32__device__enable_clock
                0x0000000008000540      0x2f0 /home/badr/hackinvent/Ada_Drivers_Library/boards/stm32h743_nucleo/obj/sfp_lib_Debug/libada_drivers_library.a(stm32-device.o)
                0x0000000008000540                stm32__device__enable_clock
 .text.stm32__device__enable_clock__2
                0x0000000008000830       0x18 /home/badr/hackinvent/Ada_Drivers_Library/boards/stm32h743_nucleo/obj/sfp_lib_Debug/libada_drivers_library.a(stm32-device.o)
                0x0000000008000830                stm32__device__enable_clock__2
 .text.stm32__device__enable_clock__3
                0x0000000008000848       0x4c /home/badr/hackinvent/Ada_Drivers_Library/boards/stm32h743_nucleo/obj/sfp_lib_Debug/libada_drivers_library.a(stm32-device.o)
                0x0000000008000848                stm32__device__enable_clock__3
 .text.stm32__device__reset
                0x0000000008000894      0x3a4 /home/badr/hackinvent/Ada_Drivers_Library/boards/stm32h743_nucleo/obj/sfp_lib_Debug/libada_drivers_library.a(stm32-device.o)
                0x0000000008000894                stm32__device__reset
 .text.stm32__device__reset__2
                0x0000000008000c38       0x18 /home/badr/hackinvent/Ada_Drivers_Library/boards/stm32h743_nucleo/obj/sfp_lib_Debug/libada_drivers_library.a(stm32-device.o)
                0x0000000008000c38                stm32__device__reset__2
 .text.stm32__device__reset__3
                0x0000000008000c50       0xbc /home/badr/hackinvent/Ada_Drivers_Library/boards/stm32h743_nucleo/obj/sfp_lib_Debug/libada_drivers_library.a(stm32-device.o)
                0x0000000008000c50                stm32__device__reset__3
 .text.stm32__device__gpio_port_representation
                0x0000000008000d0c       0xd0 /home/badr/hackinvent/Ada_Drivers_Library/boards/stm32h743_nucleo/obj/sfp_lib_Debug/libada_drivers_library.a(stm32-device.o)
                0x0000000008000d0c                stm32__device__gpio_port_representation
 .text.stm32__device__system_clock_frequencies
                0x0000000008000ddc       0xf8 /home/badr/hackinvent/Ada_Drivers_Library/boards/stm32h743_nucleo/obj/sfp_lib_Debug/libada_drivers_library.a(stm32-device.o)
                0x0000000008000ddc                stm32__device__system_clock_frequencies
 .text.stm32__device___elabs
                0x0000000008000ed4     0x105c /home/badr/hackinvent/Ada_Drivers_Library/boards/stm32h743_nucleo/obj/sfp_lib_Debug/libada_drivers_library.a(stm32-device.o)
                0x0000000008000ed4                stm32__device___elabs
 .text          0x0000000008001f30        0x0 /home/badr/hackinvent/Ada_Drivers_Library/boards/stm32h743_nucleo/obj/sfp_lib_Debug/libada_drivers_library.a(stm32-exti.o)
 .text.stm32__exti__enable_external_interrupt
                0x0000000008001f30       0x1c /home/badr/hackinvent/Ada_Drivers_Library/boards/stm32h743_nucleo/obj/sfp_lib_Debug/libada_drivers_library.a(stm32-exti.o)
                0x0000000008001f30                stm32__exti__enable_external_interrupt
 .text.stm32__exti__disable_external_interrupt
                0x0000000008001f4c       0x18 /home/badr/hackinvent/Ada_Drivers_Library/boards/stm32h743_nucleo/obj/sfp_lib_Debug/libada_drivers_library.a(stm32-exti.o)
                0x0000000008001f4c                stm32__exti__disable_external_interrupt
 .text.stm32__exti__enable_external_event
                0x0000000008001f64       0x1c /home/badr/hackinvent/Ada_Drivers_Library/boards/stm32h743_nucleo/obj/sfp_lib_Debug/libada_drivers_library.a(stm32-exti.o)
                0x0000000008001f64                stm32__exti__enable_external_event
 .text.stm32__exti__disable_external_event
                0x0000000008001f80       0x18 /home/badr/hackinvent/Ada_Drivers_Library/boards/stm32h743_nucleo/obj/sfp_lib_Debug/libada_drivers_library.a(stm32-exti.o)
                0x0000000008001f80                stm32__exti__disable_external_event
 .text.stm32__exti__generate_swi
                0x0000000008001f98       0x18 /home/badr/hackinvent/Ada_Drivers_Library/boards/stm32h743_nucleo/obj/sfp_lib_Debug/libada_drivers_library.a(stm32-exti.o)
                0x0000000008001f98                stm32__exti__generate_swi
 .text.stm32__exti__external_interrupt_pending
                0x0000000008001fb0       0x1c /home/badr/hackinvent/Ada_Drivers_Library/boards/stm32h743_nucleo/obj/sfp_lib_Debug/libada_drivers_library.a(stm32-exti.o)
                0x0000000008001fb0                stm32__exti__external_interrupt_pending
 .text.stm32__exti__clear_external_interrupt
                0x0000000008001fcc       0x18 /home/badr/hackinvent/Ada_Drivers_Library/boards/stm32h743_nucleo/obj/sfp_lib_Debug/libada_drivers_library.a(stm32-exti.o)
                0x0000000008001fcc                stm32__exti__clear_external_interrupt
 .text          0x0000000008001fe4        0x0 /home/badr/hackinvent/Ada_Drivers_Library/boards/stm32h743_nucleo/obj/sfp_lib_Debug/libada_drivers_library.a(stm32-gpio.o)
 .text.stm32__gpio__gpio_pinRP
                0x0000000008001fe4       0xd0 /home/badr/hackinvent/Ada_Drivers_Library/boards/stm32h743_nucleo/obj/sfp_lib_Debug/libada_drivers_library.a(stm32-gpio.o)
                0x0000000008001fe4                stm32__gpio__gpio_pinRP
 .text.stm32__gpio__gpio_pinsIP
                0x00000000080020b4       0x14 /home/badr/hackinvent/Ada_Drivers_Library/boards/stm32h743_nucleo/obj/sfp_lib_Debug/libada_drivers_library.a(stm32-gpio.o)
                0x00000000080020b4                stm32__gpio__gpio_pinsIP
 .text.stm32__gpio__gpio_portEQ
                0x00000000080020c8       0x18 /home/badr/hackinvent/Ada_Drivers_Library/boards/stm32h743_nucleo/obj/sfp_lib_Debug/libada_drivers_library.a(stm32-gpio.o)
                0x00000000080020c8                stm32__gpio__gpio_portEQ
 .text.stm32__gpio__gpio_port_configurationD2
                0x00000000080020e0       0x24 /home/badr/hackinvent/Ada_Drivers_Library/boards/stm32h743_nucleo/obj/sfp_lib_Debug/libada_drivers_library.a(stm32-gpio.o)
                0x00000000080020e0                stm32__gpio__gpio_port_configurationD2
 .text.stm32__gpio__gpio_port_configurationD3
                0x0000000008002104       0x24 /home/badr/hackinvent/Ada_Drivers_Library/boards/stm32h743_nucleo/obj/sfp_lib_Debug/libada_drivers_library.a(stm32-gpio.o)
                0x0000000008002104                stm32__gpio__gpio_port_configurationD3
 .text.stm32__gpio__gpio_port_configurationEQ
                0x0000000008002128       0x90 /home/badr/hackinvent/Ada_Drivers_Library/boards/stm32h743_nucleo/obj/sfp_lib_Debug/libada_drivers_library.a(stm32-gpio.o)
                0x0000000008002128                stm32__gpio__gpio_port_configurationEQ
 .text.stm32__gpio__gpio_port_configurationIP
                0x00000000080021b8       0x28 /home/badr/hackinvent/Ada_Drivers_Library/boards/stm32h743_nucleo/obj/sfp_lib_Debug/libada_drivers_library.a(stm32-gpio.o)
                0x00000000080021b8                stm32__gpio__gpio_port_configurationIP
 .text.stm32__gpio__gpio_pointIP
                0x00000000080021e0       0x2c /home/badr/hackinvent/Ada_Drivers_Library/boards/stm32h743_nucleo/obj/sfp_lib_Debug/libada_drivers_library.a(stm32-gpio.o)
                0x00000000080021e0                stm32__gpio__gpio_pointIP
 .text.stm32__gpio___size__2
                0x000000000800220c       0x1c /home/badr/hackinvent/Ada_Drivers_Library/boards/stm32h743_nucleo/obj/sfp_lib_Debug/libada_drivers_library.a(stm32-gpio.o)
                0x000000000800220c                stm32__gpio___size__2
 .text.stm32__gpio__Oeq
                0x0000000008002228       0x34 /home/badr/hackinvent/Ada_Drivers_Library/boards/stm32h743_nucleo/obj/sfp_lib_Debug/libada_drivers_library.a(stm32-gpio.o)
                0x0000000008002228                stm32__gpio__Oeq
 .text.stm32__gpio___assign
                0x000000000800225c       0x24 /home/badr/hackinvent/Ada_Drivers_Library/boards/stm32h743_nucleo/obj/sfp_lib_Debug/libada_drivers_library.a(stm32-gpio.o)
                0x000000000800225c                stm32__gpio___assign
 .text.stm32__gpio__gpio_pointsIP
                0x0000000008002280       0x44 /home/badr/hackinvent/Ada_Drivers_Library/boards/stm32h743_nucleo/obj/sfp_lib_Debug/libada_drivers_library.a(stm32-gpio.o)
                0x0000000008002280                stm32__gpio__gpio_pointsIP
 .text.stm32__gpio__support
                0x00000000080022c4       0x2c /home/badr/hackinvent/Ada_Drivers_Library/boards/stm32h743_nucleo/obj/sfp_lib_Debug/libada_drivers_library.a(stm32-gpio.o)
                0x00000000080022c4                stm32__gpio__support
 .text.stm32__gpio__any_set
                0x00000000080022f0       0x5c /home/badr/hackinvent/Ada_Drivers_Library/boards/stm32h743_nucleo/obj/sfp_lib_Debug/libada_drivers_library.a(stm32-gpio.o)
                0x00000000080022f0                stm32__gpio__any_set
 .text.stm32__gpio__mode
                0x000000000800234c       0x58 /home/badr/hackinvent/Ada_Drivers_Library/boards/stm32h743_nucleo/obj/sfp_lib_Debug/libada_drivers_library.a(stm32-gpio.o)
                0x000000000800234c                stm32__gpio__mode
 .text.stm32__gpio__pin_io_mode
                0x00000000080023a4       0x60 /home/badr/hackinvent/Ada_Drivers_Library/boards/stm32h743_nucleo/obj/sfp_lib_Debug/libada_drivers_library.a(stm32-gpio.o)
                0x00000000080023a4                stm32__gpio__pin_io_mode
 .text.stm32__gpio__set_mode
                0x0000000008002404      0x110 /home/badr/hackinvent/Ada_Drivers_Library/boards/stm32h743_nucleo/obj/sfp_lib_Debug/libada_drivers_library.a(stm32-gpio.o)
                0x0000000008002404                stm32__gpio__set_mode
 .text.stm32__gpio__pull_resistor
                0x0000000008002514       0xb8 /home/badr/hackinvent/Ada_Drivers_Library/boards/stm32h743_nucleo/obj/sfp_lib_Debug/libada_drivers_library.a(stm32-gpio.o)
                0x0000000008002514                stm32__gpio__pull_resistor
 .text.stm32__gpio__set_pull_resistor
                0x00000000080025cc      0x168 /home/badr/hackinvent/Ada_Drivers_Library/boards/stm32h743_nucleo/obj/sfp_lib_Debug/libada_drivers_library.a(stm32-gpio.o)
                0x00000000080025cc                stm32__gpio__set_pull_resistor
 .text.stm32__gpio__set
                0x0000000008002734       0x68 /home/badr/hackinvent/Ada_Drivers_Library/boards/stm32h743_nucleo/obj/sfp_lib_Debug/libada_drivers_library.a(stm32-gpio.o)
                0x0000000008002734                stm32__gpio__set
 .text.stm32__gpio__all_set
                0x000000000800279c       0x64 /home/badr/hackinvent/Ada_Drivers_Library/boards/stm32h743_nucleo/obj/sfp_lib_Debug/libada_drivers_library.a(stm32-gpio.o)
                0x000000000800279c                stm32__gpio__all_set
 .text.stm32__gpio__set__2
                0x0000000008002800       0x3c /home/badr/hackinvent/Ada_Drivers_Library/boards/stm32h743_nucleo/obj/sfp_lib_Debug/libada_drivers_library.a(stm32-gpio.o)
                0x0000000008002800                stm32__gpio__set__2
 .text.stm32__gpio__set__4
                0x000000000800283c       0x50 /home/badr/hackinvent/Ada_Drivers_Library/boards/stm32h743_nucleo/obj/sfp_lib_Debug/libada_drivers_library.a(stm32-gpio.o)
                0x000000000800283c                stm32__gpio__set__4
 .text.stm32__gpio__clear
                0x000000000800288c       0x3c /home/badr/hackinvent/Ada_Drivers_Library/boards/stm32h743_nucleo/obj/sfp_lib_Debug/libada_drivers_library.a(stm32-gpio.o)
                0x000000000800288c                stm32__gpio__clear
 .text.stm32__gpio__clear__2
                0x00000000080028c8       0x50 /home/badr/hackinvent/Ada_Drivers_Library/boards/stm32h743_nucleo/obj/sfp_lib_Debug/libada_drivers_library.a(stm32-gpio.o)
                0x00000000080028c8                stm32__gpio__clear__2
 .text.stm32__gpio__toggle
                0x0000000008002918       0x78 /home/badr/hackinvent/Ada_Drivers_Library/boards/stm32h743_nucleo/obj/sfp_lib_Debug/libada_drivers_library.a(stm32-gpio.o)
                0x0000000008002918                stm32__gpio__toggle
 .text.stm32__gpio__toggle__2
                0x0000000008002990       0x50 /home/badr/hackinvent/Ada_Drivers_Library/boards/stm32h743_nucleo/obj/sfp_lib_Debug/libada_drivers_library.a(stm32-gpio.o)
                0x0000000008002990                stm32__gpio__toggle__2
 .text.stm32__gpio__locked
                0x00000000080029e0       0x4c /home/badr/hackinvent/Ada_Drivers_Library/boards/stm32h743_nucleo/obj/sfp_lib_Debug/libada_drivers_library.a(stm32-gpio.o)
                0x00000000080029e0                stm32__gpio__locked
 .text.stm32__gpio__lock_the_pin
                0x0000000008002a2c       0x34 /home/badr/hackinvent/Ada_Drivers_Library/boards/stm32h743_nucleo/obj/sfp_lib_Debug/libada_drivers_library.a(stm32-gpio.o)
 .text.stm32__gpio__lock___postconditions.6865
                0x0000000008002a60       0x3c /home/badr/hackinvent/Ada_Drivers_Library/boards/stm32h743_nucleo/obj/sfp_lib_Debug/libada_drivers_library.a(stm32-gpio.o)
 .text.stm32__gpio__lock
                0x0000000008002a9c       0x88 /home/badr/hackinvent/Ada_Drivers_Library/boards/stm32h743_nucleo/obj/sfp_lib_Debug/libada_drivers_library.a(stm32-gpio.o)
                0x0000000008002a9c                stm32__gpio__lock
 .text.stm32__gpio__lock__2
                0x0000000008002b24       0x70 /home/badr/hackinvent/Ada_Drivers_Library/boards/stm32h743_nucleo/obj/sfp_lib_Debug/libada_drivers_library.a(stm32-gpio.o)
                0x0000000008002b24                stm32__gpio__lock__2
 .text.stm32__gpio__configure_io
                0x0000000008002b94      0x370 /home/badr/hackinvent/Ada_Drivers_Library/boards/stm32h743_nucleo/obj/sfp_lib_Debug/libada_drivers_library.a(stm32-gpio.o)
                0x0000000008002b94                stm32__gpio__configure_io
 .text.stm32__gpio__configure_io__2
                0x0000000008002f04       0x50 /home/badr/hackinvent/Ada_Drivers_Library/boards/stm32h743_nucleo/obj/sfp_lib_Debug/libada_drivers_library.a(stm32-gpio.o)
                0x0000000008002f04                stm32__gpio__configure_io__2
 .text.stm32__gpio__configure_alternate_function
                0x0000000008002f54      0x118 /home/badr/hackinvent/Ada_Drivers_Library/boards/stm32h743_nucleo/obj/sfp_lib_Debug/libada_drivers_library.a(stm32-gpio.o)
                0x0000000008002f54                stm32__gpio__configure_alternate_function
 .text.stm32__gpio__configure_alternate_function__2
                0x000000000800306c       0x54 /home/badr/hackinvent/Ada_Drivers_Library/boards/stm32h743_nucleo/obj/sfp_lib_Debug/libada_drivers_library.a(stm32-gpio.o)
                0x000000000800306c                stm32__gpio__configure_alternate_function__2
 .text.stm32__gpio__interrupt_line_number
                0x00000000080030c0       0x60 /home/badr/hackinvent/Ada_Drivers_Library/boards/stm32h743_nucleo/obj/sfp_lib_Debug/libada_drivers_library.a(stm32-gpio.o)
                0x00000000080030c0                stm32__gpio__interrupt_line_number
 .text.stm32__gpio__configure_trigger
                0x0000000008003120       0x9c /home/badr/hackinvent/Ada_Drivers_Library/boards/stm32h743_nucleo/obj/sfp_lib_Debug/libada_drivers_library.a(stm32-gpio.o)
                0x0000000008003120                stm32__gpio__configure_trigger
 .text.stm32__gpio__configure_trigger__2
                0x00000000080031bc       0x54 /home/badr/hackinvent/Ada_Drivers_Library/boards/stm32h743_nucleo/obj/sfp_lib_Debug/libada_drivers_library.a(stm32-gpio.o)
                0x00000000080031bc                stm32__gpio__configure_trigger__2
 .text.stm32__gpio___elabb
                0x0000000008003210       0x68 /home/badr/hackinvent/Ada_Drivers_Library/boards/stm32h743_nucleo/obj/sfp_lib_Debug/libada_drivers_library.a(stm32-gpio.o)
                0x0000000008003210                stm32__gpio___elabb
 .text._GLOBAL__SZ39_stm32__gpio
                0x0000000008003278       0x34 /home/badr/hackinvent/Ada_Drivers_Library/boards/stm32h743_nucleo/obj/sfp_lib_Debug/libada_drivers_library.a(stm32-gpio.o)
 .text          0x00000000080032ac        0x0 /home/badr/hackinvent/Ada_Drivers_Library/boards/stm32h743_nucleo/obj/sfp_lib_Debug/libada_drivers_library.a(stm32-rcc.o)
 .text.stm32__rcc__syscfg_clock_enable
                0x00000000080032ac       0x24 /home/badr/hackinvent/Ada_Drivers_Library/boards/stm32h743_nucleo/obj/sfp_lib_Debug/libada_drivers_library.a(stm32-rcc.o)
                0x00000000080032ac                stm32__rcc__syscfg_clock_enable
 .text          0x00000000080032d0        0x0 /home/badr/hackinvent/Ada_Drivers_Library/boards/stm32h743_nucleo/obj/sfp_lib_Debug/libada_drivers_library.a(stm32-syscfg.o)
 .text.stm32__syscfg__connect_external_interrupt__4
                0x00000000080032d0      0x214 /home/badr/hackinvent/Ada_Drivers_Library/boards/stm32h743_nucleo/obj/sfp_lib_Debug/libada_drivers_library.a(stm32-syscfg.o)
                0x00000000080032d0                stm32__syscfg__connect_external_interrupt__4
 .text.stm32__syscfg__connect_external_interrupt
                0x00000000080034e4       0x3c /home/badr/hackinvent/Ada_Drivers_Library/boards/stm32h743_nucleo/obj/sfp_lib_Debug/libada_drivers_library.a(stm32-syscfg.o)
                0x00000000080034e4                stm32__syscfg__connect_external_interrupt
 .text.stm32__syscfg__connect_external_interrupt__2
                0x0000000008003520       0x34 /home/badr/hackinvent/Ada_Drivers_Library/boards/stm32h743_nucleo/obj/sfp_lib_Debug/libada_drivers_library.a(stm32-syscfg.o)
                0x0000000008003520                stm32__syscfg__connect_external_interrupt__2
 .text.stm32__syscfg__connect_external_interrupt__3
                0x0000000008003554       0x44 /home/badr/hackinvent/Ada_Drivers_Library/boards/stm32h743_nucleo/obj/sfp_lib_Debug/libada_drivers_library.a(stm32-syscfg.o)
                0x0000000008003554                stm32__syscfg__connect_external_interrupt__3
 .text.stm32__syscfg__clear_external_interrupt
                0x0000000008003598       0x44 /home/badr/hackinvent/Ada_Drivers_Library/boards/stm32h743_nucleo/obj/sfp_lib_Debug/libada_drivers_library.a(stm32-syscfg.o)
                0x0000000008003598                stm32__syscfg__clear_external_interrupt
 .text          0x00000000080035dc        0x0 /home/badr/hackinvent/Ada_Drivers_Library/boards/stm32h743_nucleo/obj/sfp_lib_Debug/libada_drivers_library.a(hal-gpio.o)
 .text          0x00000000080035dc        0x0 /home/badr/GNAT/2018-arm-elf/arm-eabi/lib/gnat/ravenscar-sfp-stm32h743nucleo/adalib/libgnarl.a(a-reatim.o)
 .text.ada__real_time__Oadd__2
                0x00000000080035dc       0x2c /home/badr/GNAT/2018-arm-elf/arm-eabi/lib/gnat/ravenscar-sfp-stm32h743nucleo/adalib/libgnarl.a(a-reatim.o)
                0x00000000080035dc                ada__real_time__Oadd__2
 .text.ada__real_time__Omultiply
                0x0000000008003608      0x100 /home/badr/GNAT/2018-arm-elf/arm-eabi/lib/gnat/ravenscar-sfp-stm32h743nucleo/adalib/libgnarl.a(a-reatim.o)
                0x0000000008003608                ada__real_time__Omultiply
 .text.ada__real_time__Omultiply__2
                0x0000000008003708       0x28 /home/badr/GNAT/2018-arm-elf/arm-eabi/lib/gnat/ravenscar-sfp-stm32h743nucleo/adalib/libgnarl.a(a-reatim.o)
                0x0000000008003708                ada__real_time__Omultiply__2
 .text.ada__real_time__Oadd
                0x0000000008003730       0xec /home/badr/GNAT/2018-arm-elf/arm-eabi/lib/gnat/ravenscar-sfp-stm32h743nucleo/adalib/libgnarl.a(a-reatim.o)
                0x0000000008003730                ada__real_time__Oadd
 .text.ada__real_time__Oadd__3
                0x000000000800381c       0x5c /home/badr/GNAT/2018-arm-elf/arm-eabi/lib/gnat/ravenscar-sfp-stm32h743nucleo/adalib/libgnarl.a(a-reatim.o)
                0x000000000800381c                ada__real_time__Oadd__3
 .text.ada__real_time__Osubtract
                0x0000000008003878       0xe8 /home/badr/GNAT/2018-arm-elf/arm-eabi/lib/gnat/ravenscar-sfp-stm32h743nucleo/adalib/libgnarl.a(a-reatim.o)
                0x0000000008003878                ada__real_time__Osubtract
 .text.ada__real_time__Osubtract__2
                0x0000000008003960      0x104 /home/badr/GNAT/2018-arm-elf/arm-eabi/lib/gnat/ravenscar-sfp-stm32h743nucleo/adalib/libgnarl.a(a-reatim.o)
                0x0000000008003960                ada__real_time__Osubtract__2
 .text.ada__real_time__Osubtract__3
                0x0000000008003a64       0x60 /home/badr/GNAT/2018-arm-elf/arm-eabi/lib/gnat/ravenscar-sfp-stm32h743nucleo/adalib/libgnarl.a(a-reatim.o)
                0x0000000008003a64                ada__real_time__Osubtract__3
 .text.ada__real_time__Osubtract__4
                0x0000000008003ac4       0x3c /home/badr/GNAT/2018-arm-elf/arm-eabi/lib/gnat/ravenscar-sfp-stm32h743nucleo/adalib/libgnarl.a(a-reatim.o)
                0x0000000008003ac4                ada__real_time__Osubtract__4
 .text.ada__real_time__Odivide
                0x0000000008003b00       0x84 /home/badr/GNAT/2018-arm-elf/arm-eabi/lib/gnat/ravenscar-sfp-stm32h743nucleo/adalib/libgnarl.a(a-reatim.o)
                0x0000000008003b00                ada__real_time(double &&, int, void, int, double,...)
 .text.ada__real_time__Odivide__2
                0x0000000008003b84       0x64 /home/badr/GNAT/2018-arm-elf/arm-eabi/lib/gnat/ravenscar-sfp-stm32h743nucleo/adalib/libgnarl.a(a-reatim.o)
                0x0000000008003b84                ada__real_time__Odivide__2
 .text.ada__real_time__clock
                0x0000000008003be8       0x14 /home/badr/GNAT/2018-arm-elf/arm-eabi/lib/gnat/ravenscar-sfp-stm32h743nucleo/adalib/libgnarl.a(a-reatim.o)
                0x0000000008003be8                ada__real_time__clock
 .text.ada__real_time__microseconds
                0x0000000008003bfc       0x48 /home/badr/GNAT/2018-arm-elf/arm-eabi/lib/gnat/ravenscar-sfp-stm32h743nucleo/adalib/libgnarl.a(a-reatim.o)
                0x0000000008003bfc                ada__real_time__microseconds
 .text.ada__real_time__milliseconds
                0x0000000008003c44       0x48 /home/badr/GNAT/2018-arm-elf/arm-eabi/lib/gnat/ravenscar-sfp-stm32h743nucleo/adalib/libgnarl.a(a-reatim.o)
                0x0000000008003c44                ada__real_time__milliseconds
 *fill*         0x0000000008003c8c        0x4 
 .text.ada__real_time__minutes
                0x0000000008003c90       0xd0 /home/badr/GNAT/2018-arm-elf/arm-eabi/lib/gnat/ravenscar-sfp-stm32h743nucleo/adalib/libgnarl.a(a-reatim.o)
                0x0000000008003c90                ada__real_time__minutes
 .text.ada__real_time__mul_div
                0x0000000008003d60      0x22c /home/badr/GNAT/2018-arm-elf/arm-eabi/lib/gnat/ravenscar-sfp-stm32h743nucleo/adalib/libgnarl.a(a-reatim.o)
 *fill*         0x0000000008003f8c        0x4 
 .text.ada__real_time__nanoseconds
                0x0000000008003f90       0x4c /home/badr/GNAT/2018-arm-elf/arm-eabi/lib/gnat/ravenscar-sfp-stm32h743nucleo/adalib/libgnarl.a(a-reatim.o)
                0x0000000008003f90                ada__real_time__nanoseconds
 .text.ada__real_time__rounded_div
                0x0000000008003fdc       0xb0 /home/badr/GNAT/2018-arm-elf/arm-eabi/lib/gnat/ravenscar-sfp-stm32h743nucleo/adalib/libgnarl.a(a-reatim.o)
                0x0000000008003fdc                ada__real_time__rounded_div
 .text.ada__real_time__seconds
                0x000000000800408c       0x38 /home/badr/GNAT/2018-arm-elf/arm-eabi/lib/gnat/ravenscar-sfp-stm32h743nucleo/adalib/libgnarl.a(a-reatim.o)
                0x000000000800408c                ada__real_time__seconds
 *fill*         0x00000000080040c4        0x4 
 .text.ada__real_time__split
                0x00000000080040c8       0x84 /home/badr/GNAT/2018-arm-elf/arm-eabi/lib/gnat/ravenscar-sfp-stm32h743nucleo/adalib/libgnarl.a(a-reatim.o)
                0x00000000080040c8                ada__real_time__split
 *fill*         0x000000000800414c        0x4 
 .text.ada__real_time__time_of
                0x0000000008004150      0x1c0 /home/badr/GNAT/2018-arm-elf/arm-eabi/lib/gnat/ravenscar-sfp-stm32h743nucleo/adalib/libgnarl.a(a-reatim.o)
                0x0000000008004150                ada__real_time__time_of
 .text.ada__real_time__to_duration
                0x0000000008004310       0x30 /home/badr/GNAT/2018-arm-elf/arm-eabi/lib/gnat/ravenscar-sfp-stm32h743nucleo/adalib/libgnarl.a(a-reatim.o)
                0x0000000008004310                ada__real_time__to_duration
 .text.ada__real_time__to_time_span
                0x0000000008004340       0x30 /home/badr/GNAT/2018-arm-elf/arm-eabi/lib/gnat/ravenscar-sfp-stm32h743nucleo/adalib/libgnarl.a(a-reatim.o)
                0x0000000008004340                ada__real_time__to_time_span
 .text.ada__real_time___elabb
                0x0000000008004370        0xc /home/badr/GNAT/2018-arm-elf/arm-eabi/lib/gnat/ravenscar-sfp-stm32h743nucleo/adalib/libgnarl.a(a-reatim.o)
                0x0000000008004370                ada__real_time___elabb
 .text          0x000000000800437c        0x0 /home/badr/GNAT/2018-arm-elf/arm-eabi/lib/gnat/ravenscar-sfp-stm32h743nucleo/adalib/libgnarl.a(a-retide.o)
 .text.ada__real_time__delays__delay_until
                0x000000000800437c       0x40 /home/badr/GNAT/2018-arm-elf/arm-eabi/lib/gnat/ravenscar-sfp-stm32h743nucleo/adalib/libgnarl.a(a-retide.o)
                0x000000000800437c                ada__real_time__delays__delay_until
 .text.ada__real_time__delays__to_duration
                0x00000000080043bc       0x20 /home/badr/GNAT/2018-arm-elf/arm-eabi/lib/gnat/ravenscar-sfp-stm32h743nucleo/adalib/libgnarl.a(a-retide.o)
                0x00000000080043bc                ada__real_time__delays__to_duration
 .text          0x00000000080043dc        0x0 /home/badr/GNAT/2018-arm-elf/arm-eabi/lib/gnat/ravenscar-sfp-stm32h743nucleo/adalib/libgnarl.a(s-bbtiev.o)
 .text.system__bb__timing_events__timing_eventIP
                0x00000000080043dc       0x44 /home/badr/GNAT/2018-arm-elf/arm-eabi/lib/gnat/ravenscar-sfp-stm32h743nucleo/adalib/libgnarl.a(s-bbtiev.o)
                0x00000000080043dc                system__bb__timing_events__timing_eventIP
 .text.system__bb__timing_events___size
                0x0000000008004420       0x1c /home/badr/GNAT/2018-arm-elf/arm-eabi/lib/gnat/ravenscar-sfp-stm32h743nucleo/adalib/libgnarl.a(s-bbtiev.o)
                0x0000000008004420                system__bb__timing_events___size
 .text.system__bb__timing_events__set_handler
                0x000000000800443c       0x9c /home/badr/GNAT/2018-arm-elf/arm-eabi/lib/gnat/ravenscar-sfp-stm32h743nucleo/adalib/libgnarl.a(s-bbtiev.o)
                0x000000000800443c                system__bb__timing_events__set_handler
 .text.system__bb__timing_events__cancel_handler
                0x00000000080044d8       0x78 /home/badr/GNAT/2018-arm-elf/arm-eabi/lib/gnat/ravenscar-sfp-stm32h743nucleo/adalib/libgnarl.a(s-bbtiev.o)
                0x00000000080044d8                system__bb__timing_events__cancel_handler
 .text.system__bb__timing_events__execute_expired_timing_events
                0x0000000008004550       0xcc /home/badr/GNAT/2018-arm-elf/arm-eabi/lib/gnat/ravenscar-sfp-stm32h743nucleo/adalib/libgnarl.a(s-bbtiev.o)
                0x0000000008004550                system__bb__timing_events__execute_expired_timing_events
 .text.system__bb__timing_events__get_next_timeout
                0x000000000800461c       0x44 /home/badr/GNAT/2018-arm-elf/arm-eabi/lib/gnat/ravenscar-sfp-stm32h743nucleo/adalib/libgnarl.a(s-bbtiev.o)
                0x000000000800461c                system__bb__timing_events__get_next_timeout
 .text.system__bb__timing_events__time_of_event
                0x0000000008004660       0x4c /home/badr/GNAT/2018-arm-elf/arm-eabi/lib/gnat/ravenscar-sfp-stm32h743nucleo/adalib/libgnarl.a(s-bbtiev.o)
                0x0000000008004660                system__bb__timing_events__time_of_event
 .text.system__bb__timing_events__extract
                0x00000000080046ac       0xb8 /home/badr/GNAT/2018-arm-elf/arm-eabi/lib/gnat/ravenscar-sfp-stm32h743nucleo/adalib/libgnarl.a(s-bbtiev.o)
 .text.system__bb__timing_events__insert
                0x0000000008004764      0x214 /home/badr/GNAT/2018-arm-elf/arm-eabi/lib/gnat/ravenscar-sfp-stm32h743nucleo/adalib/libgnarl.a(s-bbtiev.o)
 .text.system__bb__timing_events___elabb
                0x0000000008004978       0x2c /home/badr/GNAT/2018-arm-elf/arm-eabi/lib/gnat/ravenscar-sfp-stm32h743nucleo/adalib/libgnarl.a(s-bbtiev.o)
                0x0000000008004978                system__bb__timing_events___elabb
 .text          0x00000000080049a4        0x0 /home/badr/GNAT/2018-arm-elf/arm-eabi/lib/gnat/ravenscar-sfp-stm32h743nucleo/adalib/libgnarl.a(s-bbtime.o)
 .text.system__bb__time__composite_execution_timeIP
                0x00000000080049a4       0x14 /home/badr/GNAT/2018-arm-elf/arm-eabi/lib/gnat/ravenscar-sfp-stm32h743nucleo/adalib/libgnarl.a(s-bbtime.o)
                0x00000000080049a4                system__bb__time__composite_execution_timeIP
 .text.system__bb__time__composite_timeIP
                0x00000000080049b8       0x20 /home/badr/GNAT/2018-arm-elf/arm-eabi/lib/gnat/ravenscar-sfp-stm32h743nucleo/adalib/libgnarl.a(s-bbtime.o)
                0x00000000080049b8                system__bb__time__composite_timeIP
 .text.system__bb__time__alarm_handler
                0x00000000080049d8       0x90 /home/badr/GNAT/2018-arm-elf/arm-eabi/lib/gnat/ravenscar-sfp-stm32h743nucleo/adalib/libgnarl.a(s-bbtime.o)
 .text.system__bb__time__clock
                0x0000000008004a68       0xac /home/badr/GNAT/2018-arm-elf/arm-eabi/lib/gnat/ravenscar-sfp-stm32h743nucleo/adalib/libgnarl.a(s-bbtime.o)
                0x0000000008004a68                system__bb__time__clock
 .text.system__bb__time__delay_until
                0x0000000008004b14       0x90 /home/badr/GNAT/2018-arm-elf/arm-eabi/lib/gnat/ravenscar-sfp-stm32h743nucleo/adalib/libgnarl.a(s-bbtime.o)
                0x0000000008004b14                system__bb__time__delay_until
 .text.system__bb__time__epoch
                0x0000000008004ba4       0x18 /home/badr/GNAT/2018-arm-elf/arm-eabi/lib/gnat/ravenscar-sfp-stm32h743nucleo/adalib/libgnarl.a(s-bbtime.o)
                0x0000000008004ba4                system__bb__time__epoch
 .text.system__bb__time__get_next_timeout
                0x0000000008004bbc       0x48 /home/badr/GNAT/2018-arm-elf/arm-eabi/lib/gnat/ravenscar-sfp-stm32h743nucleo/adalib/libgnarl.a(s-bbtime.o)
                0x0000000008004bbc                system__bb__time__get_next_timeout
 .text.system__bb__time__initialize_timers
                0x0000000008004c04       0x9c /home/badr/GNAT/2018-arm-elf/arm-eabi/lib/gnat/ravenscar-sfp-stm32h743nucleo/adalib/libgnarl.a(s-bbtime.o)
                0x0000000008004c04                system__bb__time__initialize_timers
 .text.system__bb__time__update_alarm
                0x0000000008004ca0       0xb0 /home/badr/GNAT/2018-arm-elf/arm-eabi/lib/gnat/ravenscar-sfp-stm32h743nucleo/adalib/libgnarl.a(s-bbtime.o)
                0x0000000008004ca0                system__bb__time__update_alarm
 .text.system__bb__time__update_clock
                0x0000000008004d50       0x88 /home/badr/GNAT/2018-arm-elf/arm-eabi/lib/gnat/ravenscar-sfp-stm32h743nucleo/adalib/libgnarl.a(s-bbtime.o)
 .text.system__bb__time__Oconcat
                0x0000000008004dd8       0x54 /home/badr/GNAT/2018-arm-elf/arm-eabi/lib/gnat/ravenscar-sfp-stm32h743nucleo/adalib/libgnarl.a(s-bbtime.o)
                0x0000000008004dd8                system__bb__time__Oconcat
 .text          0x0000000008004e2c        0x0 /home/badr/GNAT/2018-arm-elf/arm-eabi/lib/gnat/ravenscar-sfp-stm32h743nucleo/adalib/libgnarl.a(s-taprop.o)
 .text.system__task_primitives__operations__Tidle_stacksBIP
                0x0000000008004e2c       0x14 /home/badr/GNAT/2018-arm-elf/arm-eabi/lib/gnat/ravenscar-sfp-stm32h743nucleo/adalib/libgnarl.a(s-taprop.o)
                0x0000000008004e2c                system__task_primitives__operations__Tidle_stacksBIP
 .text.system__task_primitives__operations__Tidle_stacks_tableBIP
                0x0000000008004e40       0x14 /home/badr/GNAT/2018-arm-elf/arm-eabi/lib/gnat/ravenscar-sfp-stm32h743nucleo/adalib/libgnarl.a(s-taprop.o)
                0x0000000008004e40                system__task_primitives__operations__Tidle_stacks_tableBIP
 .text.system__task_primitives__operations__Tidle_tasksBIP
                0x0000000008004e54       0x14 /home/badr/GNAT/2018-arm-elf/arm-eabi/lib/gnat/ravenscar-sfp-stm32h743nucleo/adalib/libgnarl.a(s-taprop.o)
                0x0000000008004e54                system__task_primitives__operations__Tidle_tasksBIP
 .text.system__task_primitives__operations__self
                0x0000000008004e68       0x10 /home/badr/GNAT/2018-arm-elf/arm-eabi/lib/gnat/ravenscar-sfp-stm32h743nucleo/adalib/libgnarl.a(s-taprop.o)
                0x0000000008004e68                system__task_primitives__operations(short,...)(long, float)
 .text.system__task_primitives__operations__sleep
                0x0000000008004e78       0x18 /home/badr/GNAT/2018-arm-elf/arm-eabi/lib/gnat/ravenscar-sfp-stm32h743nucleo/adalib/libgnarl.a(s-taprop.o)
                0x0000000008004e78                system__task_primitives__operations(short, long,...)(...)( *)
 .text.system__task_primitives__operations__delay_until
                0x0000000008004e90       0x40 /home/badr/GNAT/2018-arm-elf/arm-eabi/lib/gnat/ravenscar-sfp-stm32h743nucleo/adalib/libgnarl.a(s-taprop.o)
                0x0000000008004e90                system__task_primitives__operations__delay_until
 .text.system__task_primitives__operations__monotonic_clock
                0x0000000008004ed0       0x14 /home/badr/GNAT/2018-arm-elf/arm-eabi/lib/gnat/ravenscar-sfp-stm32h743nucleo/adalib/libgnarl.a(s-taprop.o)
                0x0000000008004ed0                system__task_primitives__operations__monotonic_clock
 .text.system__task_primitives__operations__wakeup
                0x0000000008004ee4       0x30 /home/badr/GNAT/2018-arm-elf/arm-eabi/lib/gnat/ravenscar-sfp-stm32h743nucleo/adalib/libgnarl.a(s-taprop.o)
                0x0000000008004ee4                system__task_primitives__operations__wakeup
 .text.system__task_primitives__operations__set_priority
                0x0000000008004f14       0x18 /home/badr/GNAT/2018-arm-elf/arm-eabi/lib/gnat/ravenscar-sfp-stm32h743nucleo/adalib/libgnarl.a(s-taprop.o)
                0x0000000008004f14                system__task_primitives__operations__set_priority
 .text.system__task_primitives__operations__get_priority
                0x0000000008004f2c       0x44 /home/badr/GNAT/2018-arm-elf/arm-eabi/lib/gnat/ravenscar-sfp-stm32h743nucleo/adalib/libgnarl.a(s-taprop.o)
                0x0000000008004f2c                system__task_primitives__operations__get_priority
 .text.system__task_primitives__operations__get_affinity
                0x0000000008004f70       0x34 /home/badr/GNAT/2018-arm-elf/arm-eabi/lib/gnat/ravenscar-sfp-stm32h743nucleo/adalib/libgnarl.a(s-taprop.o)
                0x0000000008004f70                system__task_primitives__operations__get_affinity
 .text.system__task_primitives__operations__get_cpu
                0x0000000008004fa4       0x34 /home/badr/GNAT/2018-arm-elf/arm-eabi/lib/gnat/ravenscar-sfp-stm32h743nucleo/adalib/libgnarl.a(s-taprop.o)
                0x0000000008004fa4                system__task_primitives__operations__get_cpu
 .text.system__task_primitives__operations__get_thread_id
                0x0000000008004fd8       0x2c /home/badr/GNAT/2018-arm-elf/arm-eabi/lib/gnat/ravenscar-sfp-stm32h743nucleo/adalib/libgnarl.a(s-taprop.o)
                0x0000000008004fd8                system__task_primitives__operations__get_thread_id
 .text.system__task_primitives__operations__enter_task
                0x0000000008005004       0x48 /home/badr/GNAT/2018-arm-elf/arm-eabi/lib/gnat/ravenscar-sfp-stm32h743nucleo/adalib/libgnarl.a(s-taprop.o)
                0x0000000008005004                system__task_primitives__operations__enter_task
 .text.system__task_primitives__operations__idle
                0x000000000800504c       0x1c /home/badr/GNAT/2018-arm-elf/arm-eabi/lib/gnat/ravenscar-sfp-stm32h743nucleo/adalib/libgnarl.a(s-taprop.o)
                0x000000000800504c                system__task_primitives__operations(int, double, long,...)
 .text.system__task_primitives__operations__initialize_tcb
                0x0000000008005068       0x1c /home/badr/GNAT/2018-arm-elf/arm-eabi/lib/gnat/ravenscar-sfp-stm32h743nucleo/adalib/libgnarl.a(s-taprop.o)
                0x0000000008005068                system__task_primitives__operations__initialize_tcb
 .text.__gnat_initialize_slave
                0x0000000008005084       0xb4 /home/badr/GNAT/2018-arm-elf/arm-eabi/lib/gnat/ravenscar-sfp-stm32h743nucleo/adalib/libgnarl.a(s-taprop.o)
                0x0000000008005084                __gnat_initialize_slave
 .text.system__task_primitives__operations__create_task
                0x0000000008005138       0x98 /home/badr/GNAT/2018-arm-elf/arm-eabi/lib/gnat/ravenscar-sfp-stm32h743nucleo/adalib/libgnarl.a(s-taprop.o)
                0x0000000008005138                system__task_primitives__operations__create_task
 .text.system__task_primitives__operations__initialize
                0x00000000080051d0      0x134 /home/badr/GNAT/2018-arm-elf/arm-eabi/lib/gnat/ravenscar-sfp-stm32h743nucleo/adalib/libgnarl.a(s-taprop.o)
                0x00000000080051d0                system__task_primitives__operations__initialize
 .text.system__task_primitives__operations__initialize_idle
                0x0000000008005304       0xd0 /home/badr/GNAT/2018-arm-elf/arm-eabi/lib/gnat/ravenscar-sfp-stm32h743nucleo/adalib/libgnarl.a(s-taprop.o)
                0x0000000008005304                system__task_primitives__operations__initialize_idle
 .text.system__task_primitives__operations__is_task_context
                0x00000000080053d4       0x1c /home/badr/GNAT/2018-arm-elf/arm-eabi/lib/gnat/ravenscar-sfp-stm32h743nucleo/adalib/libgnarl.a(s-taprop.o)
                0x00000000080053d4                system__task_primitives__operations__is_task_context
 .text          0x00000000080053f0        0x0 /home/badr/GNAT/2018-arm-elf/arm-eabi/lib/gnat/ravenscar-sfp-stm32h743nucleo/adalib/libgnarl.a(s-tasdeb.o)
 .text.system__tasking__debug__add_task_id
                0x00000000080053f0       0x4c /home/badr/GNAT/2018-arm-elf/arm-eabi/lib/gnat/ravenscar-sfp-stm32h743nucleo/adalib/libgnarl.a(s-tasdeb.o)
                0x00000000080053f0                system__tasking__debug__add_task_id
 .text          0x000000000800543c        0x0 /home/badr/GNAT/2018-arm-elf/arm-eabi/lib/gnat/ravenscar-sfp-stm32h743nucleo/adalib/libgnarl.a(s-taskin.o)
 .text.system__tasking__E5sIP
                0x000000000800543c       0x18 /home/badr/GNAT/2018-arm-elf/arm-eabi/lib/gnat/ravenscar-sfp-stm32h743nucleo/adalib/libgnarl.a(s-taskin.o)
                0x000000000800543c                system__tasking__E5sIP
 .text.system__tasking__activation_chainIP
                0x0000000008005454       0x18 /home/badr/GNAT/2018-arm-elf/arm-eabi/lib/gnat/ravenscar-sfp-stm32h743nucleo/adalib/libgnarl.a(s-taskin.o)
                0x0000000008005454                system__tasking__activation_chainIP
 .text.__gnat_get_secondary_stack
                0x000000000800546c       0x24 /home/badr/GNAT/2018-arm-elf/arm-eabi/lib/gnat/ravenscar-sfp-stm32h743nucleo/adalib/libgnarl.a(s-taskin.o)
                0x000000000800546c                __gnat_get_secondary_stack
 .text.system__tasking__initialize_atcb
                0x0000000008005490      0x104 /home/badr/GNAT/2018-arm-elf/arm-eabi/lib/gnat/ravenscar-sfp-stm32h743nucleo/adalib/libgnarl.a(s-taskin.o)
                0x0000000008005490                system__tasking__initialize_atcb
 .text.system__tasking__initialize
                0x0000000008005594      0x234 /home/badr/GNAT/2018-arm-elf/arm-eabi/lib/gnat/ravenscar-sfp-stm32h743nucleo/adalib/libgnarl.a(s-taskin.o)
                0x0000000008005594                system__tasking__initialize
 .text.system__tasking__self
                0x00000000080057c8       0x10 /home/badr/GNAT/2018-arm-elf/arm-eabi/lib/gnat/ravenscar-sfp-stm32h743nucleo/adalib/libgnarl.a(s-taskin.o)
                0x00000000080057c8                system__tasking(short,...)(long, float)
 .text.system__tasking__storage_size
                0x00000000080057d8       0x2c /home/badr/GNAT/2018-arm-elf/arm-eabi/lib/gnat/ravenscar-sfp-stm32h743nucleo/adalib/libgnarl.a(s-taskin.o)
                0x00000000080057d8                system__tasking__storage_size
 .text          0x0000000008005804        0x0 /home/badr/GNAT/2018-arm-elf/arm-eabi/lib/gnat/ravenscar-sfp-stm32h743nucleo/adalib/libgnarl.a(s-bbbosu.o)
 .text.system__bb__board_support__time__max_timer_interval
                0x0000000008005804       0x14 /home/badr/GNAT/2018-arm-elf/arm-eabi/lib/gnat/ravenscar-sfp-stm32h743nucleo/adalib/libgnarl.a(s-bbbosu.o)
                0x0000000008005804                system__bb__board_support__time__max_timer_interval
 .text.system__bb__board_support__time__read_clock
                0x0000000008005818       0x74 /home/badr/GNAT/2018-arm-elf/arm-eabi/lib/gnat/ravenscar-sfp-stm32h743nucleo/adalib/libgnarl.a(s-bbbosu.o)
                0x0000000008005818                system__bb__board_support__time__read_clock
 .text.system__bb__board_support__time__clear_alarm_interrupt
                0x000000000800588c       0x18 /home/badr/GNAT/2018-arm-elf/arm-eabi/lib/gnat/ravenscar-sfp-stm32h743nucleo/adalib/libgnarl.a(s-bbbosu.o)
                0x000000000800588c                system__bb__board_support__time__clear_alarm_interrupt
 .text.system__bb__board_support__time__set_alarm
                0x00000000080058a4       0x58 /home/badr/GNAT/2018-arm-elf/arm-eabi/lib/gnat/ravenscar-sfp-stm32h743nucleo/adalib/libgnarl.a(s-bbbosu.o)
                0x00000000080058a4                system__bb__board_support__time__set_alarm
 .text.system__bb__board_support__time__install_alarm_handler
                0x00000000080058fc       0x30 /home/badr/GNAT/2018-arm-elf/arm-eabi/lib/gnat/ravenscar-sfp-stm32h743nucleo/adalib/libgnarl.a(s-bbbosu.o)
                0x00000000080058fc                system__bb__board_support__time__install_alarm_handler
 .text.system__bb__board_support__multiprocessors__number_of_cpus
                0x000000000800592c       0x14 /home/badr/GNAT/2018-arm-elf/arm-eabi/lib/gnat/ravenscar-sfp-stm32h743nucleo/adalib/libgnarl.a(s-bbbosu.o)
                0x000000000800592c                system__bb__board_support__multiprocessors__number_of_cpus
 .text.system__bb__board_support__multiprocessors__current_cpu
                0x0000000008005940       0x14 /home/badr/GNAT/2018-arm-elf/arm-eabi/lib/gnat/ravenscar-sfp-stm32h743nucleo/adalib/libgnarl.a(s-bbbosu.o)
                0x0000000008005940                system__bb__board_support__multiprocessors__current_cpu
 .text.system__bb__board_support__multiprocessors__poke_cpu
                0x0000000008005954       0x18 /home/badr/GNAT/2018-arm-elf/arm-eabi/lib/gnat/ravenscar-sfp-stm32h743nucleo/adalib/libgnarl.a(s-bbbosu.o)
                0x0000000008005954                system__bb__board_support__multiprocessors__poke_cpu
 .text.system__bb__board_support__multiprocessors__start_all_cpus
                0x000000000800596c       0x10 /home/badr/GNAT/2018-arm-elf/arm-eabi/lib/gnat/ravenscar-sfp-stm32h743nucleo/adalib/libgnarl.a(s-bbbosu.o)
                0x000000000800596c                system__bb__board_support__multiprocessors__start_all_cpus
 .text.system__bb__board_support__interrupts__install_interrupt_handler
                0x000000000800597c       0x64 /home/badr/GNAT/2018-arm-elf/arm-eabi/lib/gnat/ravenscar-sfp-stm32h743nucleo/adalib/libgnarl.a(s-bbbosu.o)
                0x000000000800597c                system__bb__board_support__interrupts__install_interrupt_handler
 .text.system__bb__board_support__interrupts__priority_of_interrupt
                0x00000000080059e0       0x4c /home/badr/GNAT/2018-arm-elf/arm-eabi/lib/gnat/ravenscar-sfp-stm32h743nucleo/adalib/libgnarl.a(s-bbbosu.o)
                0x00000000080059e0                system__bb__board_support__interrupts__priority_of_interrupt
 .text.system__bb__board_support__interrupts__power_down
                0x0000000008005a2c       0x10 /home/badr/GNAT/2018-arm-elf/arm-eabi/lib/gnat/ravenscar-sfp-stm32h743nucleo/adalib/libgnarl.a(s-bbbosu.o)
                0x0000000008005a2c                system__bb__board_support__interrupts__power_down
 .text.system__bb__board_support__interrupts__set_current_priority
                0x0000000008005a3c       0x1c /home/badr/GNAT/2018-arm-elf/arm-eabi/lib/gnat/ravenscar-sfp-stm32h743nucleo/adalib/libgnarl.a(s-bbbosu.o)
                0x0000000008005a3c                system__bb__board_support__interrupts__set_current_priority
 .text.system__bb__board_support__sys_tick_registersIP
                0x0000000008005a58       0x14 /home/badr/GNAT/2018-arm-elf/arm-eabi/lib/gnat/ravenscar-sfp-stm32h743nucleo/adalib/libgnarl.a(s-bbbosu.o)
                0x0000000008005a58                system__bb__board_support__sys_tick_registersIP
 .text.system__bb__board_support__TipBIP
                0x0000000008005a6c       0x14 /home/badr/GNAT/2018-arm-elf/arm-eabi/lib/gnat/ravenscar-sfp-stm32h743nucleo/adalib/libgnarl.a(s-bbbosu.o)
                0x0000000008005a6c                system__bb__board_support__TipBIP
 .text.system__bb__board_support__initialize_board
                0x0000000008005a80       0x6c /home/badr/GNAT/2018-arm-elf/arm-eabi/lib/gnat/ravenscar-sfp-stm32h743nucleo/adalib/libgnarl.a(s-bbbosu.o)
                0x0000000008005a80                system__bb__board_support__initialize_board
 .text.system__bb__board_support__timer_interrupt_handler
                0x0000000008005aec       0x10 /home/badr/GNAT/2018-arm-elf/arm-eabi/lib/gnat/ravenscar-sfp-stm32h743nucleo/adalib/libgnarl.a(s-bbbosu.o)
                0x0000000008005aec                system__bb__board_support__timer_interrupt_handler
 .text.system__bb__board_support__interrupt_handler
                0x0000000008005afc       0x4c /home/badr/GNAT/2018-arm-elf/arm-eabi/lib/gnat/ravenscar-sfp-stm32h743nucleo/adalib/libgnarl.a(s-bbbosu.o)
                0x0000000008005afc                system__bb__board_support__interrupt_handler
 .text.system__bb__board_support__enable_interrupt_request
                0x0000000008005b48       0xa4 /home/badr/GNAT/2018-arm-elf/arm-eabi/lib/gnat/ravenscar-sfp-stm32h743nucleo/adalib/libgnarl.a(s-bbbosu.o)
                0x0000000008005b48                system__bb__board_support__enable_interrupt_request
 .text.system__bb__board_support__to_pri
                0x0000000008005bec       0x44 /home/badr/GNAT/2018-arm-elf/arm-eabi/lib/gnat/ravenscar-sfp-stm32h743nucleo/adalib/libgnarl.a(s-bbbosu.o)
                0x0000000008005bec                system__bb__board_support__to_pri
 .text.system__bb__board_support__to_priority
                0x0000000008005c30       0x38 /home/badr/GNAT/2018-arm-elf/arm-eabi/lib/gnat/ravenscar-sfp-stm32h743nucleo/adalib/libgnarl.a(s-bbbosu.o)
                0x0000000008005c30                system__bb__board_support__to_priority
 .text          0x0000000008005c68        0x0 /home/badr/GNAT/2018-arm-elf/arm-eabi/lib/gnat/ravenscar-sfp-stm32h743nucleo/adalib/libgnarl.a(s-bbcppr.o)
 .text.system__bb__cpu_primitives__Tcontext_bufferBIP
                0x0000000008005c68       0x14 /home/badr/GNAT/2018-arm-elf/arm-eabi/lib/gnat/ravenscar-sfp-stm32h743nucleo/adalib/libgnarl.a(s-bbcppr.o)
                0x0000000008005c68                system__bb__cpu_primitives__Tcontext_bufferBIP
 .text.system__bb__cpu_primitives__hardware_contextIP
                0x0000000008005c7c       0x14 /home/badr/GNAT/2018-arm-elf/arm-eabi/lib/gnat/ravenscar-sfp-stm32h743nucleo/adalib/libgnarl.a(s-bbcppr.o)
                0x0000000008005c7c                system__bb__cpu_primitives__hardware_contextIP
 .text.primask  0x0000000008005c90       0x1c /home/badr/GNAT/2018-arm-elf/arm-eabi/lib/gnat/ravenscar-sfp-stm32h743nucleo/adalib/libgnarl.a(s-bbcppr.o)
                0x0000000008005c90                primask
 .text.system__bb__cpu_primitives__initialize_cpu
                0x0000000008005cac       0x90 /home/badr/GNAT/2018-arm-elf/arm-eabi/lib/gnat/ravenscar-sfp-stm32h743nucleo/adalib/libgnarl.a(s-bbcppr.o)
                0x0000000008005cac                system__bb__cpu_primitives__initialize_cpu
 .text.system__bb__cpu_primitives__context_switch
                0x0000000008005d3c        0xc /home/badr/GNAT/2018-arm-elf/arm-eabi/lib/gnat/ravenscar-sfp-stm32h743nucleo/adalib/libgnarl.a(s-bbcppr.o)
                0x0000000008005d3c                system__bb__cpu_primitives__context_switch
 .text.system__bb__cpu_primitives__get_context
                0x0000000008005d48       0x24 /home/badr/GNAT/2018-arm-elf/arm-eabi/lib/gnat/ravenscar-sfp-stm32h743nucleo/adalib/libgnarl.a(s-bbcppr.o)
                0x0000000008005d48                system__bb__cpu_primitives__get_context
 .text.system__bb__cpu_primitives__gnat_error_handler
                0x0000000008005d6c      0xc2c /home/badr/GNAT/2018-arm-elf/arm-eabi/lib/gnat/ravenscar-sfp-stm32h743nucleo/adalib/libgnarl.a(s-bbcppr.o)
                0x0000000008005d6c                system__bb__cpu_primitives__gnat_error_handler
 .text.__gnat_irq_trap
                0x0000000008006998       0x54 /home/badr/GNAT/2018-arm-elf/arm-eabi/lib/gnat/ravenscar-sfp-stm32h743nucleo/adalib/libgnarl.a(s-bbcppr.o)
                0x0000000008006998                __gnat_irq_trap
 .text.__gnat_sv_call_trap
                0x00000000080069ec        0xc /home/badr/GNAT/2018-arm-elf/arm-eabi/lib/gnat/ravenscar-sfp-stm32h743nucleo/adalib/libgnarl.a(s-bbcppr.o)
                0x00000000080069ec                __gnat_sv_call_trap
 .text.system__bb__cpu_primitives__set_context
                0x00000000080069f8       0x38 /home/badr/GNAT/2018-arm-elf/arm-eabi/lib/gnat/ravenscar-sfp-stm32h743nucleo/adalib/libgnarl.a(s-bbcppr.o)
                0x00000000080069f8                system__bb__cpu_primitives__set_context
 .text.__gnat_sys_tick_trap
                0x0000000008006a30       0x9c /home/badr/GNAT/2018-arm-elf/arm-eabi/lib/gnat/ravenscar-sfp-stm32h743nucleo/adalib/libgnarl.a(s-bbcppr.o)
                0x0000000008006a30                __gnat_sys_tick_trap
 .text.system__bb__cpu_primitives__initialize_context
                0x0000000008006acc       0x7c /home/badr/GNAT/2018-arm-elf/arm-eabi/lib/gnat/ravenscar-sfp-stm32h743nucleo/adalib/libgnarl.a(s-bbcppr.o)
                0x0000000008006acc                system__bb__cpu_primitives__initialize_context
 .text.system__bb__cpu_primitives__install_error_handlers
                0x0000000008006b48       0x68 /home/badr/GNAT/2018-arm-elf/arm-eabi/lib/gnat/ravenscar-sfp-stm32h743nucleo/adalib/libgnarl.a(s-bbcppr.o)
                0x0000000008006b48                system__bb__cpu_primitives__install_error_handlers
 .text.system__bb__cpu_primitives__install_trap_handler
                0x0000000008006bb0       0x3c /home/badr/GNAT/2018-arm-elf/arm-eabi/lib/gnat/ravenscar-sfp-stm32h743nucleo/adalib/libgnarl.a(s-bbcppr.o)
                0x0000000008006bb0                system__bb__cpu_primitives__install_trap_handler
 .text.system__bb__cpu_primitives__disable_interrupts
                0x0000000008006bec       0x10 /home/badr/GNAT/2018-arm-elf/arm-eabi/lib/gnat/ravenscar-sfp-stm32h743nucleo/adalib/libgnarl.a(s-bbcppr.o)
                0x0000000008006bec                system__bb__cpu_primitives__disable_interrupts
 .text.system__bb__cpu_primitives__enable_interrupts
                0x0000000008006bfc       0x20 /home/badr/GNAT/2018-arm-elf/arm-eabi/lib/gnat/ravenscar-sfp-stm32h743nucleo/adalib/libgnarl.a(s-bbcppr.o)
                0x0000000008006bfc                system__bb__cpu_primitives__enable_interrupts
 .text          0x0000000008006c1c        0x0 /home/badr/GNAT/2018-arm-elf/arm-eabi/lib/gnat/ravenscar-sfp-stm32h743nucleo/adalib/libgnarl.a(s-bbinte.o)
 .text.system__bb__interrupts__Tinterrupt_stacksBIP
                0x0000000008006c1c       0x14 /home/badr/GNAT/2018-arm-elf/arm-eabi/lib/gnat/ravenscar-sfp-stm32h743nucleo/adalib/libgnarl.a(s-bbinte.o)
                0x0000000008006c1c                system__bb__interrupts__Tinterrupt_stacksBIP
 .text.system__bb__interrupts__Tinterrupt_stack_tableBIP
                0x0000000008006c30       0x14 /home/badr/GNAT/2018-arm-elf/arm-eabi/lib/gnat/ravenscar-sfp-stm32h743nucleo/adalib/libgnarl.a(s-bbinte.o)
                0x0000000008006c30                system__bb__interrupts__Tinterrupt_stack_tableBIP
 .text.system__bb__interrupts__attach_handler
                0x0000000008006c44       0x5c /home/badr/GNAT/2018-arm-elf/arm-eabi/lib/gnat/ravenscar-sfp-stm32h743nucleo/adalib/libgnarl.a(s-bbinte.o)
                0x0000000008006c44                system__bb__interrupts__attach_handler
 .text.system__bb__interrupts__current_interrupt
                0x0000000008006ca0       0x50 /home/badr/GNAT/2018-arm-elf/arm-eabi/lib/gnat/ravenscar-sfp-stm32h743nucleo/adalib/libgnarl.a(s-bbinte.o)
                0x0000000008006ca0                system__bb__interrupts__current_interrupt
 .text.system__bb__interrupts__interrupt_wrapper
                0x0000000008006cf0      0x13c /home/badr/GNAT/2018-arm-elf/arm-eabi/lib/gnat/ravenscar-sfp-stm32h743nucleo/adalib/libgnarl.a(s-bbinte.o)
                0x0000000008006cf0                system__bb__interrupts__interrupt_wrapper
 .text.system__bb__interrupts__within_interrupt_stack
                0x0000000008006e2c       0x48 /home/badr/GNAT/2018-arm-elf/arm-eabi/lib/gnat/ravenscar-sfp-stm32h743nucleo/adalib/libgnarl.a(s-bbinte.o)
                0x0000000008006e2c                system__bb__interrupts__within_interrupt_stack
 .text.system__bb__interrupts__initialize_interrupts
                0x0000000008006e74       0x54 /home/badr/GNAT/2018-arm-elf/arm-eabi/lib/gnat/ravenscar-sfp-stm32h743nucleo/adalib/libgnarl.a(s-bbinte.o)
                0x0000000008006e74                system__bb__interrupts__initialize_interrupts
 .text          0x0000000008006ec8        0x0 /home/badr/GNAT/2018-arm-elf/arm-eabi/lib/gnat/ravenscar-sfp-stm32h743nucleo/adalib/libgnarl.a(s-bbprot.o)
 .text.system__bb__protection__enter_kernel
                0x0000000008006ec8        0xc /home/badr/GNAT/2018-arm-elf/arm-eabi/lib/gnat/ravenscar-sfp-stm32h743nucleo/adalib/libgnarl.a(s-bbprot.o)
                0x0000000008006ec8                system__bb__protection__enter_kernel
 .text.system__bb__protection__leave_kernel
                0x0000000008006ed4       0x54 /home/badr/GNAT/2018-arm-elf/arm-eabi/lib/gnat/ravenscar-sfp-stm32h743nucleo/adalib/libgnarl.a(s-bbprot.o)
                0x0000000008006ed4                system__bb__protection__leave_kernel
 .text          0x0000000008006f28        0x0 /home/badr/GNAT/2018-arm-elf/arm-eabi/lib/gnat/ravenscar-sfp-stm32h743nucleo/adalib/libgnarl.a(s-bbthqu.o)
 .text.system__bb__threads__queues__change_priority
                0x0000000008006f28      0x244 /home/badr/GNAT/2018-arm-elf/arm-eabi/lib/gnat/ravenscar-sfp-stm32h743nucleo/adalib/libgnarl.a(s-bbthqu.o)
                0x0000000008006f28                system__bb__threads__queues__change_priority
 .text.__gnat_context_switch_needed
                0x000000000800716c       0x20 /home/badr/GNAT/2018-arm-elf/arm-eabi/lib/gnat/ravenscar-sfp-stm32h743nucleo/adalib/libgnarl.a(s-bbthqu.o)
                0x000000000800716c                __gnat_context_switch_needed
 .text.system__bb__threads__queues__current_priority
                0x000000000800718c       0x54 /home/badr/GNAT/2018-arm-elf/arm-eabi/lib/gnat/ravenscar-sfp-stm32h743nucleo/adalib/libgnarl.a(s-bbthqu.o)
                0x000000000800718c                system__bb__threads__queues__current_priority
 .text.system__bb__threads__queues__extract
                0x00000000080071e0       0x68 /home/badr/GNAT/2018-arm-elf/arm-eabi/lib/gnat/ravenscar-sfp-stm32h743nucleo/adalib/libgnarl.a(s-bbthqu.o)
                0x00000000080071e0                system__bb__threads__queues__extract
 .text.system__bb__threads__queues__extract_first_alarm
                0x0000000008007248       0x7c /home/badr/GNAT/2018-arm-elf/arm-eabi/lib/gnat/ravenscar-sfp-stm32h743nucleo/adalib/libgnarl.a(s-bbthqu.o)
                0x0000000008007248                system__bb__threads__queues__extract_first_alarm
 .text.system__bb__threads__queues__first_thread
                0x00000000080072c4       0x24 /home/badr/GNAT/2018-arm-elf/arm-eabi/lib/gnat/ravenscar-sfp-stm32h743nucleo/adalib/libgnarl.a(s-bbthqu.o)
                0x00000000080072c4                system__bb__threads__queues__first_thread
 .text.system__bb__threads__queues__get_next_alarm_time
                0x00000000080072e8       0x48 /home/badr/GNAT/2018-arm-elf/arm-eabi/lib/gnat/ravenscar-sfp-stm32h743nucleo/adalib/libgnarl.a(s-bbthqu.o)
                0x00000000080072e8                system__bb__threads__queues__get_next_alarm_time
 .text.system__bb__threads__queues__insert
                0x0000000008007330      0x2a0 /home/badr/GNAT/2018-arm-elf/arm-eabi/lib/gnat/ravenscar-sfp-stm32h743nucleo/adalib/libgnarl.a(s-bbthqu.o)
                0x0000000008007330                system__bb__threads__queues__insert
 .text.system__bb__threads__queues__insert_alarm
                0x00000000080075d0      0x1b0 /home/badr/GNAT/2018-arm-elf/arm-eabi/lib/gnat/ravenscar-sfp-stm32h743nucleo/adalib/libgnarl.a(s-bbthqu.o)
                0x00000000080075d0                system__bb__threads__queues__insert_alarm
 .text.system__bb__threads__queues__running_thread
                0x0000000008007780       0x24 /home/badr/GNAT/2018-arm-elf/arm-eabi/lib/gnat/ravenscar-sfp-stm32h743nucleo/adalib/libgnarl.a(s-bbthqu.o)
                0x0000000008007780                system__bb__threads__queues__running_thread
 .text.system__bb__threads__queues__wakeup_expired_alarms
                0x00000000080077a4       0x60 /home/badr/GNAT/2018-arm-elf/arm-eabi/lib/gnat/ravenscar-sfp-stm32h743nucleo/adalib/libgnarl.a(s-bbthqu.o)
                0x00000000080077a4                system__bb__threads__queues__wakeup_expired_alarms
 .text.system__bb__threads__queues__yield
                0x0000000008007804      0x190 /home/badr/GNAT/2018-arm-elf/arm-eabi/lib/gnat/ravenscar-sfp-stm32h743nucleo/adalib/libgnarl.a(s-bbthqu.o)
                0x0000000008007804                system__bb__threads__queues__yield
 .text          0x0000000008007994        0x0 /home/badr/GNAT/2018-arm-elf/arm-eabi/lib/gnat/ravenscar-sfp-stm32h743nucleo/adalib/libgnarl.a(s-bbthre.o)
 .text.system__bb__threads__thread_descriptorIP
                0x0000000008007994       0x24 /home/badr/GNAT/2018-arm-elf/arm-eabi/lib/gnat/ravenscar-sfp-stm32h743nucleo/adalib/libgnarl.a(s-bbthre.o)
                0x0000000008007994                system__bb__threads__thread_descriptorIP
 .text.system__bb__threads__get_affinity
                0x00000000080079b8       0x2c /home/badr/GNAT/2018-arm-elf/arm-eabi/lib/gnat/ravenscar-sfp-stm32h743nucleo/adalib/libgnarl.a(s-bbthre.o)
                0x00000000080079b8                system__bb__threads__get_affinity
 .text.system__bb__threads__get_cpu
                0x00000000080079e4       0x54 /home/badr/GNAT/2018-arm-elf/arm-eabi/lib/gnat/ravenscar-sfp-stm32h743nucleo/adalib/libgnarl.a(s-bbthre.o)
                0x00000000080079e4                system__bb__threads__get_cpu
 .text.system__bb__threads__get_atcb
                0x0000000008007a38       0x24 /home/badr/GNAT/2018-arm-elf/arm-eabi/lib/gnat/ravenscar-sfp-stm32h743nucleo/adalib/libgnarl.a(s-bbthre.o)
                0x0000000008007a38                system__bb__threads__get_atcb
 .text.system__bb__threads__get_priority
                0x0000000008007a5c       0x28 /home/badr/GNAT/2018-arm-elf/arm-eabi/lib/gnat/ravenscar-sfp-stm32h743nucleo/adalib/libgnarl.a(s-bbthre.o)
                0x0000000008007a5c                system__bb__threads__get_priority
 .text.system__bb__threads__initialize_thread
                0x0000000008007a84      0x164 /home/badr/GNAT/2018-arm-elf/arm-eabi/lib/gnat/ravenscar-sfp-stm32h743nucleo/adalib/libgnarl.a(s-bbthre.o)
 .text.system__bb__threads__initialize
                0x0000000008007be8       0x88 /home/badr/GNAT/2018-arm-elf/arm-eabi/lib/gnat/ravenscar-sfp-stm32h743nucleo/adalib/libgnarl.a(s-bbthre.o)
                0x0000000008007be8                system__bb__threads__initialize
 .text.system__bb__threads__initialize_slave
                0x0000000008007c70       0x78 /home/badr/GNAT/2018-arm-elf/arm-eabi/lib/gnat/ravenscar-sfp-stm32h743nucleo/adalib/libgnarl.a(s-bbthre.o)
                0x0000000008007c70                system__bb__threads__initialize_slave
 .text.system__bb__threads__set_atcb
                0x0000000008007ce8       0x2c /home/badr/GNAT/2018-arm-elf/arm-eabi/lib/gnat/ravenscar-sfp-stm32h743nucleo/adalib/libgnarl.a(s-bbthre.o)
                0x0000000008007ce8                system__bb__threads__set_atcb
 .text.system__bb__threads__set_priority
                0x0000000008007d14       0x24 /home/badr/GNAT/2018-arm-elf/arm-eabi/lib/gnat/ravenscar-sfp-stm32h743nucleo/adalib/libgnarl.a(s-bbthre.o)
                0x0000000008007d14                system__bb__threads__set_priority
 .text.system__bb__threads__sleep
                0x0000000008007d38       0x70 /home/badr/GNAT/2018-arm-elf/arm-eabi/lib/gnat/ravenscar-sfp-stm32h743nucleo/adalib/libgnarl.a(s-bbthre.o)
                0x0000000008007d38                system__bb__threads(short, long,...)(...)( *)
 .text.system__bb__threads__thread_create
                0x0000000008007da8       0x50 /home/badr/GNAT/2018-arm-elf/arm-eabi/lib/gnat/ravenscar-sfp-stm32h743nucleo/adalib/libgnarl.a(s-bbthre.o)
                0x0000000008007da8                system__bb__threads__thread_create
 .text.system__bb__threads__thread_self
                0x0000000008007df8       0x10 /home/badr/GNAT/2018-arm-elf/arm-eabi/lib/gnat/ravenscar-sfp-stm32h743nucleo/adalib/libgnarl.a(s-bbthre.o)
                0x0000000008007df8                system__bb__threads__thread_self
 .text.system__bb__threads__wakeup
                0x0000000008007e08       0x6c /home/badr/GNAT/2018-arm-elf/arm-eabi/lib/gnat/ravenscar-sfp-stm32h743nucleo/adalib/libgnarl.a(s-bbthre.o)
                0x0000000008007e08                system__bb__threads__wakeup
 .text          0x0000000008007e74        0x0 /home/badr/GNAT/2018-arm-elf/arm-eabi/lib/gnat/ravenscar-sfp-stm32h743nucleo/adalib/libgnarl.a(s-bcpcst.o)
 .text.system__bb__cpu_primitives__context_switch_trigger__initialize_context_switch
                0x0000000008007e74       0x10 /home/badr/GNAT/2018-arm-elf/arm-eabi/lib/gnat/ravenscar-sfp-stm32h743nucleo/adalib/libgnarl.a(s-bcpcst.o)
                0x0000000008007e74                system__bb__cpu_primitives__context_switch_trigger__initialize_context_switch
 .text.system__bb__cpu_primitives__context_switch_trigger__trigger_context_switch
                0x0000000008007e84       0x18 /home/badr/GNAT/2018-arm-elf/arm-eabi/lib/gnat/ravenscar-sfp-stm32h743nucleo/adalib/libgnarl.a(s-bcpcst.o)
                0x0000000008007e84                system__bb__cpu_primitives__context_switch_trigger__trigger_context_switch
 .text.__gnat_pend_sv_trap
                0x0000000008007e9c       0x48 /home/badr/GNAT/2018-arm-elf/arm-eabi/lib/gnat/ravenscar-sfp-stm32h743nucleo/adalib/libgnarl.a(s-bcpcst.o)
                0x0000000008007e9c                __gnat_pend_sv_trap
 *fill*         0x0000000008007ee4      0x11c 
 .text          0x0000000008008000      0x264 /home/badr/GNAT/2018-arm-elf/arm-eabi/lib/gnat/ravenscar-sfp-stm32h743nucleo/adalib/libgnarl.a(handler.o)
                0x0000000008008000                __vectors
 .text          0x0000000008008264        0x0 /home/badr/GNAT/2018-arm-elf/arm-eabi/lib/gnat/ravenscar-sfp-stm32h743nucleo/adalib/libgnat.a(a-elchha.o)
 .text.ada__exceptions__last_chance_handler__put.5431
                0x0000000008008264       0x5c /home/badr/GNAT/2018-arm-elf/arm-eabi/lib/gnat/ravenscar-sfp-stm32h743nucleo/adalib/libgnat.a(a-elchha.o)
 .text.__gnat_last_chance_handler
                0x00000000080082c0       0x8c /home/badr/GNAT/2018-arm-elf/arm-eabi/lib/gnat/ravenscar-sfp-stm32h743nucleo/adalib/libgnat.a(a-elchha.o)
                0x00000000080082c0                __gnat_last_chance_handler
 .text          0x000000000800834c        0x0 /home/badr/GNAT/2018-arm-elf/arm-eabi/lib/gnat/ravenscar-sfp-stm32h743nucleo/adalib/libgnat.a(a-except.o)
 .text          0x000000000800834c       0x20 /home/badr/GNAT/2018-arm-elf/arm-eabi/lib/gnat/ravenscar-sfp-stm32h743nucleo/adalib/libgnat.a(breakpoint_handler-cortexm.o)
                0x000000000800834c                __gnat_bkpt_trap
 .text          0x000000000800836c        0x0 /home/badr/GNAT/2018-arm-elf/arm-eabi/lib/gnat/ravenscar-sfp-stm32h743nucleo/adalib/libgnat.a(g-io.o)
 .text.gnat__io__put__2
                0x000000000800836c       0x60 /home/badr/GNAT/2018-arm-elf/arm-eabi/lib/gnat/ravenscar-sfp-stm32h743nucleo/adalib/libgnat.a(g-io.o)
                0x000000000800836c                gnat__io__put__2
 .text.gnat__io__new_line
                0x00000000080083cc       0x2c /home/badr/GNAT/2018-arm-elf/arm-eabi/lib/gnat/ravenscar-sfp-stm32h743nucleo/adalib/libgnat.a(g-io.o)
                0x00000000080083cc                gnat__io__new_line
 .text.gnat__io__put
                0x00000000080083f8      0x134 /home/badr/GNAT/2018-arm-elf/arm-eabi/lib/gnat/ravenscar-sfp-stm32h743nucleo/adalib/libgnat.a(g-io.o)
                0x00000000080083f8                gnat__io__put
 .text.gnat__io__put__3
                0x000000000800852c       0x48 /home/badr/GNAT/2018-arm-elf/arm-eabi/lib/gnat/ravenscar-sfp-stm32h743nucleo/adalib/libgnat.a(g-io.o)
                0x000000000800852c                gnat__io__put__3
 .text.gnat__io__put_line
                0x0000000008008574       0x20 /home/badr/GNAT/2018-arm-elf/arm-eabi/lib/gnat/ravenscar-sfp-stm32h743nucleo/adalib/libgnat.a(g-io.o)
                0x0000000008008574                gnat__io__put_line
 .text          0x0000000008008594        0x0 /home/badr/GNAT/2018-arm-elf/arm-eabi/lib/gnat/ravenscar-sfp-stm32h743nucleo/adalib/libgnat.a(s-assert.o)
 .text.system__assertions__raise_assert_failure
                0x0000000008008594      0x15c /home/badr/GNAT/2018-arm-elf/arm-eabi/lib/gnat/ravenscar-sfp-stm32h743nucleo/adalib/libgnat.a(s-assert.o)
                0x0000000008008594                system__assertions__raise_assert_failure
 .text          0x00000000080086f0        0x0 /home/badr/GNAT/2018-arm-elf/arm-eabi/lib/gnat/ravenscar-sfp-stm32h743nucleo/adalib/libgnat.a(s-macres.o)
 .text.abort    0x00000000080086f0        0xc /home/badr/GNAT/2018-arm-elf/arm-eabi/lib/gnat/ravenscar-sfp-stm32h743nucleo/adalib/libgnat.a(s-macres.o)
                0x00000000080086f0                abort
 .text._exit    0x00000000080086fc       0x20 /home/badr/GNAT/2018-arm-elf/arm-eabi/lib/gnat/ravenscar-sfp-stm32h743nucleo/adalib/libgnat.a(s-macres.o)
                0x00000000080086fc                _exit
 .text.system__machine_reset__stop
                0x000000000800871c        0xc /home/badr/GNAT/2018-arm-elf/arm-eabi/lib/gnat/ravenscar-sfp-stm32h743nucleo/adalib/libgnat.a(s-macres.o)
                0x000000000800871c                system__machine_reset__stop
 .text          0x0000000008008728        0x0 /home/badr/GNAT/2018-arm-elf/arm-eabi/lib/gnat/ravenscar-sfp-stm32h743nucleo/adalib/libgnat.a(s-memcop.o)
 .text.memcpy   0x0000000008008728       0xb4 /home/badr/GNAT/2018-arm-elf/arm-eabi/lib/gnat/ravenscar-sfp-stm32h743nucleo/adalib/libgnat.a(s-memcop.o)
                0x0000000008008728                memcpy
 .text          0x00000000080087dc        0x0 /home/badr/GNAT/2018-arm-elf/arm-eabi/lib/gnat/ravenscar-sfp-stm32h743nucleo/adalib/libgnat.a(s-memset.o)
 .text.memset   0x00000000080087dc       0x9c /home/badr/GNAT/2018-arm-elf/arm-eabi/lib/gnat/ravenscar-sfp-stm32h743nucleo/adalib/libgnat.a(s-memset.o)
                0x00000000080087dc                memset
 .text          0x0000000008008878        0x0 /home/badr/GNAT/2018-arm-elf/arm-eabi/lib/gnat/ravenscar-sfp-stm32h743nucleo/adalib/libgnat.a(s-parame.o)
 .text.system__parameters__adjust_storage_size
                0x0000000008008878       0x28 /home/badr/GNAT/2018-arm-elf/arm-eabi/lib/gnat/ravenscar-sfp-stm32h743nucleo/adalib/libgnat.a(s-parame.o)
                0x0000000008008878                system__parameters__adjust_storage_size
 .text          0x00000000080088a0        0x0 /home/badr/GNAT/2018-arm-elf/arm-eabi/lib/gnat/ravenscar-sfp-stm32h743nucleo/adalib/libgnat.a(s-secsta.o)
 .text.system__secondary_stack__memoryIP
                0x00000000080088a0       0x14 /home/badr/GNAT/2018-arm-elf/arm-eabi/lib/gnat/ravenscar-sfp-stm32h743nucleo/adalib/libgnat.a(s-secsta.o)
                0x00000000080088a0                system__secondary_stack__memoryIP
 .text.system__secondary_stack__ss_stackIP
                0x00000000080088b4       0x1c /home/badr/GNAT/2018-arm-elf/arm-eabi/lib/gnat/ravenscar-sfp-stm32h743nucleo/adalib/libgnat.a(s-secsta.o)
                0x00000000080088b4                system__secondary_stack__ss_stackIP
 .text.system__secondary_stack__ss_allocate
                0x00000000080088d0       0xe4 /home/badr/GNAT/2018-arm-elf/arm-eabi/lib/gnat/ravenscar-sfp-stm32h743nucleo/adalib/libgnat.a(s-secsta.o)
                0x00000000080088d0                system__secondary_stack__ss_allocate
 .text.system__secondary_stack__ss_get_max
                0x00000000080089b4       0x2c /home/badr/GNAT/2018-arm-elf/arm-eabi/lib/gnat/ravenscar-sfp-stm32h743nucleo/adalib/libgnat.a(s-secsta.o)
                0x00000000080089b4                system__secondary_stack__ss_get_max
 .text.system__secondary_stack__ss_init
                0x00000000080089e0      0x1a0 /home/badr/GNAT/2018-arm-elf/arm-eabi/lib/gnat/ravenscar-sfp-stm32h743nucleo/adalib/libgnat.a(s-secsta.o)
                0x00000000080089e0                system__secondary_stack__ss_init
 .text.system__secondary_stack__ss_mark
                0x0000000008008b80       0x24 /home/badr/GNAT/2018-arm-elf/arm-eabi/lib/gnat/ravenscar-sfp-stm32h743nucleo/adalib/libgnat.a(s-secsta.o)
                0x0000000008008b80                system__secondary_stack__ss_mark
 .text.system__secondary_stack__ss_release
                0x0000000008008ba4       0x2c /home/badr/GNAT/2018-arm-elf/arm-eabi/lib/gnat/ravenscar-sfp-stm32h743nucleo/adalib/libgnat.a(s-secsta.o)
                0x0000000008008ba4                system__secondary_stack__ss_release
 .text          0x0000000008008bd0        0x0 /home/badr/GNAT/2018-arm-elf/arm-eabi/lib/gnat/ravenscar-sfp-stm32h743nucleo/adalib/libgnat.a(s-textio.o)
 .text.system__text_io__initialize
                0x0000000008008bd0       0x18 /home/badr/GNAT/2018-arm-elf/arm-eabi/lib/gnat/ravenscar-sfp-stm32h743nucleo/adalib/libgnat.a(s-textio.o)
                0x0000000008008bd0                system__text_io__initialize
 .text.system__text_io__is_tx_ready
                0x0000000008008be8       0x14 /home/badr/GNAT/2018-arm-elf/arm-eabi/lib/gnat/ravenscar-sfp-stm32h743nucleo/adalib/libgnat.a(s-textio.o)
                0x0000000008008be8                system__text_io__is_tx_ready
 .text.system__text_io__is_rx_ready
                0x0000000008008bfc       0x14 /home/badr/GNAT/2018-arm-elf/arm-eabi/lib/gnat/ravenscar-sfp-stm32h743nucleo/adalib/libgnat.a(s-textio.o)
                0x0000000008008bfc                system__text_io__is_rx_ready
 .text.system__text_io__get
                0x0000000008008c10       0x1c /home/badr/GNAT/2018-arm-elf/arm-eabi/lib/gnat/ravenscar-sfp-stm32h743nucleo/adalib/libgnat.a(s-textio.o)
                0x0000000008008c10                system__text_io__get
 .text.system__text_io__put
                0x0000000008008c2c       0x18 /home/badr/GNAT/2018-arm-elf/arm-eabi/lib/gnat/ravenscar-sfp-stm32h743nucleo/adalib/libgnat.a(s-textio.o)
                0x0000000008008c2c                system__text_io__put
 .text.system__text_io__use_cr_lf_for_new_line
                0x0000000008008c44       0x14 /home/badr/GNAT/2018-arm-elf/arm-eabi/lib/gnat/ravenscar-sfp-stm32h743nucleo/adalib/libgnat.a(s-textio.o)
                0x0000000008008c44                system__text_io__use_cr_lf_for_new_line
 .text          0x0000000008008c58       0x6c /home/badr/GNAT/2018-arm-elf/arm-eabi/lib/gnat/ravenscar-sfp-stm32h743nucleo/adalib/libgnat.a(start-rom.o)
                0x0000000008008c58                _start_rom
 .text          0x0000000008008cc4        0x0 /home/badr/GNAT/2018-arm-elf/arm-eabi/lib/gnat/ravenscar-sfp-stm32h743nucleo/adalib/libgnat.a(s-semiho.o)
 .text.system__semihosting__TbufferBIP
                0x0000000008008cc4       0x14 /home/badr/GNAT/2018-arm-elf/arm-eabi/lib/gnat/ravenscar-sfp-stm32h743nucleo/adalib/libgnat.a(s-semiho.o)
                0x0000000008008cc4                system__semihosting__TbufferBIP
 .text.system__semihosting__generic_sh_call
                0x0000000008008cd8       0x28 /home/badr/GNAT/2018-arm-elf/arm-eabi/lib/gnat/ravenscar-sfp-stm32h743nucleo/adalib/libgnat.a(s-semiho.o)
 .text.system__semihosting__flush
                0x0000000008008d00       0x44 /home/badr/GNAT/2018-arm-elf/arm-eabi/lib/gnat/ravenscar-sfp-stm32h743nucleo/adalib/libgnat.a(s-semiho.o)
 .text.system__semihosting__put
                0x0000000008008d44       0x90 /home/badr/GNAT/2018-arm-elf/arm-eabi/lib/gnat/ravenscar-sfp-stm32h743nucleo/adalib/libgnat.a(s-semiho.o)
                0x0000000008008d44                system__semihosting__put
 .text.system__semihosting__put__2
                0x0000000008008dd4       0x48 /home/badr/GNAT/2018-arm-elf/arm-eabi/lib/gnat/ravenscar-sfp-stm32h743nucleo/adalib/libgnat.a(s-semiho.o)
                0x0000000008008dd4                system__semihosting__put__2
 .text.system__semihosting__get
                0x0000000008008e1c       0x34 /home/badr/GNAT/2018-arm-elf/arm-eabi/lib/gnat/ravenscar-sfp-stm32h743nucleo/adalib/libgnat.a(s-semiho.o)
                0x0000000008008e1c                system__semihosting__get
 .text          0x0000000008008e50      0x104 /home/badr/GNAT/2018-arm-elf/arm-eabi/lib/gnat/ravenscar-sfp-stm32h743nucleo/adalib/libgnat.a(start-common.o)
                0x0000000008008e50                _stm32_start_common
 .text          0x0000000008008f54       0xa0 /home/badr/GNAT/2018-arm-elf/bin/../lib/gcc/arm-eabi/7.3.1/thumb/v7e-m/fpv5/hard/libgcc.a(_aeabi_ldivmod.o)
                0x0000000008008f54                __aeabi_ldivmod
 .text          0x0000000008008ff4       0x30 /home/badr/GNAT/2018-arm-elf/bin/../lib/gcc/arm-eabi/7.3.1/thumb/v7e-m/fpv5/hard/libgcc.a(_aeabi_uldivmod.o)
                0x0000000008008ff4                __aeabi_uldivmod
 .text          0x0000000008009024      0x2cc /home/badr/GNAT/2018-arm-elf/bin/../lib/gcc/arm-eabi/7.3.1/thumb/v7e-m/fpv5/hard/libgcc.a(_udivmoddi4.o)
                0x0000000008009024                __udivmoddi4
 .text          0x00000000080092f0        0x4 /home/badr/GNAT/2018-arm-elf/bin/../lib/gcc/arm-eabi/7.3.1/thumb/v7e-m/fpv5/hard/libgcc.a(_dvmd_tls.o)
                0x00000000080092f0                __aeabi_ldiv0
                0x00000000080092f0                __aeabi_idiv0
 *(.gnu.warning)

.glue_7         0x00000000080092f4        0x0
 .glue_7        0x00000000080092f4        0x0 linker stubs

.glue_7t        0x00000000080092f4        0x0
 .glue_7t       0x00000000080092f4        0x0 linker stubs

.vfp11_veneer   0x00000000080092f4        0x0
 .vfp11_veneer  0x00000000080092f4        0x0 linker stubs

.v4_bx          0x00000000080092f4        0x0
 .v4_bx         0x00000000080092f4        0x0 linker stubs

.iplt           0x00000000080092f4        0x0
 .iplt          0x00000000080092f4        0x0 blink.o

.ARM.extab      0x00000000080092f4        0x0
 *(.ARM.extab* .gnu.linkonce.armextab.*)
 .ARM.extab     0x00000000080092f4        0x0 /home/badr/GNAT/2018-arm-elf/bin/../lib/gcc/arm-eabi/7.3.1/thumb/v7e-m/fpv5/hard/libgcc.a(_udivmoddi4.o)

.ARM.exidx      0x00000000080092f4        0x8
                [!provide]                        PROVIDE (__exidx_start, .)
 *(.ARM.exidx* .gnu.linkonce.armexidx.*)
 .ARM.exidx     0x00000000080092f4        0x8 /home/badr/GNAT/2018-arm-elf/bin/../lib/gcc/arm-eabi/7.3.1/thumb/v7e-m/fpv5/hard/libgcc.a(_udivmoddi4.o)
                [!provide]                        PROVIDE (__exidx_end, .)

.rodata         0x0000000008009300      0xdd8
 *(.lit)
 *(.rodata .rodata.* .gnu.linkonce.r*)
 .rodata        0x0000000008009300        0x4 blink.o
 .rodata        0x0000000008009304       0x3f b__blink.o
                0x000000000800930c                __gnat_version
                0x0000000008009338                __gnat_ada_main_program_name
 *fill*         0x0000000008009343        0x1 
 .rodata        0x0000000008009344       0x59 /home/badr/hackinvent/Ada_Drivers_Library/boards/stm32h743_nucleo/obj/sfp_lib_Debug/libada_drivers_library.a(stm32-device.o)
 *fill*         0x000000000800939d        0x3 
 .rodata.stm32__device__unknown_deviceE
                0x00000000080093a0       0x1c /home/badr/hackinvent/Ada_Drivers_Library/boards/stm32h743_nucleo/obj/sfp_lib_Debug/libada_drivers_library.a(stm32-device.o)
                0x00000000080093a0                stm32__device__unknown_deviceE
 .rodata.stm32__device__R4s
                0x00000000080093bc        0x4 /home/badr/hackinvent/Ada_Drivers_Library/boards/stm32h743_nucleo/obj/sfp_lib_Debug/libada_drivers_library.a(stm32-device.o)
                0x00000000080093bc                stm32__device__R4s
 .rodata.stm32__device__gpio_a
                0x00000000080093c0        0x4 /home/badr/hackinvent/Ada_Drivers_Library/boards/stm32h743_nucleo/obj/sfp_lib_Debug/libada_drivers_library.a(stm32-device.o)
                0x00000000080093c0                stm32__device__gpio_a
 .rodata.stm32__device__gpio_b
                0x00000000080093c4        0x4 /home/badr/hackinvent/Ada_Drivers_Library/boards/stm32h743_nucleo/obj/sfp_lib_Debug/libada_drivers_library.a(stm32-device.o)
                0x00000000080093c4                stm32__device__gpio_b
 .rodata.stm32__device__gpio_c
                0x00000000080093c8        0x4 /home/badr/hackinvent/Ada_Drivers_Library/boards/stm32h743_nucleo/obj/sfp_lib_Debug/libada_drivers_library.a(stm32-device.o)
                0x00000000080093c8                stm32__device__gpio_c
 .rodata.stm32__device__gpio_d
                0x00000000080093cc        0x4 /home/badr/hackinvent/Ada_Drivers_Library/boards/stm32h743_nucleo/obj/sfp_lib_Debug/libada_drivers_library.a(stm32-device.o)
                0x00000000080093cc                stm32__device__gpio_d
 .rodata.stm32__device__gpio_e
                0x00000000080093d0        0x4 /home/badr/hackinvent/Ada_Drivers_Library/boards/stm32h743_nucleo/obj/sfp_lib_Debug/libada_drivers_library.a(stm32-device.o)
                0x00000000080093d0                stm32__device__gpio_e
 .rodata.stm32__device__gpio_f
                0x00000000080093d4        0x4 /home/badr/hackinvent/Ada_Drivers_Library/boards/stm32h743_nucleo/obj/sfp_lib_Debug/libada_drivers_library.a(stm32-device.o)
                0x00000000080093d4                stm32__device__gpio_f
 .rodata.stm32__device__gpio_g
                0x00000000080093d8        0x4 /home/badr/hackinvent/Ada_Drivers_Library/boards/stm32h743_nucleo/obj/sfp_lib_Debug/libada_drivers_library.a(stm32-device.o)
                0x00000000080093d8                stm32__device__gpio_g
 .rodata.stm32__device__gpio_h
                0x00000000080093dc        0x4 /home/badr/hackinvent/Ada_Drivers_Library/boards/stm32h743_nucleo/obj/sfp_lib_Debug/libada_drivers_library.a(stm32-device.o)
                0x00000000080093dc                stm32__device__gpio_h
 .rodata.stm32__device__gpio_i
                0x00000000080093e0        0x4 /home/badr/hackinvent/Ada_Drivers_Library/boards/stm32h743_nucleo/obj/sfp_lib_Debug/libada_drivers_library.a(stm32-device.o)
                0x00000000080093e0                stm32__device__gpio_i
 .rodata.stm32__device__gpio_j
                0x00000000080093e4        0x4 /home/badr/hackinvent/Ada_Drivers_Library/boards/stm32h743_nucleo/obj/sfp_lib_Debug/libada_drivers_library.a(stm32-device.o)
                0x00000000080093e4                stm32__device__gpio_j
 .rodata.stm32__device__gpio_k
                0x00000000080093e8        0x4 /home/badr/hackinvent/Ada_Drivers_Library/boards/stm32h743_nucleo/obj/sfp_lib_Debug/libada_drivers_library.a(stm32-device.o)
                0x00000000080093e8                stm32__device__gpio_k
 .rodata.stm32__device__pllsai_div2
                0x00000000080093ec        0x1 /home/badr/hackinvent/Ada_Drivers_Library/boards/stm32h743_nucleo/obj/sfp_lib_Debug/libada_drivers_library.a(stm32-device.o)
                0x00000000080093ec                stm32__device__pllsai_div2
 .rodata.stm32__device__pllsai_div4
                0x00000000080093ed        0x1 /home/badr/hackinvent/Ada_Drivers_Library/boards/stm32h743_nucleo/obj/sfp_lib_Debug/libada_drivers_library.a(stm32-device.o)
                0x00000000080093ed                stm32__device__pllsai_div4
 .rodata.stm32__device__pllsai_div8
                0x00000000080093ee        0x1 /home/badr/hackinvent/Ada_Drivers_Library/boards/stm32h743_nucleo/obj/sfp_lib_Debug/libada_drivers_library.a(stm32-device.o)
                0x00000000080093ee                stm32__device__pllsai_div8
 .rodata.stm32__device__pllsai_div16
                0x00000000080093ef        0x1 /home/badr/hackinvent/Ada_Drivers_Library/boards/stm32h743_nucleo/obj/sfp_lib_Debug/libada_drivers_library.a(stm32-device.o)
                0x00000000080093ef                stm32__device__pllsai_div16
 .rodata.stm32__device__hse_value
                0x00000000080093f0        0x4 /home/badr/hackinvent/Ada_Drivers_Library/boards/stm32h743_nucleo/obj/sfp_lib_Debug/libada_drivers_library.a(stm32-device.o)
                0x00000000080093f0                stm32__device__hse_value
 .rodata.stm32__device__gpio_af_rtc_50hz_0
                0x00000000080093f4        0x1 /home/badr/hackinvent/Ada_Drivers_Library/boards/stm32h743_nucleo/obj/sfp_lib_Debug/libada_drivers_library.a(stm32-device.o)
                0x00000000080093f4                stm32__device__gpio_af_rtc_50hz_0
 .rodata.stm32__device__gpio_af_mco_0
                0x00000000080093f5        0x1 /home/badr/hackinvent/Ada_Drivers_Library/boards/stm32h743_nucleo/obj/sfp_lib_Debug/libada_drivers_library.a(stm32-device.o)
                0x00000000080093f5                stm32__device__gpio_af_mco_0
 .rodata.stm32__device__gpio_af_tamper_0
                0x00000000080093f6        0x1 /home/badr/hackinvent/Ada_Drivers_Library/boards/stm32h743_nucleo/obj/sfp_lib_Debug/libada_drivers_library.a(stm32-device.o)
                0x00000000080093f6                stm32__device__gpio_af_tamper_0
 .rodata.stm32__device__gpio_af_swj_0
                0x00000000080093f7        0x1 /home/badr/hackinvent/Ada_Drivers_Library/boards/stm32h743_nucleo/obj/sfp_lib_Debug/libada_drivers_library.a(stm32-device.o)
                0x00000000080093f7                stm32__device__gpio_af_swj_0
 .rodata.stm32__device__gpio_af_trace_0
                0x00000000080093f8        0x1 /home/badr/hackinvent/Ada_Drivers_Library/boards/stm32h743_nucleo/obj/sfp_lib_Debug/libada_drivers_library.a(stm32-device.o)
                0x00000000080093f8                stm32__device__gpio_af_trace_0
 .rodata.stm32__device__gpio_af_tim1_1
                0x00000000080093f9        0x1 /home/badr/hackinvent/Ada_Drivers_Library/boards/stm32h743_nucleo/obj/sfp_lib_Debug/libada_drivers_library.a(stm32-device.o)
                0x00000000080093f9                stm32__device__gpio_af_tim1_1
 .rodata.stm32__device__gpio_af_tim2_1
                0x00000000080093fa        0x1 /home/badr/hackinvent/Ada_Drivers_Library/boards/stm32h743_nucleo/obj/sfp_lib_Debug/libada_drivers_library.a(stm32-device.o)
                0x00000000080093fa                stm32__device__gpio_af_tim2_1
 .rodata.stm32__device__gpio_af_i2c4_1
                0x00000000080093fb        0x1 /home/badr/hackinvent/Ada_Drivers_Library/boards/stm32h743_nucleo/obj/sfp_lib_Debug/libada_drivers_library.a(stm32-device.o)
                0x00000000080093fb                stm32__device__gpio_af_i2c4_1
 .rodata.stm32__device__gpio_af_uart5_1
                0x00000000080093fc        0x1 /home/badr/hackinvent/Ada_Drivers_Library/boards/stm32h743_nucleo/obj/sfp_lib_Debug/libada_drivers_library.a(stm32-device.o)
                0x00000000080093fc                stm32__device__gpio_af_uart5_1
 .rodata.stm32__device__gpio_af_tim3_2
                0x00000000080093fd        0x1 /home/badr/hackinvent/Ada_Drivers_Library/boards/stm32h743_nucleo/obj/sfp_lib_Debug/libada_drivers_library.a(stm32-device.o)
                0x00000000080093fd                stm32__device__gpio_af_tim3_2
 .rodata.stm32__device__gpio_af_tim4_2
                0x00000000080093fe        0x1 /home/badr/hackinvent/Ada_Drivers_Library/boards/stm32h743_nucleo/obj/sfp_lib_Debug/libada_drivers_library.a(stm32-device.o)
                0x00000000080093fe                stm32__device__gpio_af_tim4_2
 .rodata.stm32__device__gpio_af_tim5_2
                0x00000000080093ff        0x1 /home/badr/hackinvent/Ada_Drivers_Library/boards/stm32h743_nucleo/obj/sfp_lib_Debug/libada_drivers_library.a(stm32-device.o)
                0x00000000080093ff                stm32__device__gpio_af_tim5_2
 .rodata.stm32__device__gpio_af_tim8_3
                0x0000000008009400        0x1 /home/badr/hackinvent/Ada_Drivers_Library/boards/stm32h743_nucleo/obj/sfp_lib_Debug/libada_drivers_library.a(stm32-device.o)
                0x0000000008009400                stm32__device__gpio_af_tim8_3
 .rodata.stm32__device__gpio_af_tim9_3
                0x0000000008009401        0x1 /home/badr/hackinvent/Ada_Drivers_Library/boards/stm32h743_nucleo/obj/sfp_lib_Debug/libada_drivers_library.a(stm32-device.o)
                0x0000000008009401                stm32__device__gpio_af_tim9_3
 .rodata.stm32__device__gpio_af_tim10_3
                0x0000000008009402        0x1 /home/badr/hackinvent/Ada_Drivers_Library/boards/stm32h743_nucleo/obj/sfp_lib_Debug/libada_drivers_library.a(stm32-device.o)
                0x0000000008009402                stm32__device__gpio_af_tim10_3
 .rodata.stm32__device__gpio_af_tim11_3
                0x0000000008009403        0x1 /home/badr/hackinvent/Ada_Drivers_Library/boards/stm32h743_nucleo/obj/sfp_lib_Debug/libada_drivers_library.a(stm32-device.o)
                0x0000000008009403                stm32__device__gpio_af_tim11_3
 .rodata.stm32__device__gpio_af_lptim1_3
                0x0000000008009404        0x1 /home/badr/hackinvent/Ada_Drivers_Library/boards/stm32h743_nucleo/obj/sfp_lib_Debug/libada_drivers_library.a(stm32-device.o)
                0x0000000008009404                stm32__device__gpio_af_lptim1_3
 .rodata.stm32__device__gpio_af_dfsdm1_3
                0x0000000008009405        0x1 /home/badr/hackinvent/Ada_Drivers_Library/boards/stm32h743_nucleo/obj/sfp_lib_Debug/libada_drivers_library.a(stm32-device.o)
                0x0000000008009405                stm32__device__gpio_af_dfsdm1_3
 .rodata.stm32__device__gpio_af_cec_3
                0x0000000008009406        0x1 /home/badr/hackinvent/Ada_Drivers_Library/boards/stm32h743_nucleo/obj/sfp_lib_Debug/libada_drivers_library.a(stm32-device.o)
                0x0000000008009406                stm32__device__gpio_af_cec_3
 .rodata.stm32__device__gpio_af_i2c1_4
                0x0000000008009407        0x1 /home/badr/hackinvent/Ada_Drivers_Library/boards/stm32h743_nucleo/obj/sfp_lib_Debug/libada_drivers_library.a(stm32-device.o)
                0x0000000008009407                stm32__device__gpio_af_i2c1_4
 .rodata.stm32__device__gpio_af_i2c2_4
                0x0000000008009408        0x1 /home/badr/hackinvent/Ada_Drivers_Library/boards/stm32h743_nucleo/obj/sfp_lib_Debug/libada_drivers_library.a(stm32-device.o)
                0x0000000008009408                stm32__device__gpio_af_i2c2_4
 .rodata.stm32__device__gpio_af_i2c3_4
                0x0000000008009409        0x1 /home/badr/hackinvent/Ada_Drivers_Library/boards/stm32h743_nucleo/obj/sfp_lib_Debug/libada_drivers_library.a(stm32-device.o)
                0x0000000008009409                stm32__device__gpio_af_i2c3_4
 .rodata.stm32__device__gpio_af_i2c4_4
                0x000000000800940a        0x1 /home/badr/hackinvent/Ada_Drivers_Library/boards/stm32h743_nucleo/obj/sfp_lib_Debug/libada_drivers_library.a(stm32-device.o)
                0x000000000800940a                stm32__device__gpio_af_i2c4_4
 .rodata.stm32__device__gpio_af_usart1_4
                0x000000000800940b        0x1 /home/badr/hackinvent/Ada_Drivers_Library/boards/stm32h743_nucleo/obj/sfp_lib_Debug/libada_drivers_library.a(stm32-device.o)
                0x000000000800940b                stm32__device__gpio_af_usart1_4
 .rodata.stm32__device__gpio_af_cec_4
                0x000000000800940c        0x1 /home/badr/hackinvent/Ada_Drivers_Library/boards/stm32h743_nucleo/obj/sfp_lib_Debug/libada_drivers_library.a(stm32-device.o)
                0x000000000800940c                stm32__device__gpio_af_cec_4
 .rodata.stm32__device__gpio_af_spi1_5
                0x000000000800940d        0x1 /home/badr/hackinvent/Ada_Drivers_Library/boards/stm32h743_nucleo/obj/sfp_lib_Debug/libada_drivers_library.a(stm32-device.o)
                0x000000000800940d                stm32__device__gpio_af_spi1_5
 .rodata.stm32__device__gpio_af_spi2_5
                0x000000000800940e        0x1 /home/badr/hackinvent/Ada_Drivers_Library/boards/stm32h743_nucleo/obj/sfp_lib_Debug/libada_drivers_library.a(stm32-device.o)
                0x000000000800940e                stm32__device__gpio_af_spi2_5
 .rodata.stm32__device__gpio_af_i2s3_5
                0x000000000800940f        0x1 /home/badr/hackinvent/Ada_Drivers_Library/boards/stm32h743_nucleo/obj/sfp_lib_Debug/libada_drivers_library.a(stm32-device.o)
                0x000000000800940f                stm32__device__gpio_af_i2s3_5
 .rodata.stm32__device__gpio_af_spi4_5
                0x0000000008009410        0x1 /home/badr/hackinvent/Ada_Drivers_Library/boards/stm32h743_nucleo/obj/sfp_lib_Debug/libada_drivers_library.a(stm32-device.o)
                0x0000000008009410                stm32__device__gpio_af_spi4_5
 .rodata.stm32__device__gpio_af_spi5_5
                0x0000000008009411        0x1 /home/badr/hackinvent/Ada_Drivers_Library/boards/stm32h743_nucleo/obj/sfp_lib_Debug/libada_drivers_library.a(stm32-device.o)
                0x0000000008009411                stm32__device__gpio_af_spi5_5
 .rodata.stm32__device__gpio_af_spi6_5
                0x0000000008009412        0x1 /home/badr/hackinvent/Ada_Drivers_Library/boards/stm32h743_nucleo/obj/sfp_lib_Debug/libada_drivers_library.a(stm32-device.o)
                0x0000000008009412                stm32__device__gpio_af_spi6_5
 .rodata.stm32__device__gpio_af_spi2_6
                0x0000000008009413        0x1 /home/badr/hackinvent/Ada_Drivers_Library/boards/stm32h743_nucleo/obj/sfp_lib_Debug/libada_drivers_library.a(stm32-device.o)
                0x0000000008009413                stm32__device__gpio_af_spi2_6
 .rodata.stm32__device__gpio_af_spi3_6
                0x0000000008009414        0x1 /home/badr/hackinvent/Ada_Drivers_Library/boards/stm32h743_nucleo/obj/sfp_lib_Debug/libada_drivers_library.a(stm32-device.o)
                0x0000000008009414                stm32__device__gpio_af_spi3_6
 .rodata.stm32__device__gpio_af_i2s2_6
                0x0000000008009415        0x1 /home/badr/hackinvent/Ada_Drivers_Library/boards/stm32h743_nucleo/obj/sfp_lib_Debug/libada_drivers_library.a(stm32-device.o)
                0x0000000008009415                stm32__device__gpio_af_i2s2_6
 .rodata.stm32__device__gpio_af_i2s3_6
                0x0000000008009416        0x1 /home/badr/hackinvent/Ada_Drivers_Library/boards/stm32h743_nucleo/obj/sfp_lib_Debug/libada_drivers_library.a(stm32-device.o)
                0x0000000008009416                stm32__device__gpio_af_i2s3_6
 .rodata.stm32__device__gpio_af_sai1_6
                0x0000000008009417        0x1 /home/badr/hackinvent/Ada_Drivers_Library/boards/stm32h743_nucleo/obj/sfp_lib_Debug/libada_drivers_library.a(stm32-device.o)
                0x0000000008009417                stm32__device__gpio_af_sai1_6
 .rodata.stm32__device__gpio_af_uart4_6
                0x0000000008009418        0x1 /home/badr/hackinvent/Ada_Drivers_Library/boards/stm32h743_nucleo/obj/sfp_lib_Debug/libada_drivers_library.a(stm32-device.o)
                0x0000000008009418                stm32__device__gpio_af_uart4_6
 .rodata.stm32__device__gpio_af_dfsdm1_6
                0x0000000008009419        0x1 /home/badr/hackinvent/Ada_Drivers_Library/boards/stm32h743_nucleo/obj/sfp_lib_Debug/libada_drivers_library.a(stm32-device.o)
                0x0000000008009419                stm32__device__gpio_af_dfsdm1_6
 .rodata.stm32__device__gpio_af_spi2_7
                0x000000000800941a        0x1 /home/badr/hackinvent/Ada_Drivers_Library/boards/stm32h743_nucleo/obj/sfp_lib_Debug/libada_drivers_library.a(stm32-device.o)
                0x000000000800941a                stm32__device__gpio_af_spi2_7
 .rodata.stm32__device__gpio_af_i2s2_7
                0x000000000800941b        0x1 /home/badr/hackinvent/Ada_Drivers_Library/boards/stm32h743_nucleo/obj/sfp_lib_Debug/libada_drivers_library.a(stm32-device.o)
                0x000000000800941b                stm32__device__gpio_af_i2s2_7
 .rodata.stm32__device__gpio_af_spi3_7
                0x000000000800941c        0x1 /home/badr/hackinvent/Ada_Drivers_Library/boards/stm32h743_nucleo/obj/sfp_lib_Debug/libada_drivers_library.a(stm32-device.o)
                0x000000000800941c                stm32__device__gpio_af_spi3_7
 .rodata.stm32__device__gpio_af_i2s3_7
                0x000000000800941d        0x1 /home/badr/hackinvent/Ada_Drivers_Library/boards/stm32h743_nucleo/obj/sfp_lib_Debug/libada_drivers_library.a(stm32-device.o)
                0x000000000800941d                stm32__device__gpio_af_i2s3_7
 .rodata.stm32__device__gpio_af_spi6_7
                0x000000000800941e        0x1 /home/badr/hackinvent/Ada_Drivers_Library/boards/stm32h743_nucleo/obj/sfp_lib_Debug/libada_drivers_library.a(stm32-device.o)
                0x000000000800941e                stm32__device__gpio_af_spi6_7
 .rodata.stm32__device__gpio_af_usart1_7
                0x000000000800941f        0x1 /home/badr/hackinvent/Ada_Drivers_Library/boards/stm32h743_nucleo/obj/sfp_lib_Debug/libada_drivers_library.a(stm32-device.o)
                0x000000000800941f                stm32__device__gpio_af_usart1_7
 .rodata.stm32__device__gpio_af_usart2_7
                0x0000000008009420        0x1 /home/badr/hackinvent/Ada_Drivers_Library/boards/stm32h743_nucleo/obj/sfp_lib_Debug/libada_drivers_library.a(stm32-device.o)
                0x0000000008009420                stm32__device__gpio_af_usart2_7
 .rodata.stm32__device__gpio_af_usart3_7
                0x0000000008009421        0x1 /home/badr/hackinvent/Ada_Drivers_Library/boards/stm32h743_nucleo/obj/sfp_lib_Debug/libada_drivers_library.a(stm32-device.o)
                0x0000000008009421                stm32__device__gpio_af_usart3_7
 .rodata.stm32__device__gpio_af_uart5_7
                0x0000000008009422        0x1 /home/badr/hackinvent/Ada_Drivers_Library/boards/stm32h743_nucleo/obj/sfp_lib_Debug/libada_drivers_library.a(stm32-device.o)
                0x0000000008009422                stm32__device__gpio_af_uart5_7
 .rodata.stm32__device__gpio_af_dfsdm1_7
                0x0000000008009423        0x1 /home/badr/hackinvent/Ada_Drivers_Library/boards/stm32h743_nucleo/obj/sfp_lib_Debug/libada_drivers_library.a(stm32-device.o)
                0x0000000008009423                stm32__device__gpio_af_dfsdm1_7
 .rodata.stm32__device__gpio_af_spdif_7
                0x0000000008009424        0x1 /home/badr/hackinvent/Ada_Drivers_Library/boards/stm32h743_nucleo/obj/sfp_lib_Debug/libada_drivers_library.a(stm32-device.o)
                0x0000000008009424                stm32__device__gpio_af_spdif_7
 .rodata.stm32__device__gpio_af_spi6_8
                0x0000000008009425        0x1 /home/badr/hackinvent/Ada_Drivers_Library/boards/stm32h743_nucleo/obj/sfp_lib_Debug/libada_drivers_library.a(stm32-device.o)
                0x0000000008009425                stm32__device__gpio_af_spi6_8
 .rodata.stm32__device__gpio_af_sai2_8
                0x0000000008009426        0x1 /home/badr/hackinvent/Ada_Drivers_Library/boards/stm32h743_nucleo/obj/sfp_lib_Debug/libada_drivers_library.a(stm32-device.o)
                0x0000000008009426                stm32__device__gpio_af_sai2_8
 .rodata.stm32__device__gpio_af_uart4_8
                0x0000000008009427        0x1 /home/badr/hackinvent/Ada_Drivers_Library/boards/stm32h743_nucleo/obj/sfp_lib_Debug/libada_drivers_library.a(stm32-device.o)
                0x0000000008009427                stm32__device__gpio_af_uart4_8
 .rodata.stm32__device__gpio_af_uart5_8
                0x0000000008009428        0x1 /home/badr/hackinvent/Ada_Drivers_Library/boards/stm32h743_nucleo/obj/sfp_lib_Debug/libada_drivers_library.a(stm32-device.o)
                0x0000000008009428                stm32__device__gpio_af_uart5_8
 .rodata.stm32__device__gpio_af_usart6_8
                0x0000000008009429        0x1 /home/badr/hackinvent/Ada_Drivers_Library/boards/stm32h743_nucleo/obj/sfp_lib_Debug/libada_drivers_library.a(stm32-device.o)
                0x0000000008009429                stm32__device__gpio_af_usart6_8
 .rodata.stm32__device__gpio_af_uart7_8
                0x000000000800942a        0x1 /home/badr/hackinvent/Ada_Drivers_Library/boards/stm32h743_nucleo/obj/sfp_lib_Debug/libada_drivers_library.a(stm32-device.o)
                0x000000000800942a                stm32__device__gpio_af_uart7_8
 .rodata.stm32__device__gpio_af_uart8_8
                0x000000000800942b        0x1 /home/badr/hackinvent/Ada_Drivers_Library/boards/stm32h743_nucleo/obj/sfp_lib_Debug/libada_drivers_library.a(stm32-device.o)
                0x000000000800942b                stm32__device__gpio_af_uart8_8
 .rodata.stm32__device__gpio_af_otg_fs_8
                0x000000000800942c        0x1 /home/badr/hackinvent/Ada_Drivers_Library/boards/stm32h743_nucleo/obj/sfp_lib_Debug/libada_drivers_library.a(stm32-device.o)
                0x000000000800942c                stm32__device__gpio_af_otg_fs_8
 .rodata.stm32__device__gpio_af_spdif_8
                0x000000000800942d        0x1 /home/badr/hackinvent/Ada_Drivers_Library/boards/stm32h743_nucleo/obj/sfp_lib_Debug/libada_drivers_library.a(stm32-device.o)
                0x000000000800942d                stm32__device__gpio_af_spdif_8
 .rodata.stm32__device__gpio_af_can1_9
                0x000000000800942e        0x1 /home/badr/hackinvent/Ada_Drivers_Library/boards/stm32h743_nucleo/obj/sfp_lib_Debug/libada_drivers_library.a(stm32-device.o)
                0x000000000800942e                stm32__device__gpio_af_can1_9
 .rodata.stm32__device__gpio_af_can2_9
                0x000000000800942f        0x1 /home/badr/hackinvent/Ada_Drivers_Library/boards/stm32h743_nucleo/obj/sfp_lib_Debug/libada_drivers_library.a(stm32-device.o)
                0x000000000800942f                stm32__device__gpio_af_can2_9
 .rodata.stm32__device__gpio_af_tim12_9
                0x0000000008009430        0x1 /home/badr/hackinvent/Ada_Drivers_Library/boards/stm32h743_nucleo/obj/sfp_lib_Debug/libada_drivers_library.a(stm32-device.o)
                0x0000000008009430                stm32__device__gpio_af_tim12_9
 .rodata.stm32__device__gpio_af_tim13_9
                0x0000000008009431        0x1 /home/badr/hackinvent/Ada_Drivers_Library/boards/stm32h743_nucleo/obj/sfp_lib_Debug/libada_drivers_library.a(stm32-device.o)
                0x0000000008009431                stm32__device__gpio_af_tim13_9
 .rodata.stm32__device__gpio_af_tim14_9
                0x0000000008009432        0x1 /home/badr/hackinvent/Ada_Drivers_Library/boards/stm32h743_nucleo/obj/sfp_lib_Debug/libada_drivers_library.a(stm32-device.o)
                0x0000000008009432                stm32__device__gpio_af_tim14_9
 .rodata.stm32__device__gpio_af_quadspi_9
                0x0000000008009433        0x1 /home/badr/hackinvent/Ada_Drivers_Library/boards/stm32h743_nucleo/obj/sfp_lib_Debug/libada_drivers_library.a(stm32-device.o)
                0x0000000008009433                stm32__device__gpio_af_quadspi_9
 .rodata.stm32__device__gpio_af_fmc_9
                0x0000000008009434        0x1 /home/badr/hackinvent/Ada_Drivers_Library/boards/stm32h743_nucleo/obj/sfp_lib_Debug/libada_drivers_library.a(stm32-device.o)
                0x0000000008009434                stm32__device__gpio_af_fmc_9
 .rodata.stm32__device__gpio_af_ltdc_9
                0x0000000008009435        0x1 /home/badr/hackinvent/Ada_Drivers_Library/boards/stm32h743_nucleo/obj/sfp_lib_Debug/libada_drivers_library.a(stm32-device.o)
                0x0000000008009435                stm32__device__gpio_af_ltdc_9
 .rodata.stm32__device__gpio_af_sai2_10
                0x0000000008009436        0x1 /home/badr/hackinvent/Ada_Drivers_Library/boards/stm32h743_nucleo/obj/sfp_lib_Debug/libada_drivers_library.a(stm32-device.o)
                0x0000000008009436                stm32__device__gpio_af_sai2_10
 .rodata.stm32__device__gpio_af_quadspi_10
                0x0000000008009437        0x1 /home/badr/hackinvent/Ada_Drivers_Library/boards/stm32h743_nucleo/obj/sfp_lib_Debug/libada_drivers_library.a(stm32-device.o)
                0x0000000008009437                stm32__device__gpio_af_quadspi_10
 .rodata.stm32__device__gpio_af_sdmmc2_10
                0x0000000008009438        0x1 /home/badr/hackinvent/Ada_Drivers_Library/boards/stm32h743_nucleo/obj/sfp_lib_Debug/libada_drivers_library.a(stm32-device.o)
                0x0000000008009438                stm32__device__gpio_af_sdmmc2_10
 .rodata.stm32__device__gpio_af_dfsdm1_10
                0x0000000008009439        0x1 /home/badr/hackinvent/Ada_Drivers_Library/boards/stm32h743_nucleo/obj/sfp_lib_Debug/libada_drivers_library.a(stm32-device.o)
                0x0000000008009439                stm32__device__gpio_af_dfsdm1_10
 .rodata.stm32__device__gpio_af_otg1_fs_10
                0x000000000800943a        0x1 /home/badr/hackinvent/Ada_Drivers_Library/boards/stm32h743_nucleo/obj/sfp_lib_Debug/libada_drivers_library.a(stm32-device.o)
                0x000000000800943a                stm32__device__gpio_af_otg1_fs_10
 .rodata.stm32__device__gpio_af_otg_hs_10
                0x000000000800943b        0x1 /home/badr/hackinvent/Ada_Drivers_Library/boards/stm32h743_nucleo/obj/sfp_lib_Debug/libada_drivers_library.a(stm32-device.o)
                0x000000000800943b                stm32__device__gpio_af_otg_hs_10
 .rodata.stm32__device__gpio_af_ltdc_10
                0x000000000800943c        0x1 /home/badr/hackinvent/Ada_Drivers_Library/boards/stm32h743_nucleo/obj/sfp_lib_Debug/libada_drivers_library.a(stm32-device.o)
                0x000000000800943c                stm32__device__gpio_af_ltdc_10
 .rodata.stm32__device__gpio_af_i2c4_11
                0x000000000800943d        0x1 /home/badr/hackinvent/Ada_Drivers_Library/boards/stm32h743_nucleo/obj/sfp_lib_Debug/libada_drivers_library.a(stm32-device.o)
                0x000000000800943d                stm32__device__gpio_af_i2c4_11
 .rodata.stm32__device__gpio_af_can3_11
                0x000000000800943e        0x1 /home/badr/hackinvent/Ada_Drivers_Library/boards/stm32h743_nucleo/obj/sfp_lib_Debug/libada_drivers_library.a(stm32-device.o)
                0x000000000800943e                stm32__device__gpio_af_can3_11
 .rodata.stm32__device__gpio_af_sdmmc2_11
                0x000000000800943f        0x1 /home/badr/hackinvent/Ada_Drivers_Library/boards/stm32h743_nucleo/obj/sfp_lib_Debug/libada_drivers_library.a(stm32-device.o)
                0x000000000800943f                stm32__device__gpio_af_sdmmc2_11
 .rodata.stm32__device__gpio_af_eth_11
                0x0000000008009440        0x1 /home/badr/hackinvent/Ada_Drivers_Library/boards/stm32h743_nucleo/obj/sfp_lib_Debug/libada_drivers_library.a(stm32-device.o)
                0x0000000008009440                stm32__device__gpio_af_eth_11
 .rodata.stm32__device__gpio_af_uart7_12
                0x0000000008009441        0x1 /home/badr/hackinvent/Ada_Drivers_Library/boards/stm32h743_nucleo/obj/sfp_lib_Debug/libada_drivers_library.a(stm32-device.o)
                0x0000000008009441                stm32__device__gpio_af_uart7_12
 .rodata.stm32__device__gpio_af_fmc_12
                0x0000000008009442        0x1 /home/badr/hackinvent/Ada_Drivers_Library/boards/stm32h743_nucleo/obj/sfp_lib_Debug/libada_drivers_library.a(stm32-device.o)
                0x0000000008009442                stm32__device__gpio_af_fmc_12
 .rodata.stm32__device__gpio_af_sdmmc1_12
                0x0000000008009443        0x1 /home/badr/hackinvent/Ada_Drivers_Library/boards/stm32h743_nucleo/obj/sfp_lib_Debug/libada_drivers_library.a(stm32-device.o)
                0x0000000008009443                stm32__device__gpio_af_sdmmc1_12
 .rodata.stm32__device__gpio_af_mdios_12
                0x0000000008009444        0x1 /home/badr/hackinvent/Ada_Drivers_Library/boards/stm32h743_nucleo/obj/sfp_lib_Debug/libada_drivers_library.a(stm32-device.o)
                0x0000000008009444                stm32__device__gpio_af_mdios_12
 .rodata.stm32__device__gpio_af_otg2_fs_12
                0x0000000008009445        0x1 /home/badr/hackinvent/Ada_Drivers_Library/boards/stm32h743_nucleo/obj/sfp_lib_Debug/libada_drivers_library.a(stm32-device.o)
                0x0000000008009445                stm32__device__gpio_af_otg2_fs_12
 .rodata.stm32__device__gpio_af_dcmi_13
                0x0000000008009446        0x1 /home/badr/hackinvent/Ada_Drivers_Library/boards/stm32h743_nucleo/obj/sfp_lib_Debug/libada_drivers_library.a(stm32-device.o)
                0x0000000008009446                stm32__device__gpio_af_dcmi_13
 .rodata.stm32__device__gpio_af_dsi_13
                0x0000000008009447        0x1 /home/badr/hackinvent/Ada_Drivers_Library/boards/stm32h743_nucleo/obj/sfp_lib_Debug/libada_drivers_library.a(stm32-device.o)
                0x0000000008009447                stm32__device__gpio_af_dsi_13
 .rodata.stm32__device__gpio_af_ltdc_13
                0x0000000008009448        0x1 /home/badr/hackinvent/Ada_Drivers_Library/boards/stm32h743_nucleo/obj/sfp_lib_Debug/libada_drivers_library.a(stm32-device.o)
                0x0000000008009448                stm32__device__gpio_af_ltdc_13
 .rodata.stm32__device__gpio_af_ltdc_14
                0x0000000008009449        0x1 /home/badr/hackinvent/Ada_Drivers_Library/boards/stm32h743_nucleo/obj/sfp_lib_Debug/libada_drivers_library.a(stm32-device.o)
                0x0000000008009449                stm32__device__gpio_af_ltdc_14
 .rodata.stm32__device__gpio_af_eventout_15
                0x000000000800944a        0x1 /home/badr/hackinvent/Ada_Drivers_Library/boards/stm32h743_nucleo/obj/sfp_lib_Debug/libada_drivers_library.a(stm32-device.o)
                0x000000000800944a                stm32__device__gpio_af_eventout_15
 *fill*         0x000000000800944b        0x1 
 .rodata.stm32__exti__external_triggersS
                0x000000000800944c       0x84 /home/badr/hackinvent/Ada_Drivers_Library/boards/stm32h743_nucleo/obj/sfp_lib_Debug/libada_drivers_library.a(stm32-exti.o)
                0x000000000800944c                stm32__exti__external_triggersS
 .rodata.stm32__exti__external_triggersN
                0x00000000080094d0        0xe /home/badr/hackinvent/Ada_Drivers_Library/boards/stm32h743_nucleo/obj/sfp_lib_Debug/libada_drivers_library.a(stm32-exti.o)
                0x00000000080094d0                stm32__exti__external_triggersN
 *fill*         0x00000000080094de        0x2 
 .rodata.stm32__exti__external_line_numberS
                0x00000000080094e0      0x10a /home/badr/hackinvent/Ada_Drivers_Library/boards/stm32h743_nucleo/obj/sfp_lib_Debug/libada_drivers_library.a(stm32-exti.o)
                0x00000000080094e0                stm32__exti__external_line_numberS
 *fill*         0x00000000080095ea        0x2 
 .rodata.stm32__exti__external_line_numberN
                0x00000000080095ec       0x30 /home/badr/hackinvent/Ada_Drivers_Library/boards/stm32h743_nucleo/obj/sfp_lib_Debug/libada_drivers_library.a(stm32-exti.o)
                0x00000000080095ec                stm32__exti__external_line_numberN
 .rodata        0x000000000800961c      0x15c /home/badr/hackinvent/Ada_Drivers_Library/boards/stm32h743_nucleo/obj/sfp_lib_Debug/libada_drivers_library.a(stm32-gpio.o)
 .rodata.stm32__gpio__gpio_pinS
                0x0000000008009778       0x56 /home/badr/hackinvent/Ada_Drivers_Library/boards/stm32h743_nucleo/obj/sfp_lib_Debug/libada_drivers_library.a(stm32-gpio.o)
                0x0000000008009778                stm32__gpio__gpio_pinS
 *fill*         0x00000000080097ce        0x2 
 .rodata.stm32__gpio__gpio_pinN
                0x00000000080097d0       0x11 /home/badr/hackinvent/Ada_Drivers_Library/boards/stm32h743_nucleo/obj/sfp_lib_Debug/libada_drivers_library.a(stm32-gpio.o)
                0x00000000080097d0                stm32__gpio__gpio_pinN
 *fill*         0x00000000080097e1        0x3 
 .rodata.stm32__gpio__gpio_pinA
                0x00000000080097e4       0x20 /home/badr/hackinvent/Ada_Drivers_Library/boards/stm32h743_nucleo/obj/sfp_lib_Debug/libada_drivers_library.a(stm32-gpio.o)
                0x00000000080097e4                stm32__gpio__gpio_pinA
 .rodata.stm32__gpio__all_pins
                0x0000000008009804       0x20 /home/badr/hackinvent/Ada_Drivers_Library/boards/stm32h743_nucleo/obj/sfp_lib_Debug/libada_drivers_library.a(stm32-gpio.o)
                0x0000000008009804                stm32__gpio__all_pins
 .rodata.stm32__gpio__pin_output_speedsS
                0x0000000008009824       0x2c /home/badr/hackinvent/Ada_Drivers_Library/boards/stm32h743_nucleo/obj/sfp_lib_Debug/libada_drivers_library.a(stm32-gpio.o)
                0x0000000008009824                stm32__gpio__pin_output_speedsS
 .rodata.stm32__gpio__pin_output_speedsN
                0x0000000008009850        0x8 /home/badr/hackinvent/Ada_Drivers_Library/boards/stm32h743_nucleo/obj/sfp_lib_Debug/libada_drivers_library.a(stm32-gpio.o)
                0x0000000008009850                stm32__gpio__pin_output_speedsN
 .rodata.stm32__gpio__speed_low
                0x0000000008009858        0x1 /home/badr/hackinvent/Ada_Drivers_Library/boards/stm32h743_nucleo/obj/sfp_lib_Debug/libada_drivers_library.a(stm32-gpio.o)
                0x0000000008009858                stm32__gpio__speed_low
 .rodata.stm32__gpio__speed_medium
                0x0000000008009859        0x1 /home/badr/hackinvent/Ada_Drivers_Library/boards/stm32h743_nucleo/obj/sfp_lib_Debug/libada_drivers_library.a(stm32-gpio.o)
                0x0000000008009859                stm32__gpio__speed_medium
 .rodata.stm32__gpio__speed_high
                0x000000000800985a        0x1 /home/badr/hackinvent/Ada_Drivers_Library/boards/stm32h743_nucleo/obj/sfp_lib_Debug/libada_drivers_library.a(stm32-gpio.o)
                0x000000000800985a                stm32__gpio__speed_high
 .rodata.stm32__gpio__speed_very_high
                0x000000000800985b        0x1 /home/badr/hackinvent/Ada_Drivers_Library/boards/stm32h743_nucleo/obj/sfp_lib_Debug/libada_drivers_library.a(stm32-gpio.o)
                0x000000000800985b                stm32__gpio__speed_very_high
 .rodata.stm32__gpio__pin_io_modesS
                0x000000000800985c       0x21 /home/badr/hackinvent/Ada_Drivers_Library/boards/stm32h743_nucleo/obj/sfp_lib_Debug/libada_drivers_library.a(stm32-gpio.o)
                0x000000000800985c                stm32__gpio__pin_io_modesS
 *fill*         0x000000000800987d        0x3 
 .rodata.stm32__gpio__pin_io_modesN
                0x0000000008009880        0x8 /home/badr/hackinvent/Ada_Drivers_Library/boards/stm32h743_nucleo/obj/sfp_lib_Debug/libada_drivers_library.a(stm32-gpio.o)
                0x0000000008009880                stm32__gpio__pin_io_modesN
 .rodata.stm32__gpio__lcck
                0x0000000008009888        0x4 /home/badr/hackinvent/Ada_Drivers_Library/boards/stm32h743_nucleo/obj/sfp_lib_Debug/libada_drivers_library.a(stm32-gpio.o)
                0x0000000008009888                stm32__gpio__lcck
 .rodata.stm32__gpio__pin_output_typesS
                0x000000000800988c       0x13 /home/badr/hackinvent/Ada_Drivers_Library/boards/stm32h743_nucleo/obj/sfp_lib_Debug/libada_drivers_library.a(stm32-gpio.o)
                0x000000000800988c                stm32__gpio__pin_output_typesS
 *fill*         0x000000000800989f        0x1 
 .rodata.stm32__gpio__pin_output_typesN
                0x00000000080098a0        0x4 /home/badr/hackinvent/Ada_Drivers_Library/boards/stm32h743_nucleo/obj/sfp_lib_Debug/libada_drivers_library.a(stm32-gpio.o)
                0x00000000080098a0                stm32__gpio__pin_output_typesN
 .rodata.stm32__gpio__internal_pin_resistorsS
                0x00000000080098a4       0x18 /home/badr/hackinvent/Ada_Drivers_Library/boards/stm32h743_nucleo/obj/sfp_lib_Debug/libada_drivers_library.a(stm32-gpio.o)
                0x00000000080098a4                stm32__gpio__internal_pin_resistorsS
 .rodata.stm32__gpio__internal_pin_resistorsN
                0x00000000080098bc        0x4 /home/badr/hackinvent/Ada_Drivers_Library/boards/stm32h743_nucleo/obj/sfp_lib_Debug/libada_drivers_library.a(stm32-gpio.o)
                0x00000000080098bc                stm32__gpio__internal_pin_resistorsN
 .rodata.stm32__gpio__gpio_pointP
                0x00000000080098c0        0x4 /home/badr/hackinvent/Ada_Drivers_Library/boards/stm32h743_nucleo/obj/sfp_lib_Debug/libada_drivers_library.a(stm32-gpio.o)
                0x00000000080098c0                stm32__gpio__gpio_pointP
 .rodata.stm32__gpio__gpio_pointY
                0x00000000080098c4        0x4 /home/badr/hackinvent/Ada_Drivers_Library/boards/stm32h743_nucleo/obj/sfp_lib_Debug/libada_drivers_library.a(stm32-gpio.o)
                0x00000000080098c4                stm32__gpio__gpio_pointY
 .rodata.stm32__gpio__gpio_pointE86s
                0x00000000080098c8       0x16 /home/badr/hackinvent/Ada_Drivers_Library/boards/stm32h743_nucleo/obj/sfp_lib_Debug/libada_drivers_library.a(stm32-gpio.o)
                0x00000000080098c8                stm32__gpio__gpio_pointE86s
 *fill*         0x00000000080098de        0x2 
 .rodata.stm32__gpio__gpio_pointB90s
                0x00000000080098e0       0x20 /home/badr/hackinvent/Ada_Drivers_Library/boards/stm32h743_nucleo/obj/sfp_lib_Debug/libada_drivers_library.a(stm32-gpio.o)
                0x00000000080098e0                stm32__gpio__gpio_pointB90s
 .rodata.stm32__gpio__gpio_pointR88s___UNC
                0x0000000008009900       0x24 /home/badr/hackinvent/Ada_Drivers_Library/boards/stm32h743_nucleo/obj/sfp_lib_Debug/libada_drivers_library.a(stm32-gpio.o)
                0x0000000008009900                stm32__gpio__gpio_pointR88s___UNC
 .rodata.stm32__gpio__gpio_pointR88s
                0x0000000008009924        0x4 /home/badr/hackinvent/Ada_Drivers_Library/boards/stm32h743_nucleo/obj/sfp_lib_Debug/libada_drivers_library.a(stm32-gpio.o)
                0x0000000008009924                stm32__gpio__gpio_pointR88s
 .rodata.stm32__gpio__gpio_pointT
                0x0000000008009928       0x50 /home/badr/hackinvent/Ada_Drivers_Library/boards/stm32h743_nucleo/obj/sfp_lib_Debug/libada_drivers_library.a(stm32-gpio.o)
                0x0000000008009928                stm32__gpio__gpio_pointT
 .rodata.stm32__rcc__unknown_deviceE
                0x0000000008009978       0x19 /home/badr/hackinvent/Ada_Drivers_Library/boards/stm32h743_nucleo/obj/sfp_lib_Debug/libada_drivers_library.a(stm32-rcc.o)
                0x0000000008009978                stm32__rcc__unknown_deviceE
 *fill*         0x0000000008009991        0x3 
 .rodata.stm32__rcc__R2s
                0x0000000008009994        0x4 /home/badr/hackinvent/Ada_Drivers_Library/boards/stm32h743_nucleo/obj/sfp_lib_Debug/libada_drivers_library.a(stm32-rcc.o)
                0x0000000008009994                stm32__rcc__R2s
 .rodata        0x0000000008009998       0x11 /home/badr/hackinvent/Ada_Drivers_Library/boards/stm32h743_nucleo/obj/sfp_lib_Debug/libada_drivers_library.a(stm32-syscfg.o)
 *fill*         0x00000000080099a9        0x3 
 .rodata.hal__gpio__capabilityS
                0x00000000080099ac       0x2f /home/badr/hackinvent/Ada_Drivers_Library/boards/stm32h743_nucleo/obj/sfp_lib_Debug/libada_drivers_library.a(hal-gpio.o)
                0x00000000080099ac                hal__gpio__capabilityS
 *fill*         0x00000000080099db        0x1 
 .rodata.hal__gpio__capabilityN
                0x00000000080099dc        0x8 /home/badr/hackinvent/Ada_Drivers_Library/boards/stm32h743_nucleo/obj/sfp_lib_Debug/libada_drivers_library.a(hal-gpio.o)
                0x00000000080099dc                hal__gpio__capabilityN
 .rodata.hal__gpio__gpio_pointP
                0x00000000080099e4        0x4 /home/badr/hackinvent/Ada_Drivers_Library/boards/stm32h743_nucleo/obj/sfp_lib_Debug/libada_drivers_library.a(hal-gpio.o)
                0x00000000080099e4                hal__gpio__gpio_pointP
 .rodata.hal__gpio__gpio_pointE12s
                0x00000000080099e8       0x14 /home/badr/hackinvent/Ada_Drivers_Library/boards/stm32h743_nucleo/obj/sfp_lib_Debug/libada_drivers_library.a(hal-gpio.o)
                0x00000000080099e8                hal__gpio__gpio_pointE12s
 .rodata.hal__gpio__gpio_pointB16s
                0x00000000080099fc       0x1c /home/badr/hackinvent/Ada_Drivers_Library/boards/stm32h743_nucleo/obj/sfp_lib_Debug/libada_drivers_library.a(hal-gpio.o)
                0x00000000080099fc                hal__gpio__gpio_pointB16s
 .rodata.hal__gpio__gpio_pointT
                0x0000000008009a18        0x8 /home/badr/hackinvent/Ada_Drivers_Library/boards/stm32h743_nucleo/obj/sfp_lib_Debug/libada_drivers_library.a(hal-gpio.o)
                0x0000000008009a18                hal__gpio__gpio_pointT
 .rodata        0x0000000008009a20        0xd /home/badr/GNAT/2018-arm-elf/arm-eabi/lib/gnat/ravenscar-sfp-stm32h743nucleo/adalib/libgnarl.a(a-reatim.o)
 *fill*         0x0000000008009a2d        0x3 
 .rodata.ada__real_time__time_first
                0x0000000008009a30        0x8 /home/badr/GNAT/2018-arm-elf/arm-eabi/lib/gnat/ravenscar-sfp-stm32h743nucleo/adalib/libgnarl.a(a-reatim.o)
                0x0000000008009a30                ada__real_time__time_first
 .rodata.ada__real_time__time_last
                0x0000000008009a38        0x8 /home/badr/GNAT/2018-arm-elf/arm-eabi/lib/gnat/ravenscar-sfp-stm32h743nucleo/adalib/libgnarl.a(a-reatim.o)
                0x0000000008009a38                ada__real_time__time_last
 .rodata.ada__real_time__time_span_first
                0x0000000008009a40        0x8 /home/badr/GNAT/2018-arm-elf/arm-eabi/lib/gnat/ravenscar-sfp-stm32h743nucleo/adalib/libgnarl.a(a-reatim.o)
                0x0000000008009a40                ada__real_time__time_span_first
 .rodata.ada__real_time__time_span_last
                0x0000000008009a48        0x8 /home/badr/GNAT/2018-arm-elf/arm-eabi/lib/gnat/ravenscar-sfp-stm32h743nucleo/adalib/libgnarl.a(a-reatim.o)
                0x0000000008009a48                ada__real_time__time_span_last
 .rodata.ada__real_time__time_span_zero
                0x0000000008009a50        0x8 /home/badr/GNAT/2018-arm-elf/arm-eabi/lib/gnat/ravenscar-sfp-stm32h743nucleo/adalib/libgnarl.a(a-reatim.o)
                0x0000000008009a50                ada__real_time__time_span_zero
 .rodata.ada__real_time__time_span_unit
                0x0000000008009a58        0x8 /home/badr/GNAT/2018-arm-elf/arm-eabi/lib/gnat/ravenscar-sfp-stm32h743nucleo/adalib/libgnarl.a(a-reatim.o)
                0x0000000008009a58                ada__real_time__time_span_unit
 .rodata.ada__real_time__tick
                0x0000000008009a60        0x8 /home/badr/GNAT/2018-arm-elf/arm-eabi/lib/gnat/ravenscar-sfp-stm32h743nucleo/adalib/libgnarl.a(a-reatim.o)
                0x0000000008009a60                ada__real_time__tick
 .rodata.ada__real_time__duration_units
                0x0000000008009a68        0x4 /home/badr/GNAT/2018-arm-elf/arm-eabi/lib/gnat/ravenscar-sfp-stm32h743nucleo/adalib/libgnarl.a(a-reatim.o)
                0x0000000008009a68                ada__real_time__duration_units
 .rodata        0x0000000008009a6c        0xd /home/badr/GNAT/2018-arm-elf/arm-eabi/lib/gnat/ravenscar-sfp-stm32h743nucleo/adalib/libgnarl.a(a-retide.o)
 *fill*         0x0000000008009a79        0x3 
 .rodata        0x0000000008009a7c        0xd /home/badr/GNAT/2018-arm-elf/arm-eabi/lib/gnat/ravenscar-sfp-stm32h743nucleo/adalib/libgnarl.a(s-bbtiev.o)
 *fill*         0x0000000008009a89        0x3 
 .rodata.system__bb__timing_events__timing_eventP
                0x0000000008009a8c        0x4 /home/badr/GNAT/2018-arm-elf/arm-eabi/lib/gnat/ravenscar-sfp-stm32h743nucleo/adalib/libgnarl.a(s-bbtiev.o)
                0x0000000008009a8c                system__bb__timing_events__timing_eventP
 .rodata.system__bb__timing_events__timing_eventY
                0x0000000008009a90        0x4 /home/badr/GNAT/2018-arm-elf/arm-eabi/lib/gnat/ravenscar-sfp-stm32h743nucleo/adalib/libgnarl.a(s-bbtiev.o)
                0x0000000008009a90                system__bb__timing_events__timing_eventY
 .rodata.system__bb__timing_events__timing_eventE8s
                0x0000000008009a94       0x25 /home/badr/GNAT/2018-arm-elf/arm-eabi/lib/gnat/ravenscar-sfp-stm32h743nucleo/adalib/libgnarl.a(s-bbtiev.o)
                0x0000000008009a94                system__bb__timing_events__timing_eventE8s
 *fill*         0x0000000008009ab9        0x3 
 .rodata.system__bb__timing_events__timing_eventB12s
                0x0000000008009abc       0x1c /home/badr/GNAT/2018-arm-elf/arm-eabi/lib/gnat/ravenscar-sfp-stm32h743nucleo/adalib/libgnarl.a(s-bbtiev.o)
                0x0000000008009abc                system__bb__timing_events__timing_eventB12s
 .rodata.system__bb__timing_events__timing_eventR10s___UNC
                0x0000000008009ad8        0xc /home/badr/GNAT/2018-arm-elf/arm-eabi/lib/gnat/ravenscar-sfp-stm32h743nucleo/adalib/libgnarl.a(s-bbtiev.o)
                0x0000000008009ad8                system__bb__timing_events__timing_eventR10s___UNC
 .rodata.system__bb__timing_events__timing_eventR10s
                0x0000000008009ae4        0x4 /home/badr/GNAT/2018-arm-elf/arm-eabi/lib/gnat/ravenscar-sfp-stm32h743nucleo/adalib/libgnarl.a(s-bbtiev.o)
                0x0000000008009ae4                system__bb__timing_events__timing_eventR10s
 .rodata.system__bb__timing_events__timing_eventT
                0x0000000008009ae8       0x1c /home/badr/GNAT/2018-arm-elf/arm-eabi/lib/gnat/ravenscar-sfp-stm32h743nucleo/adalib/libgnarl.a(s-bbtiev.o)
                0x0000000008009ae8                system__bb__timing_events__timing_eventT
 .rodata        0x0000000008009b04        0xd /home/badr/GNAT/2018-arm-elf/arm-eabi/lib/gnat/ravenscar-sfp-stm32h743nucleo/adalib/libgnarl.a(s-bbtime.o)
 *fill*         0x0000000008009b11        0x3 
 .rodata.system__bb__time__initial_composite_execution_time
                0x0000000008009b14        0x8 /home/badr/GNAT/2018-arm-elf/arm-eabi/lib/gnat/ravenscar-sfp-stm32h743nucleo/adalib/libgnarl.a(s-bbtime.o)
                0x0000000008009b14                system__bb__time__initial_composite_execution_time
 .rodata.system__bb__time__update_in_progress
                0x0000000008009b1c        0x4 /home/badr/GNAT/2018-arm-elf/arm-eabi/lib/gnat/ravenscar-sfp-stm32h743nucleo/adalib/libgnarl.a(s-bbtime.o)
                0x0000000008009b1c                system__bb__time__update_in_progress
 .rodata.system__bb__time__periods_in_epoch
                0x0000000008009b20        0x4 /home/badr/GNAT/2018-arm-elf/arm-eabi/lib/gnat/ravenscar-sfp-stm32h743nucleo/adalib/libgnarl.a(s-bbtime.o)
                0x0000000008009b20                system__bb__time__periods_in_epoch
 .rodata        0x0000000008009b24        0xd /home/badr/GNAT/2018-arm-elf/arm-eabi/lib/gnat/ravenscar-sfp-stm32h743nucleo/adalib/libgnarl.a(s-taprop.o)
 *fill*         0x0000000008009b31        0x3 
 .rodata.system__task_primitives__operations__idle_stack_size
                0x0000000008009b34        0x4 /home/badr/GNAT/2018-arm-elf/arm-eabi/lib/gnat/ravenscar-sfp-stm32h743nucleo/adalib/libgnarl.a(s-taprop.o)
                0x0000000008009b34                system__task_primitives__operations__idle_stack_size
 .rodata        0x0000000008009b38        0xd /home/badr/GNAT/2018-arm-elf/arm-eabi/lib/gnat/ravenscar-sfp-stm32h743nucleo/adalib/libgnarl.a(s-tasdeb.o)
 *fill*         0x0000000008009b45        0x3 
 .rodata        0x0000000008009b48       0x64 /home/badr/GNAT/2018-arm-elf/arm-eabi/lib/gnat/ravenscar-sfp-stm32h743nucleo/adalib/libgnarl.a(s-taskin.o)
 .rodata.system__tasking__null_task
                0x0000000008009bac        0x4 /home/badr/GNAT/2018-arm-elf/arm-eabi/lib/gnat/ravenscar-sfp-stm32h743nucleo/adalib/libgnarl.a(s-taskin.o)
                0x0000000008009bac                system__tasking__null_task
 .rodata.system__tasking__idle_priority
                0x0000000008009bb0        0x4 /home/badr/GNAT/2018-arm-elf/arm-eabi/lib/gnat/ravenscar-sfp-stm32h743nucleo/adalib/libgnarl.a(s-taskin.o)
                0x0000000008009bb0                system__tasking__idle_priority
 .rodata.system__tasking__library_task_level
                0x0000000008009bb4        0x4 /home/badr/GNAT/2018-arm-elf/arm-eabi/lib/gnat/ravenscar-sfp-stm32h743nucleo/adalib/libgnarl.a(s-taskin.o)
                0x0000000008009bb4                system__tasking__library_task_level
 .rodata.system__tasking__task_statesS
                0x0000000008009bb8      0x130 /home/badr/GNAT/2018-arm-elf/arm-eabi/lib/gnat/ravenscar-sfp-stm32h743nucleo/adalib/libgnarl.a(s-taskin.o)
                0x0000000008009bb8                system__tasking__task_statesS
 .rodata.system__tasking__task_statesN
                0x0000000008009ce8       0x22 /home/badr/GNAT/2018-arm-elf/arm-eabi/lib/gnat/ravenscar-sfp-stm32h743nucleo/adalib/libgnarl.a(s-taskin.o)
                0x0000000008009ce8                system__tasking__task_statesN
 *fill*         0x0000000008009d0a        0x2 
 .rodata        0x0000000008009d0c        0xd /home/badr/GNAT/2018-arm-elf/arm-eabi/lib/gnat/ravenscar-sfp-stm32h743nucleo/adalib/libgnarl.a(s-bbbosu.o)
 .rodata.system__bb__board_support__sys_tick_vector
                0x0000000008009d19        0x1 /home/badr/GNAT/2018-arm-elf/arm-eabi/lib/gnat/ravenscar-sfp-stm32h743nucleo/adalib/libgnarl.a(s-bbbosu.o)
                0x0000000008009d19                system__bb__board_support__sys_tick_vector
 .rodata.system__bb__board_support__interrupt_request_vector
                0x0000000008009d1a        0x1 /home/badr/GNAT/2018-arm-elf/arm-eabi/lib/gnat/ravenscar-sfp-stm32h743nucleo/adalib/libgnarl.a(s-bbbosu.o)
                0x0000000008009d1a                system__bb__board_support__interrupt_request_vector
 *fill*         0x0000000008009d1b        0x1 
 .rodata.system__bb__board_support__alarm_interrupt_id
                0x0000000008009d1c        0x4 /home/badr/GNAT/2018-arm-elf/arm-eabi/lib/gnat/ravenscar-sfp-stm32h743nucleo/adalib/libgnarl.a(s-bbbosu.o)
                0x0000000008009d1c                system__bb__board_support__alarm_interrupt_id
 .rodata.system__bb__board_support__tick_period
                0x0000000008009d20        0x4 /home/badr/GNAT/2018-arm-elf/arm-eabi/lib/gnat/ravenscar-sfp-stm32h743nucleo/adalib/libgnarl.a(s-bbbosu.o)
                0x0000000008009d20                system__bb__board_support__tick_period
 .rodata.system__bb__board_support__nvic_iser0
                0x0000000008009d24        0x4 /home/badr/GNAT/2018-arm-elf/arm-eabi/lib/gnat/ravenscar-sfp-stm32h743nucleo/adalib/libgnarl.a(s-bbbosu.o)
                0x0000000008009d24                system__bb__board_support__nvic_iser0
 .rodata.system__bb__board_support__ip
                0x0000000008009d28        0x4 /home/badr/GNAT/2018-arm-elf/arm-eabi/lib/gnat/ravenscar-sfp-stm32h743nucleo/adalib/libgnarl.a(s-bbbosu.o)
                0x0000000008009d28                system__bb__board_support(int,  *)
 .rodata.system__bb__board_support__icsr
                0x0000000008009d2c        0x4 /home/badr/GNAT/2018-arm-elf/arm-eabi/lib/gnat/ravenscar-sfp-stm32h743nucleo/adalib/libgnarl.a(s-bbbosu.o)
                0x0000000008009d2c                system__bb__board_support(int, char, short, long double)
 .rodata.system__bb__board_support__syst
                0x0000000008009d30        0x4 /home/badr/GNAT/2018-arm-elf/arm-eabi/lib/gnat/ravenscar-sfp-stm32h743nucleo/adalib/libgnarl.a(s-bbbosu.o)
                0x0000000008009d30                system__bb__board_support__syst
 .rodata        0x0000000008009d34      0x1bc /home/badr/GNAT/2018-arm-elf/arm-eabi/lib/gnat/ravenscar-sfp-stm32h743nucleo/adalib/libgnarl.a(s-bbcppr.o)
 .rodata.system__bb__cpu_primitives__nl
                0x0000000008009ef0        0x2 /home/badr/GNAT/2018-arm-elf/arm-eabi/lib/gnat/ravenscar-sfp-stm32h743nucleo/adalib/libgnarl.a(s-bbcppr.o)
                0x0000000008009ef0                system__bb__cpu_primitives__nl
 .rodata.system__bb__cpu_primitives__has_vtor
                0x0000000008009ef2        0x1 /home/badr/GNAT/2018-arm-elf/arm-eabi/lib/gnat/ravenscar-sfp-stm32h743nucleo/adalib/libgnarl.a(s-bbcppr.o)
                0x0000000008009ef2                system__bb__cpu_primitives__has_vtor
 .rodata.system__bb__cpu_primitives__has_os_extensions
                0x0000000008009ef3        0x1 /home/badr/GNAT/2018-arm-elf/arm-eabi/lib/gnat/ravenscar-sfp-stm32h743nucleo/adalib/libgnarl.a(s-bbcppr.o)
                0x0000000008009ef3                system__bb__cpu_primitives__has_os_extensions
 .rodata.system__bb__cpu_primitives__is_armv6m
                0x0000000008009ef4        0x1 /home/badr/GNAT/2018-arm-elf/arm-eabi/lib/gnat/ravenscar-sfp-stm32h743nucleo/adalib/libgnarl.a(s-bbcppr.o)
                0x0000000008009ef4                system__bb__cpu_primitives__is_armv6m
 .rodata.system__bb__cpu_primitives__reset_vector
                0x0000000008009ef5        0x1 /home/badr/GNAT/2018-arm-elf/arm-eabi/lib/gnat/ravenscar-sfp-stm32h743nucleo/adalib/libgnarl.a(s-bbcppr.o)
                0x0000000008009ef5                system__bb__cpu_primitives__reset_vector
 .rodata.system__bb__cpu_primitives__nmi_vector
                0x0000000008009ef6        0x1 /home/badr/GNAT/2018-arm-elf/arm-eabi/lib/gnat/ravenscar-sfp-stm32h743nucleo/adalib/libgnarl.a(s-bbcppr.o)
                0x0000000008009ef6                system__bb__cpu_primitives__nmi_vector
 .rodata.system__bb__cpu_primitives__hard_fault_vector
                0x0000000008009ef7        0x1 /home/badr/GNAT/2018-arm-elf/arm-eabi/lib/gnat/ravenscar-sfp-stm32h743nucleo/adalib/libgnarl.a(s-bbcppr.o)
                0x0000000008009ef7                system__bb__cpu_primitives__hard_fault_vector
 .rodata.system__bb__cpu_primitives__bus_fault_vector
                0x0000000008009ef8        0x1 /home/badr/GNAT/2018-arm-elf/arm-eabi/lib/gnat/ravenscar-sfp-stm32h743nucleo/adalib/libgnarl.a(s-bbcppr.o)
                0x0000000008009ef8                system__bb__cpu_primitives__bus_fault_vector
 .rodata.system__bb__cpu_primitives__usage_fault_vector
                0x0000000008009ef9        0x1 /home/badr/GNAT/2018-arm-elf/arm-eabi/lib/gnat/ravenscar-sfp-stm32h743nucleo/adalib/libgnarl.a(s-bbcppr.o)
                0x0000000008009ef9                system__bb__cpu_primitives__usage_fault_vector
 .rodata.system__bb__cpu_primitives__sv_call_vector
                0x0000000008009efa        0x1 /home/badr/GNAT/2018-arm-elf/arm-eabi/lib/gnat/ravenscar-sfp-stm32h743nucleo/adalib/libgnarl.a(s-bbcppr.o)
                0x0000000008009efa                system__bb__cpu_primitives__sv_call_vector
 .rodata.system__bb__cpu_primitives__pend_sv_vector
                0x0000000008009efb        0x1 /home/badr/GNAT/2018-arm-elf/arm-eabi/lib/gnat/ravenscar-sfp-stm32h743nucleo/adalib/libgnarl.a(s-bbcppr.o)
                0x0000000008009efb                system__bb__cpu_primitives__pend_sv_vector
 .rodata.system__bb__cpu_primitives__sys_tick_vector
                0x0000000008009efc        0x1 /home/badr/GNAT/2018-arm-elf/arm-eabi/lib/gnat/ravenscar-sfp-stm32h743nucleo/adalib/libgnarl.a(s-bbcppr.o)
                0x0000000008009efc                system__bb__cpu_primitives__sys_tick_vector
 .rodata.system__bb__cpu_primitives__interrupt_request_vector
                0x0000000008009efd        0x1 /home/badr/GNAT/2018-arm-elf/arm-eabi/lib/gnat/ravenscar-sfp-stm32h743nucleo/adalib/libgnarl.a(s-bbcppr.o)
                0x0000000008009efd                system__bb__cpu_primitives__interrupt_request_vector
 .rodata.system__bb__cpu_primitives__sp_process
                0x0000000008009efe        0x1 /home/badr/GNAT/2018-arm-elf/arm-eabi/lib/gnat/ravenscar-sfp-stm32h743nucleo/adalib/libgnarl.a(s-bbcppr.o)
                0x0000000008009efe                system__bb__cpu_primitives__sp_process
 *fill*         0x0000000008009eff        0x1 
 .rodata.system__bb__cpu_primitives__vtor
                0x0000000008009f00        0x4 /home/badr/GNAT/2018-arm-elf/arm-eabi/lib/gnat/ravenscar-sfp-stm32h743nucleo/adalib/libgnarl.a(s-bbcppr.o)
                0x0000000008009f00                system__bb__cpu_primitives__vtor
 .rodata.system__bb__cpu_primitives__aircr
                0x0000000008009f04        0x4 /home/badr/GNAT/2018-arm-elf/arm-eabi/lib/gnat/ravenscar-sfp-stm32h743nucleo/adalib/libgnarl.a(s-bbcppr.o)
                0x0000000008009f04                system__bb__cpu_primitives__aircr
 .rodata.system__bb__cpu_primitives__ccr
                0x0000000008009f08        0x4 /home/badr/GNAT/2018-arm-elf/arm-eabi/lib/gnat/ravenscar-sfp-stm32h743nucleo/adalib/libgnarl.a(s-bbcppr.o)
                0x0000000008009f08                system__bb__cpu_primitives(char, char, long double)
 .rodata.system__bb__cpu_primitives__shpr1
                0x0000000008009f0c        0x4 /home/badr/GNAT/2018-arm-elf/arm-eabi/lib/gnat/ravenscar-sfp-stm32h743nucleo/adalib/libgnarl.a(s-bbcppr.o)
                0x0000000008009f0c                system__bb__cpu_primitives__shpr1
 .rodata.system__bb__cpu_primitives__shpr2
                0x0000000008009f10        0x4 /home/badr/GNAT/2018-arm-elf/arm-eabi/lib/gnat/ravenscar-sfp-stm32h743nucleo/adalib/libgnarl.a(s-bbcppr.o)
                0x0000000008009f10                system__bb__cpu_primitives__shpr2
 .rodata.system__bb__cpu_primitives__shpr3
                0x0000000008009f14        0x4 /home/badr/GNAT/2018-arm-elf/arm-eabi/lib/gnat/ravenscar-sfp-stm32h743nucleo/adalib/libgnarl.a(s-bbcppr.o)
                0x0000000008009f14                system__bb__cpu_primitives__shpr3
 .rodata.system__bb__cpu_primitives__shcsr
                0x0000000008009f18        0x4 /home/badr/GNAT/2018-arm-elf/arm-eabi/lib/gnat/ravenscar-sfp-stm32h743nucleo/adalib/libgnarl.a(s-bbcppr.o)
                0x0000000008009f18                system__bb__cpu_primitives__shcsr
 .rodata        0x0000000008009f1c        0xd /home/badr/GNAT/2018-arm-elf/arm-eabi/lib/gnat/ravenscar-sfp-stm32h743nucleo/adalib/libgnarl.a(s-bbinte.o)
 *fill*         0x0000000008009f29        0x3 
 .rodata.system__bb__interrupts__no_interrupt
                0x0000000008009f2c        0x4 /home/badr/GNAT/2018-arm-elf/arm-eabi/lib/gnat/ravenscar-sfp-stm32h743nucleo/adalib/libgnarl.a(s-bbinte.o)
                0x0000000008009f2c                system__bb__interrupts__no_interrupt
 .rodata        0x0000000008009f30        0xd /home/badr/GNAT/2018-arm-elf/arm-eabi/lib/gnat/ravenscar-sfp-stm32h743nucleo/adalib/libgnarl.a(s-bbprot.o)
 *fill*         0x0000000008009f3d        0x3 
 .rodata        0x0000000008009f40        0xd /home/badr/GNAT/2018-arm-elf/arm-eabi/lib/gnat/ravenscar-sfp-stm32h743nucleo/adalib/libgnarl.a(s-bbthqu.o)
 *fill*         0x0000000008009f4d        0x3 
 .rodata        0x0000000008009f50        0xd /home/badr/GNAT/2018-arm-elf/arm-eabi/lib/gnat/ravenscar-sfp-stm32h743nucleo/adalib/libgnarl.a(s-bbthre.o)
 *fill*         0x0000000008009f5d        0x3 
 .rodata.system__bb__threads__null_thread_id
                0x0000000008009f60        0x4 /home/badr/GNAT/2018-arm-elf/arm-eabi/lib/gnat/ravenscar-sfp-stm32h743nucleo/adalib/libgnarl.a(s-bbthre.o)
                0x0000000008009f60                system__bb__threads__null_thread_id
 .rodata.system__bb__threads__thread_statesS
                0x0000000008009f64       0x18 /home/badr/GNAT/2018-arm-elf/arm-eabi/lib/gnat/ravenscar-sfp-stm32h743nucleo/adalib/libgnarl.a(s-bbthre.o)
                0x0000000008009f64                system__bb__threads__thread_statesS
 .rodata.system__bb__threads__thread_statesN
                0x0000000008009f7c        0x4 /home/badr/GNAT/2018-arm-elf/arm-eabi/lib/gnat/ravenscar-sfp-stm32h743nucleo/adalib/libgnarl.a(s-bbthre.o)
                0x0000000008009f7c                system__bb__threads__thread_statesN
 .rodata.system__bb__cpu_primitives__context_switch_trigger__nl
                0x0000000008009f80        0x2 /home/badr/GNAT/2018-arm-elf/arm-eabi/lib/gnat/ravenscar-sfp-stm32h743nucleo/adalib/libgnarl.a(s-bcpcst.o)
 .rodata.system__bb__cpu_primitives__context_switch_trigger__no_floating_point
                0x0000000008009f82        0x1 /home/badr/GNAT/2018-arm-elf/arm-eabi/lib/gnat/ravenscar-sfp-stm32h743nucleo/adalib/libgnarl.a(s-bcpcst.o)
 .rodata.system__bb__cpu_primitives__context_switch_trigger__is_armv6m
                0x0000000008009f83        0x1 /home/badr/GNAT/2018-arm-elf/arm-eabi/lib/gnat/ravenscar-sfp-stm32h743nucleo/adalib/libgnarl.a(s-bcpcst.o)
 .rodata.system__bb__cpu_primitives__context_switch_trigger__icsr_pend_sv_set
                0x0000000008009f84        0x4 /home/badr/GNAT/2018-arm-elf/arm-eabi/lib/gnat/ravenscar-sfp-stm32h743nucleo/adalib/libgnarl.a(s-bcpcst.o)
 .rodata.system__bb__cpu_primitives__context_switch_trigger__icsr
                0x0000000008009f88        0x4 /home/badr/GNAT/2018-arm-elf/arm-eabi/lib/gnat/ravenscar-sfp-stm32h743nucleo/adalib/libgnarl.a(s-bcpcst.o)
 .rodata        0x0000000008009f8c       0x84 /home/badr/GNAT/2018-arm-elf/arm-eabi/lib/gnat/ravenscar-sfp-stm32h743nucleo/adalib/libgnat.a(a-elchha.o)
 .rodata.ada__exceptions__null_id
                0x000000000800a010        0x4 /home/badr/GNAT/2018-arm-elf/arm-eabi/lib/gnat/ravenscar-sfp-stm32h743nucleo/adalib/libgnat.a(a-except.o)
                0x000000000800a010                ada__exceptions__null_id
 .rodata.ada__exceptions__empty_c_string___UNC
                0x000000000800a014        0xc /home/badr/GNAT/2018-arm-elf/arm-eabi/lib/gnat/ravenscar-sfp-stm32h743nucleo/adalib/libgnat.a(a-except.o)
                0x000000000800a014                ada__exceptions__empty_c_string___UNC
 .rodata.ada__exceptions__empty_c_string
                0x000000000800a020        0x4 /home/badr/GNAT/2018-arm-elf/arm-eabi/lib/gnat/ravenscar-sfp-stm32h743nucleo/adalib/libgnat.a(a-except.o)
                0x000000000800a020                ada__exceptions__empty_c_string
 .rodata        0x000000000800a024        0x9 /home/badr/GNAT/2018-arm-elf/arm-eabi/lib/gnat/ravenscar-sfp-stm32h743nucleo/adalib/libgnat.a(g-io.o)
 *fill*         0x000000000800a02d        0x3 
 .rodata        0x000000000800a030        0xd /home/badr/GNAT/2018-arm-elf/arm-eabi/lib/gnat/ravenscar-sfp-stm32h743nucleo/adalib/libgnat.a(s-assert.o)
 *fill*         0x000000000800a03d        0x3 
 .rodata.system__assertions__assert_failureE
                0x000000000800a040       0x21 /home/badr/GNAT/2018-arm-elf/arm-eabi/lib/gnat/ravenscar-sfp-stm32h743nucleo/adalib/libgnat.a(s-assert.o)
                0x000000000800a040                system__assertions__assert_failureE
 *fill*         0x000000000800a061        0x3 
 .rodata.system__assertions__R2s
                0x000000000800a064        0x4 /home/badr/GNAT/2018-arm-elf/arm-eabi/lib/gnat/ravenscar-sfp-stm32h743nucleo/adalib/libgnat.a(s-assert.o)
                0x000000000800a064                system__assertions__R2s
 .rodata        0x000000000800a068        0xd /home/badr/GNAT/2018-arm-elf/arm-eabi/lib/gnat/ravenscar-sfp-stm32h743nucleo/adalib/libgnat.a(s-memcop.o)
 *fill*         0x000000000800a075        0x3 
 .rodata        0x000000000800a078        0xd /home/badr/GNAT/2018-arm-elf/arm-eabi/lib/gnat/ravenscar-sfp-stm32h743nucleo/adalib/libgnat.a(s-memset.o)
 *fill*         0x000000000800a085        0x3 
 .rodata.system__parameters__unspecified_size
                0x000000000800a088        0x4 /home/badr/GNAT/2018-arm-elf/arm-eabi/lib/gnat/ravenscar-sfp-stm32h743nucleo/adalib/libgnat.a(s-parame.o)
                0x000000000800a088                system__parameters__unspecified_size
 .rodata.system__parameters__default_stack_size
                0x000000000800a08c        0x4 /home/badr/GNAT/2018-arm-elf/arm-eabi/lib/gnat/ravenscar-sfp-stm32h743nucleo/adalib/libgnat.a(s-parame.o)
                0x000000000800a08c                system__parameters__default_stack_size
 .rodata.system__parameters__minimum_stack_size
                0x000000000800a090        0x4 /home/badr/GNAT/2018-arm-elf/arm-eabi/lib/gnat/ravenscar-sfp-stm32h743nucleo/adalib/libgnat.a(s-parame.o)
                0x000000000800a090                system__parameters__minimum_stack_size
 .rodata.system__parameters__stack_grows_down
                0x000000000800a094        0x1 /home/badr/GNAT/2018-arm-elf/arm-eabi/lib/gnat/ravenscar-sfp-stm32h743nucleo/adalib/libgnat.a(s-parame.o)
                0x000000000800a094                system__parameters__stack_grows_down
 *fill*         0x000000000800a095        0x3 
 .rodata.system__parameters__runtime_default_sec_stack_size
                0x000000000800a098        0x4 /home/badr/GNAT/2018-arm-elf/arm-eabi/lib/gnat/ravenscar-sfp-stm32h743nucleo/adalib/libgnat.a(s-parame.o)
                0x000000000800a098                system__parameters__runtime_default_sec_stack_size
 .rodata.system__parameters__c_malloc_linkname
                0x000000000800a09c        0xd /home/badr/GNAT/2018-arm-elf/arm-eabi/lib/gnat/ravenscar-sfp-stm32h743nucleo/adalib/libgnat.a(s-parame.o)
                0x000000000800a09c                system__parameters__c_malloc_linkname
 .rodata.system__parameters__garbage_collected
                0x000000000800a0a9        0x1 /home/badr/GNAT/2018-arm-elf/arm-eabi/lib/gnat/ravenscar-sfp-stm32h743nucleo/adalib/libgnat.a(s-parame.o)
                0x000000000800a0a9                system__parameters__garbage_collected
 .rodata.system__parameters__single_lock
                0x000000000800a0aa        0x1 /home/badr/GNAT/2018-arm-elf/arm-eabi/lib/gnat/ravenscar-sfp-stm32h743nucleo/adalib/libgnat.a(s-parame.o)
                0x000000000800a0aa                system__parameters__single_lock
 .rodata.system__parameters__no_abort
                0x000000000800a0ab        0x1 /home/badr/GNAT/2018-arm-elf/arm-eabi/lib/gnat/ravenscar-sfp-stm32h743nucleo/adalib/libgnat.a(s-parame.o)
                0x000000000800a0ab                system__parameters__no_abort
 .rodata        0x000000000800a0ac        0xd /home/badr/GNAT/2018-arm-elf/arm-eabi/lib/gnat/ravenscar-sfp-stm32h743nucleo/adalib/libgnat.a(s-secsta.o)
 *fill*         0x000000000800a0b9        0x3 
 .rodata        0x000000000800a0bc        0xd /home/badr/GNAT/2018-arm-elf/arm-eabi/lib/gnat/ravenscar-sfp-stm32h743nucleo/adalib/libgnat.a(s-semiho.o)
 *fill*         0x000000000800a0c9        0x3 
 .rodata.system__semihosting__sys_writec
                0x000000000800a0cc        0x4 /home/badr/GNAT/2018-arm-elf/arm-eabi/lib/gnat/ravenscar-sfp-stm32h743nucleo/adalib/libgnat.a(s-semiho.o)
 .rodata.system__semihosting__sys_write0
                0x000000000800a0d0        0x4 /home/badr/GNAT/2018-arm-elf/arm-eabi/lib/gnat/ravenscar-sfp-stm32h743nucleo/adalib/libgnat.a(s-semiho.o)
 .rodata.system__semihosting__sys_readc
                0x000000000800a0d4        0x4 /home/badr/GNAT/2018-arm-elf/arm-eabi/lib/gnat/ravenscar-sfp-stm32h743nucleo/adalib/libgnat.a(s-semiho.o)
                0x000000000800a0d8                . = ALIGN (0x4)
                0x000000000800a0d8                __rom_end = .
                0x000000000800a0d8                __data_load = __rom_end

.rel.dyn        0x000000000800a0d8        0x0
 .rel.iplt      0x000000000800a0d8        0x0 blink.o

.data           0x0000000024000000       0xf0 load address 0x000000000800a0d8
                0x0000000024000000                __data_start = .
 *(.data .data.* .gnu.linkonce.d*)
 .data          0x0000000024000000        0x0 blink.o
 .data          0x0000000024000000        0x2 b__blink.o
                0x0000000024000000                ada_main_E
 .data          0x0000000024000002        0x0 /home/badr/hackinvent/Ada_Drivers_Library/boards/stm32h743_nucleo/obj/sfp_lib_Debug/libada_drivers_library.a(stm32-device.o)
 .data.stm32__device_E
                0x0000000024000002        0x2 /home/badr/hackinvent/Ada_Drivers_Library/boards/stm32h743_nucleo/obj/sfp_lib_Debug/libada_drivers_library.a(stm32-device.o)
                0x0000000024000002                stm32__device_E
 .data.stm32__device__unknown_device
                0x0000000024000004       0x18 /home/badr/hackinvent/Ada_Drivers_Library/boards/stm32h743_nucleo/obj/sfp_lib_Debug/libada_drivers_library.a(stm32-device.o)
                0x0000000024000004                stm32__device__unknown_device
 .data          0x000000002400001c        0x0 /home/badr/hackinvent/Ada_Drivers_Library/boards/stm32h743_nucleo/obj/sfp_lib_Debug/libada_drivers_library.a(stm32-exti.o)
 .data.stm32__exti_E
                0x000000002400001c        0x2 /home/badr/hackinvent/Ada_Drivers_Library/boards/stm32h743_nucleo/obj/sfp_lib_Debug/libada_drivers_library.a(stm32-exti.o)
                0x000000002400001c                stm32__exti_E
 .data          0x000000002400001e        0x0 /home/badr/hackinvent/Ada_Drivers_Library/boards/stm32h743_nucleo/obj/sfp_lib_Debug/libada_drivers_library.a(stm32-gpio.o)
 .data.stm32__gpio_E
                0x000000002400001e        0x2 /home/badr/hackinvent/Ada_Drivers_Library/boards/stm32h743_nucleo/obj/sfp_lib_Debug/libada_drivers_library.a(stm32-gpio.o)
                0x000000002400001e                stm32__gpio_E
 .data.stm32__gpio__modeE10b
                0x0000000024000020        0x1 /home/badr/hackinvent/Ada_Drivers_Library/boards/stm32h743_nucleo/obj/sfp_lib_Debug/libada_drivers_library.a(stm32-gpio.o)
                0x0000000024000020                stm32__gpio__modeE10b
 .data.stm32__gpio__set_modeE23b
                0x0000000024000021        0x1 /home/badr/hackinvent/Ada_Drivers_Library/boards/stm32h743_nucleo/obj/sfp_lib_Debug/libada_drivers_library.a(stm32-gpio.o)
                0x0000000024000021                stm32__gpio__set_modeE23b
 .data.stm32__gpio__pull_resistorE28b
                0x0000000024000022        0x1 /home/badr/hackinvent/Ada_Drivers_Library/boards/stm32h743_nucleo/obj/sfp_lib_Debug/libada_drivers_library.a(stm32-gpio.o)
                0x0000000024000022                stm32__gpio__pull_resistorE28b
 .data.stm32__gpio__set_pull_resistorE42b
                0x0000000024000023        0x1 /home/badr/hackinvent/Ada_Drivers_Library/boards/stm32h743_nucleo/obj/sfp_lib_Debug/libada_drivers_library.a(stm32-gpio.o)
                0x0000000024000023                stm32__gpio__set_pull_resistorE42b
 .data.stm32__gpio__lockE78b
                0x0000000024000024        0x1 /home/badr/hackinvent/Ada_Drivers_Library/boards/stm32h743_nucleo/obj/sfp_lib_Debug/libada_drivers_library.a(stm32-gpio.o)
                0x0000000024000024                stm32__gpio__lockE78b
 .data.stm32__gpio__configure_ioE100b
                0x0000000024000025        0x1 /home/badr/hackinvent/Ada_Drivers_Library/boards/stm32h743_nucleo/obj/sfp_lib_Debug/libada_drivers_library.a(stm32-gpio.o)
                0x0000000024000025                stm32__gpio__configure_ioE100b
 .data.stm32__gpio__interrupt_line_numberE120b
                0x0000000024000026        0x1 /home/badr/hackinvent/Ada_Drivers_Library/boards/stm32h743_nucleo/obj/sfp_lib_Debug/libada_drivers_library.a(stm32-gpio.o)
                0x0000000024000026                stm32__gpio__interrupt_line_numberE120b
 .data.stm32__gpio__configure_triggerE122b
                0x0000000024000027        0x1 /home/badr/hackinvent/Ada_Drivers_Library/boards/stm32h743_nucleo/obj/sfp_lib_Debug/libada_drivers_library.a(stm32-gpio.o)
                0x0000000024000027                stm32__gpio__configure_triggerE122b
 .data.stm32__gpio__configure_alternate_functionE114b
                0x0000000024000028        0x1 /home/badr/hackinvent/Ada_Drivers_Library/boards/stm32h743_nucleo/obj/sfp_lib_Debug/libada_drivers_library.a(stm32-gpio.o)
                0x0000000024000028                stm32__gpio__configure_alternate_functionE114b
 .data          0x0000000024000029        0x0 /home/badr/hackinvent/Ada_Drivers_Library/boards/stm32h743_nucleo/obj/sfp_lib_Debug/libada_drivers_library.a(stm32-rcc.o)
 *fill*         0x0000000024000029        0x1 
 .data.stm32__rcc_E
                0x000000002400002a        0x2 /home/badr/hackinvent/Ada_Drivers_Library/boards/stm32h743_nucleo/obj/sfp_lib_Debug/libada_drivers_library.a(stm32-rcc.o)
                0x000000002400002a                stm32__rcc_E
 .data.stm32__rcc__unknown_device
                0x000000002400002c       0x18 /home/badr/hackinvent/Ada_Drivers_Library/boards/stm32h743_nucleo/obj/sfp_lib_Debug/libada_drivers_library.a(stm32-rcc.o)
                0x000000002400002c                stm32__rcc__unknown_device
 .data          0x0000000024000044        0x0 /home/badr/hackinvent/Ada_Drivers_Library/boards/stm32h743_nucleo/obj/sfp_lib_Debug/libada_drivers_library.a(stm32-syscfg.o)
 .data.stm32__syscfg_E
                0x0000000024000044        0x2 /home/badr/hackinvent/Ada_Drivers_Library/boards/stm32h743_nucleo/obj/sfp_lib_Debug/libada_drivers_library.a(stm32-syscfg.o)
                0x0000000024000044                stm32__syscfg_E
 .data          0x0000000024000046        0x0 /home/badr/hackinvent/Ada_Drivers_Library/boards/stm32h743_nucleo/obj/sfp_lib_Debug/libada_drivers_library.a(hal-gpio.o)
 .data.hal__gpio_E
                0x0000000024000046        0x2 /home/badr/hackinvent/Ada_Drivers_Library/boards/stm32h743_nucleo/obj/sfp_lib_Debug/libada_drivers_library.a(hal-gpio.o)
                0x0000000024000046                hal__gpio_E
 .data          0x0000000024000048        0x0 /home/badr/GNAT/2018-arm-elf/arm-eabi/lib/gnat/ravenscar-sfp-stm32h743nucleo/adalib/libgnarl.a(a-reatim.o)
 .data.ada__real_time_E
                0x0000000024000048        0x2 /home/badr/GNAT/2018-arm-elf/arm-eabi/lib/gnat/ravenscar-sfp-stm32h743nucleo/adalib/libgnarl.a(a-reatim.o)
                0x0000000024000048                ada__real_time_E
 .data          0x000000002400004a        0x0 /home/badr/GNAT/2018-arm-elf/arm-eabi/lib/gnat/ravenscar-sfp-stm32h743nucleo/adalib/libgnarl.a(a-retide.o)
 .data.ada__real_time__delays_E
                0x000000002400004a        0x2 /home/badr/GNAT/2018-arm-elf/arm-eabi/lib/gnat/ravenscar-sfp-stm32h743nucleo/adalib/libgnarl.a(a-retide.o)
                0x000000002400004a                ada__real_time__delays_E
 .data          0x000000002400004c        0x0 /home/badr/GNAT/2018-arm-elf/arm-eabi/lib/gnat/ravenscar-sfp-stm32h743nucleo/adalib/libgnarl.a(s-bbtiev.o)
 .data.system__bb__timing_events_E
                0x000000002400004c        0x2 /home/badr/GNAT/2018-arm-elf/arm-eabi/lib/gnat/ravenscar-sfp-stm32h743nucleo/adalib/libgnarl.a(s-bbtiev.o)
                0x000000002400004c                system__bb__timing_events_E
 .data.system__bb__timing_events__set_handlerE32b
                0x000000002400004e        0x1 /home/badr/GNAT/2018-arm-elf/arm-eabi/lib/gnat/ravenscar-sfp-stm32h743nucleo/adalib/libgnarl.a(s-bbtiev.o)
                0x000000002400004e                system__bb__timing_events__set_handlerE32b
 .data.system__bb__timing_events__cancel_handlerE34b
                0x000000002400004f        0x1 /home/badr/GNAT/2018-arm-elf/arm-eabi/lib/gnat/ravenscar-sfp-stm32h743nucleo/adalib/libgnarl.a(s-bbtiev.o)
                0x000000002400004f                system__bb__timing_events__cancel_handlerE34b
 .data.system__bb__timing_events__time_of_eventE41b
                0x0000000024000050        0x1 /home/badr/GNAT/2018-arm-elf/arm-eabi/lib/gnat/ravenscar-sfp-stm32h743nucleo/adalib/libgnarl.a(s-bbtiev.o)
                0x0000000024000050                system__bb__timing_events__time_of_eventE41b
 *fill*         0x0000000024000051        0x3 
 .data.system__bb__timing_events__events_table
                0x0000000024000054        0x4 /home/badr/GNAT/2018-arm-elf/arm-eabi/lib/gnat/ravenscar-sfp-stm32h743nucleo/adalib/libgnarl.a(s-bbtiev.o)
                0x0000000024000054                system__bb__timing_events__events_table
 .data          0x0000000024000058        0x0 /home/badr/GNAT/2018-arm-elf/arm-eabi/lib/gnat/ravenscar-sfp-stm32h743nucleo/adalib/libgnarl.a(s-bbtime.o)
 .data.system__bb__time__scheduling_event_hook
                0x0000000024000058        0x4 /home/badr/GNAT/2018-arm-elf/arm-eabi/lib/gnat/ravenscar-sfp-stm32h743nucleo/adalib/libgnarl.a(s-bbtime.o)
                0x0000000024000058                system__bb__time__scheduling_event_hook
 .data.system__bb__time__alarm_lock
                0x000000002400005c        0x2 /home/badr/GNAT/2018-arm-elf/arm-eabi/lib/gnat/ravenscar-sfp-stm32h743nucleo/adalib/libgnarl.a(s-bbtime.o)
                0x000000002400005c                system__bb__time__alarm_lock
 *fill*         0x000000002400005e        0x2 
 .data.system__bb__time__software_clock
                0x0000000024000060        0x8 /home/badr/GNAT/2018-arm-elf/arm-eabi/lib/gnat/ravenscar-sfp-stm32h743nucleo/adalib/libgnarl.a(s-bbtime.o)
                0x0000000024000060                system__bb__time__software_clock
 .data.system__bb__time__pending_alarm
                0x0000000024000068        0x8 /home/badr/GNAT/2018-arm-elf/arm-eabi/lib/gnat/ravenscar-sfp-stm32h743nucleo/adalib/libgnarl.a(s-bbtime.o)
                0x0000000024000068                system__bb__time__pending_alarm
 .data.system__bb__time__max_sleep
                0x0000000024000070        0x8 /home/badr/GNAT/2018-arm-elf/arm-eabi/lib/gnat/ravenscar-sfp-stm32h743nucleo/adalib/libgnarl.a(s-bbtime.o)
                0x0000000024000070                system__bb__time__max_sleep
 .data          0x0000000024000078        0x0 /home/badr/GNAT/2018-arm-elf/arm-eabi/lib/gnat/ravenscar-sfp-stm32h743nucleo/adalib/libgnarl.a(s-taprop.o)
 .data.system__task_primitives__operations__environment_task
                0x0000000024000078        0x4 /home/badr/GNAT/2018-arm-elf/arm-eabi/lib/gnat/ravenscar-sfp-stm32h743nucleo/adalib/libgnarl.a(s-taprop.o)
                0x0000000024000078                system__task_primitives__operations__environment_task
 .data          0x000000002400007c        0x0 /home/badr/GNAT/2018-arm-elf/arm-eabi/lib/gnat/ravenscar-sfp-stm32h743nucleo/adalib/libgnarl.a(s-tasdeb.o)
 .data.system__tasking__debug_E
                0x000000002400007c        0x2 /home/badr/GNAT/2018-arm-elf/arm-eabi/lib/gnat/ravenscar-sfp-stm32h743nucleo/adalib/libgnarl.a(s-tasdeb.o)
                0x000000002400007c                system__tasking__debug_E
 *fill*         0x000000002400007e        0x2 
 .data.system__tasking__debug__first_task
                0x0000000024000080        0x4 /home/badr/GNAT/2018-arm-elf/arm-eabi/lib/gnat/ravenscar-sfp-stm32h743nucleo/adalib/libgnarl.a(s-tasdeb.o)
                0x0000000024000080                system__tasking__debug__first_task
 .data.system__tasking__debug__last_task
                0x0000000024000084        0x4 /home/badr/GNAT/2018-arm-elf/arm-eabi/lib/gnat/ravenscar-sfp-stm32h743nucleo/adalib/libgnarl.a(s-tasdeb.o)
                0x0000000024000084                system__tasking__debug__last_task
 .data          0x0000000024000088        0x0 /home/badr/GNAT/2018-arm-elf/arm-eabi/lib/gnat/ravenscar-sfp-stm32h743nucleo/adalib/libgnarl.a(s-taskin.o)
 .data.system__tasking__fall_back_handler
                0x0000000024000088        0x8 /home/badr/GNAT/2018-arm-elf/arm-eabi/lib/gnat/ravenscar-sfp-stm32h743nucleo/adalib/libgnarl.a(s-taskin.o)
                0x0000000024000088                system__tasking__fall_back_handler
 .data.__gl_main_priority
                0x0000000024000090        0x4 /home/badr/GNAT/2018-arm-elf/arm-eabi/lib/gnat/ravenscar-sfp-stm32h743nucleo/adalib/libgnarl.a(s-taskin.o)
                0x0000000024000090                __gl_main_priority
 .data.__gl_main_cpu
                0x0000000024000094        0x4 /home/badr/GNAT/2018-arm-elf/arm-eabi/lib/gnat/ravenscar-sfp-stm32h743nucleo/adalib/libgnarl.a(s-taskin.o)
                0x0000000024000094                __gl_main_cpu
 .data.system__tasking__initialized
                0x0000000024000098        0x1 /home/badr/GNAT/2018-arm-elf/arm-eabi/lib/gnat/ravenscar-sfp-stm32h743nucleo/adalib/libgnarl.a(s-taskin.o)
 .data          0x0000000024000099        0x0 /home/badr/GNAT/2018-arm-elf/arm-eabi/lib/gnat/ravenscar-sfp-stm32h743nucleo/adalib/libgnarl.a(s-bbbosu.o)
 .data          0x0000000024000099        0x0 /home/badr/GNAT/2018-arm-elf/arm-eabi/lib/gnat/ravenscar-sfp-stm32h743nucleo/adalib/libgnarl.a(s-bbcppr.o)
 .data          0x0000000024000099        0x0 /home/badr/GNAT/2018-arm-elf/arm-eabi/lib/gnat/ravenscar-sfp-stm32h743nucleo/adalib/libgnarl.a(s-bbinte.o)
 *fill*         0x0000000024000099        0x3 
 .data.system__bb__interrupts__interrupt_being_handled
                0x000000002400009c        0x4 /home/badr/GNAT/2018-arm-elf/arm-eabi/lib/gnat/ravenscar-sfp-stm32h743nucleo/adalib/libgnarl.a(s-bbinte.o)
                0x000000002400009c                system__bb__interrupts__interrupt_being_handled
 .data          0x00000000240000a0        0x0 /home/badr/GNAT/2018-arm-elf/arm-eabi/lib/gnat/ravenscar-sfp-stm32h743nucleo/adalib/libgnarl.a(s-bbprot.o)
 .data.system__bb__protection__wakeup_served_entry_callback
                0x00000000240000a0        0x4 /home/badr/GNAT/2018-arm-elf/arm-eabi/lib/gnat/ravenscar-sfp-stm32h743nucleo/adalib/libgnarl.a(s-bbprot.o)
                0x00000000240000a0                system__bb__protection__wakeup_served_entry_callback
 .data          0x00000000240000a4        0x0 /home/badr/GNAT/2018-arm-elf/arm-eabi/lib/gnat/ravenscar-sfp-stm32h743nucleo/adalib/libgnarl.a(s-bbthqu.o)
 .data.__gnat_running_thread_table
                0x00000000240000a4        0x4 /home/badr/GNAT/2018-arm-elf/arm-eabi/lib/gnat/ravenscar-sfp-stm32h743nucleo/adalib/libgnarl.a(s-bbthqu.o)
                0x00000000240000a4                __gnat_running_thread_table
 .data.first_thread_table
                0x00000000240000a8        0x4 /home/badr/GNAT/2018-arm-elf/arm-eabi/lib/gnat/ravenscar-sfp-stm32h743nucleo/adalib/libgnarl.a(s-bbthqu.o)
                0x00000000240000a8                first_thread_table
 .data.system__bb__threads__queues__global_list
                0x00000000240000ac        0x4 /home/badr/GNAT/2018-arm-elf/arm-eabi/lib/gnat/ravenscar-sfp-stm32h743nucleo/adalib/libgnarl.a(s-bbthqu.o)
                0x00000000240000ac                system__bb__threads__queues__global_list
 .data.system__bb__threads__queues__alarms_table
                0x00000000240000b0        0x4 /home/badr/GNAT/2018-arm-elf/arm-eabi/lib/gnat/ravenscar-sfp-stm32h743nucleo/adalib/libgnarl.a(s-bbthqu.o)
                0x00000000240000b0                system__bb__threads__queues__alarms_table
 .data          0x00000000240000b4        0x0 /home/badr/GNAT/2018-arm-elf/arm-eabi/lib/gnat/ravenscar-sfp-stm32h743nucleo/adalib/libgnarl.a(s-bbthre.o)
 .data.system__bb__threads__initialized
                0x00000000240000b4        0x1 /home/badr/GNAT/2018-arm-elf/arm-eabi/lib/gnat/ravenscar-sfp-stm32h743nucleo/adalib/libgnarl.a(s-bbthre.o)
                0x00000000240000b4                system__bb__threads__initialized
 .data          0x00000000240000b5        0x0 /home/badr/GNAT/2018-arm-elf/arm-eabi/lib/gnat/ravenscar-sfp-stm32h743nucleo/adalib/libgnarl.a(s-bcpcst.o)
 .data          0x00000000240000b5        0x0 /home/badr/GNAT/2018-arm-elf/arm-eabi/lib/gnat/ravenscar-sfp-stm32h743nucleo/adalib/libgnarl.a(handler.o)
 .data          0x00000000240000b5        0x0 /home/badr/GNAT/2018-arm-elf/arm-eabi/lib/gnat/ravenscar-sfp-stm32h743nucleo/adalib/libgnat.a(a-elchha.o)
 *fill*         0x00000000240000b5        0x1 
 .data.ada__exceptions__last_chance_handler_E
                0x00000000240000b6        0x2 /home/badr/GNAT/2018-arm-elf/arm-eabi/lib/gnat/ravenscar-sfp-stm32h743nucleo/adalib/libgnat.a(a-elchha.o)
                0x00000000240000b6                ada__exceptions__last_chance_handler_E
 .data          0x00000000240000b8        0x0 /home/badr/GNAT/2018-arm-elf/arm-eabi/lib/gnat/ravenscar-sfp-stm32h743nucleo/adalib/libgnat.a(a-except.o)
 .data.ada__exceptions_E
                0x00000000240000b8        0x2 /home/badr/GNAT/2018-arm-elf/arm-eabi/lib/gnat/ravenscar-sfp-stm32h743nucleo/adalib/libgnat.a(a-except.o)
                0x00000000240000b8                ada__exceptions_E
 .data          0x00000000240000ba        0x0 /home/badr/GNAT/2018-arm-elf/arm-eabi/lib/gnat/ravenscar-sfp-stm32h743nucleo/adalib/libgnat.a(breakpoint_handler-cortexm.o)
 .data          0x00000000240000ba        0x0 /home/badr/GNAT/2018-arm-elf/arm-eabi/lib/gnat/ravenscar-sfp-stm32h743nucleo/adalib/libgnat.a(g-io.o)
 .data.gnat__io_E
                0x00000000240000ba        0x2 /home/badr/GNAT/2018-arm-elf/arm-eabi/lib/gnat/ravenscar-sfp-stm32h743nucleo/adalib/libgnat.a(g-io.o)
                0x00000000240000ba                gnat__io_E
 .data          0x00000000240000bc        0x0 /home/badr/GNAT/2018-arm-elf/arm-eabi/lib/gnat/ravenscar-sfp-stm32h743nucleo/adalib/libgnat.a(s-assert.o)
 .data.system__assertions_E
                0x00000000240000bc        0x2 /home/badr/GNAT/2018-arm-elf/arm-eabi/lib/gnat/ravenscar-sfp-stm32h743nucleo/adalib/libgnat.a(s-assert.o)
                0x00000000240000bc                system__assertions_E
 *fill*         0x00000000240000be        0x2 
 .data.system__assertions__assert_failure
                0x00000000240000c0       0x18 /home/badr/GNAT/2018-arm-elf/arm-eabi/lib/gnat/ravenscar-sfp-stm32h743nucleo/adalib/libgnat.a(s-assert.o)
                0x00000000240000c0                system__assertions__assert_failure
 .data          0x00000000240000d8        0x0 /home/badr/GNAT/2018-arm-elf/arm-eabi/lib/gnat/ravenscar-sfp-stm32h743nucleo/adalib/libgnat.a(s-macres.o)
 .data.system__machine_reset_E
                0x00000000240000d8        0x2 /home/badr/GNAT/2018-arm-elf/arm-eabi/lib/gnat/ravenscar-sfp-stm32h743nucleo/adalib/libgnat.a(s-macres.o)
                0x00000000240000d8                system__machine_reset_E
 .data          0x00000000240000da        0x0 /home/badr/GNAT/2018-arm-elf/arm-eabi/lib/gnat/ravenscar-sfp-stm32h743nucleo/adalib/libgnat.a(s-memcop.o)
 .data.system__memory_copy_E
                0x00000000240000da        0x2 /home/badr/GNAT/2018-arm-elf/arm-eabi/lib/gnat/ravenscar-sfp-stm32h743nucleo/adalib/libgnat.a(s-memcop.o)
                0x00000000240000da                system__memory_copy_E
 .data          0x00000000240000dc        0x0 /home/badr/GNAT/2018-arm-elf/arm-eabi/lib/gnat/ravenscar-sfp-stm32h743nucleo/adalib/libgnat.a(s-memset.o)
 .data.system__memory_set_E
                0x00000000240000dc        0x2 /home/badr/GNAT/2018-arm-elf/arm-eabi/lib/gnat/ravenscar-sfp-stm32h743nucleo/adalib/libgnat.a(s-memset.o)
                0x00000000240000dc                system__memory_set_E
 .data          0x00000000240000de        0x0 /home/badr/GNAT/2018-arm-elf/arm-eabi/lib/gnat/ravenscar-sfp-stm32h743nucleo/adalib/libgnat.a(s-parame.o)
 .data.system__parameters_E
                0x00000000240000de        0x2 /home/badr/GNAT/2018-arm-elf/arm-eabi/lib/gnat/ravenscar-sfp-stm32h743nucleo/adalib/libgnat.a(s-parame.o)
                0x00000000240000de                system__parameters_E
 .data          0x00000000240000e0        0x0 /home/badr/GNAT/2018-arm-elf/arm-eabi/lib/gnat/ravenscar-sfp-stm32h743nucleo/adalib/libgnat.a(s-secsta.o)
 .data.system__secondary_stack_E
                0x00000000240000e0        0x2 /home/badr/GNAT/2018-arm-elf/arm-eabi/lib/gnat/ravenscar-sfp-stm32h743nucleo/adalib/libgnat.a(s-secsta.o)
                0x00000000240000e0                system__secondary_stack_E
 *fill*         0x00000000240000e2        0x2 
 .data.system__secondary_stack__num_of_assigned_stacks
                0x00000000240000e4        0x4 /home/badr/GNAT/2018-arm-elf/arm-eabi/lib/gnat/ravenscar-sfp-stm32h743nucleo/adalib/libgnat.a(s-secsta.o)
                0x00000000240000e4                system__secondary_stack__num_of_assigned_stacks
 .data          0x00000000240000e8        0x0 /home/badr/GNAT/2018-arm-elf/arm-eabi/lib/gnat/ravenscar-sfp-stm32h743nucleo/adalib/libgnat.a(s-textio.o)
 .data.system__text_io_E
                0x00000000240000e8        0x2 /home/badr/GNAT/2018-arm-elf/arm-eabi/lib/gnat/ravenscar-sfp-stm32h743nucleo/adalib/libgnat.a(s-textio.o)
                0x00000000240000e8                system__text_io_E
 .data.system__text_io__initialized
                0x00000000240000ea        0x1 /home/badr/GNAT/2018-arm-elf/arm-eabi/lib/gnat/ravenscar-sfp-stm32h743nucleo/adalib/libgnat.a(s-textio.o)
                0x00000000240000ea                system__text_io__initialized
 .data          0x00000000240000eb        0x0 /home/badr/GNAT/2018-arm-elf/arm-eabi/lib/gnat/ravenscar-sfp-stm32h743nucleo/adalib/libgnat.a(start-rom.o)
 .data          0x00000000240000eb        0x0 /home/badr/GNAT/2018-arm-elf/arm-eabi/lib/gnat/ravenscar-sfp-stm32h743nucleo/adalib/libgnat.a(s-semiho.o)
 *fill*         0x00000000240000eb        0x1 
 .data.system__semihosting_E
                0x00000000240000ec        0x2 /home/badr/GNAT/2018-arm-elf/arm-eabi/lib/gnat/ravenscar-sfp-stm32h743nucleo/adalib/libgnat.a(s-semiho.o)
                0x00000000240000ec                system__semihosting_E
 .data.system__semihosting__buffer_index
                0x00000000240000ee        0x2 /home/badr/GNAT/2018-arm-elf/arm-eabi/lib/gnat/ravenscar-sfp-stm32h743nucleo/adalib/libgnat.a(s-semiho.o)
 .data          0x00000000240000f0        0x0 /home/badr/GNAT/2018-arm-elf/arm-eabi/lib/gnat/ravenscar-sfp-stm32h743nucleo/adalib/libgnat.a(start-common.o)
 .data          0x00000000240000f0        0x0 /home/badr/GNAT/2018-arm-elf/bin/../lib/gcc/arm-eabi/7.3.1/thumb/v7e-m/fpv5/hard/libgcc.a(_aeabi_ldivmod.o)
 .data          0x00000000240000f0        0x0 /home/badr/GNAT/2018-arm-elf/bin/../lib/gcc/arm-eabi/7.3.1/thumb/v7e-m/fpv5/hard/libgcc.a(_aeabi_uldivmod.o)
 .data          0x00000000240000f0        0x0 /home/badr/GNAT/2018-arm-elf/bin/../lib/gcc/arm-eabi/7.3.1/thumb/v7e-m/fpv5/hard/libgcc.a(_udivmoddi4.o)
 .data          0x00000000240000f0        0x0 /home/badr/GNAT/2018-arm-elf/bin/../lib/gcc/arm-eabi/7.3.1/thumb/v7e-m/fpv5/hard/libgcc.a(_dvmd_tls.o)
                0x00000000240000f0                . = ALIGN (0x4)
                0x00000000240000f0                __data_end = .
                0x000000000000003c                __data_words = ((__data_end - __data_start) >> 0x2)
                0x000000000800a1c8                __ccmdata_load = (__rom_end + (__data_words << 0x2))

.igot.plt       0x00000000240000f0        0x0 load address 0x000000000800a1c8
 .igot.plt      0x00000000240000f0        0x0 blink.o

.ccmdata        0x0000000020000000        0x0 load address 0x000000000800a1c8
                0x0000000020000000                __ccmdata_start = .
 *(.ccmdata .ccmdata.*)
                0x0000000020000000                . = ALIGN (0x4)
                0x0000000020000000                __ccmdata_end = .
                0x0000000000000000                __ccmdata_words = ((__ccmdata_end - __ccmdata_start) >> 0x2)

.bss            0x00000000240000f0     0x2f28 load address 0x000000000800a1c8
                0x00000000240000f0                . = ALIGN (0x8)
                0x00000000240000f0                __bss_start = .
 *(.bss .bss.*)
 .bss           0x00000000240000f0        0x0 blink.o
 .bss           0x00000000240000f0      0x210 b__blink.o
 .bss           0x0000000024000300        0x0 /home/badr/hackinvent/Ada_Drivers_Library/boards/stm32h743_nucleo/obj/sfp_lib_Debug/libada_drivers_library.a(stm32-device.o)
 .bss.stm32__device__pa0
                0x0000000024000300        0xc /home/badr/hackinvent/Ada_Drivers_Library/boards/stm32h743_nucleo/obj/sfp_lib_Debug/libada_drivers_library.a(stm32-device.o)
                0x0000000024000300                stm32__device__pa0
 .bss.stm32__device__pa1
                0x000000002400030c        0xc /home/badr/hackinvent/Ada_Drivers_Library/boards/stm32h743_nucleo/obj/sfp_lib_Debug/libada_drivers_library.a(stm32-device.o)
                0x000000002400030c                stm32__device__pa1
 .bss.stm32__device__pa2
                0x0000000024000318        0xc /home/badr/hackinvent/Ada_Drivers_Library/boards/stm32h743_nucleo/obj/sfp_lib_Debug/libada_drivers_library.a(stm32-device.o)
                0x0000000024000318                stm32__device__pa2
 .bss.stm32__device__pa3
                0x0000000024000324        0xc /home/badr/hackinvent/Ada_Drivers_Library/boards/stm32h743_nucleo/obj/sfp_lib_Debug/libada_drivers_library.a(stm32-device.o)
                0x0000000024000324                stm32__device__pa3
 .bss.stm32__device__pa4
                0x0000000024000330        0xc /home/badr/hackinvent/Ada_Drivers_Library/boards/stm32h743_nucleo/obj/sfp_lib_Debug/libada_drivers_library.a(stm32-device.o)
                0x0000000024000330                stm32__device__pa4
 .bss.stm32__device__pa5
                0x000000002400033c        0xc /home/badr/hackinvent/Ada_Drivers_Library/boards/stm32h743_nucleo/obj/sfp_lib_Debug/libada_drivers_library.a(stm32-device.o)
                0x000000002400033c                stm32__device__pa5
 .bss.stm32__device__pa6
                0x0000000024000348        0xc /home/badr/hackinvent/Ada_Drivers_Library/boards/stm32h743_nucleo/obj/sfp_lib_Debug/libada_drivers_library.a(stm32-device.o)
                0x0000000024000348                stm32__device__pa6
 .bss.stm32__device__pa7
                0x0000000024000354        0xc /home/badr/hackinvent/Ada_Drivers_Library/boards/stm32h743_nucleo/obj/sfp_lib_Debug/libada_drivers_library.a(stm32-device.o)
                0x0000000024000354                stm32__device__pa7
 .bss.stm32__device__pa8
                0x0000000024000360        0xc /home/badr/hackinvent/Ada_Drivers_Library/boards/stm32h743_nucleo/obj/sfp_lib_Debug/libada_drivers_library.a(stm32-device.o)
                0x0000000024000360                stm32__device__pa8
 .bss.stm32__device__pa9
                0x000000002400036c        0xc /home/badr/hackinvent/Ada_Drivers_Library/boards/stm32h743_nucleo/obj/sfp_lib_Debug/libada_drivers_library.a(stm32-device.o)
                0x000000002400036c                stm32__device__pa9
 .bss.stm32__device__pa10
                0x0000000024000378        0xc /home/badr/hackinvent/Ada_Drivers_Library/boards/stm32h743_nucleo/obj/sfp_lib_Debug/libada_drivers_library.a(stm32-device.o)
                0x0000000024000378                stm32__device__pa10
 .bss.stm32__device__pa11
                0x0000000024000384        0xc /home/badr/hackinvent/Ada_Drivers_Library/boards/stm32h743_nucleo/obj/sfp_lib_Debug/libada_drivers_library.a(stm32-device.o)
                0x0000000024000384                stm32__device__pa11
 .bss.stm32__device__pa12
                0x0000000024000390        0xc /home/badr/hackinvent/Ada_Drivers_Library/boards/stm32h743_nucleo/obj/sfp_lib_Debug/libada_drivers_library.a(stm32-device.o)
                0x0000000024000390                stm32__device__pa12
 .bss.stm32__device__pa13
                0x000000002400039c        0xc /home/badr/hackinvent/Ada_Drivers_Library/boards/stm32h743_nucleo/obj/sfp_lib_Debug/libada_drivers_library.a(stm32-device.o)
                0x000000002400039c                stm32__device__pa13
 .bss.stm32__device__pa14
                0x00000000240003a8        0xc /home/badr/hackinvent/Ada_Drivers_Library/boards/stm32h743_nucleo/obj/sfp_lib_Debug/libada_drivers_library.a(stm32-device.o)
                0x00000000240003a8                stm32__device__pa14
 .bss.stm32__device__pa15
                0x00000000240003b4        0xc /home/badr/hackinvent/Ada_Drivers_Library/boards/stm32h743_nucleo/obj/sfp_lib_Debug/libada_drivers_library.a(stm32-device.o)
                0x00000000240003b4                stm32__device__pa15
 .bss.stm32__device__pb0
                0x00000000240003c0        0xc /home/badr/hackinvent/Ada_Drivers_Library/boards/stm32h743_nucleo/obj/sfp_lib_Debug/libada_drivers_library.a(stm32-device.o)
                0x00000000240003c0                stm32__device(bool *, )
 .bss.stm32__device__pb1
                0x00000000240003cc        0xc /home/badr/hackinvent/Ada_Drivers_Library/boards/stm32h743_nucleo/obj/sfp_lib_Debug/libada_drivers_library.a(stm32-device.o)
                0x00000000240003cc                stm32__device__pb1
 .bss.stm32__device__pb2
                0x00000000240003d8        0xc /home/badr/hackinvent/Ada_Drivers_Library/boards/stm32h743_nucleo/obj/sfp_lib_Debug/libada_drivers_library.a(stm32-device.o)
                0x00000000240003d8                stm32__device__pb2
 .bss.stm32__device__pb3
                0x00000000240003e4        0xc /home/badr/hackinvent/Ada_Drivers_Library/boards/stm32h743_nucleo/obj/sfp_lib_Debug/libada_drivers_library.a(stm32-device.o)
                0x00000000240003e4                stm32__device__pb3
 .bss.stm32__device__pb4
                0x00000000240003f0        0xc /home/badr/hackinvent/Ada_Drivers_Library/boards/stm32h743_nucleo/obj/sfp_lib_Debug/libada_drivers_library.a(stm32-device.o)
                0x00000000240003f0                stm32__device__pb4
 .bss.stm32__device__pb5
                0x00000000240003fc        0xc /home/badr/hackinvent/Ada_Drivers_Library/boards/stm32h743_nucleo/obj/sfp_lib_Debug/libada_drivers_library.a(stm32-device.o)
                0x00000000240003fc                stm32__device__pb5
 .bss.stm32__device__pb6
                0x0000000024000408        0xc /home/badr/hackinvent/Ada_Drivers_Library/boards/stm32h743_nucleo/obj/sfp_lib_Debug/libada_drivers_library.a(stm32-device.o)
                0x0000000024000408                stm32__device__pb6
 .bss.stm32__device__pb7
                0x0000000024000414        0xc /home/badr/hackinvent/Ada_Drivers_Library/boards/stm32h743_nucleo/obj/sfp_lib_Debug/libada_drivers_library.a(stm32-device.o)
                0x0000000024000414                stm32__device__pb7
 .bss.stm32__device__pb8
                0x0000000024000420        0xc /home/badr/hackinvent/Ada_Drivers_Library/boards/stm32h743_nucleo/obj/sfp_lib_Debug/libada_drivers_library.a(stm32-device.o)
                0x0000000024000420                stm32__device__pb8
 .bss.stm32__device__pb9
                0x000000002400042c        0xc /home/badr/hackinvent/Ada_Drivers_Library/boards/stm32h743_nucleo/obj/sfp_lib_Debug/libada_drivers_library.a(stm32-device.o)
                0x000000002400042c                stm32__device__pb9
 .bss.stm32__device__pb10
                0x0000000024000438        0xc /home/badr/hackinvent/Ada_Drivers_Library/boards/stm32h743_nucleo/obj/sfp_lib_Debug/libada_drivers_library.a(stm32-device.o)
                0x0000000024000438                stm32__device__pb10
 .bss.stm32__device__pb11
                0x0000000024000444        0xc /home/badr/hackinvent/Ada_Drivers_Library/boards/stm32h743_nucleo/obj/sfp_lib_Debug/libada_drivers_library.a(stm32-device.o)
                0x0000000024000444                stm32__device__pb11
 .bss.stm32__device__pb12
                0x0000000024000450        0xc /home/badr/hackinvent/Ada_Drivers_Library/boards/stm32h743_nucleo/obj/sfp_lib_Debug/libada_drivers_library.a(stm32-device.o)
                0x0000000024000450                stm32__device__pb12
 .bss.stm32__device__pb13
                0x000000002400045c        0xc /home/badr/hackinvent/Ada_Drivers_Library/boards/stm32h743_nucleo/obj/sfp_lib_Debug/libada_drivers_library.a(stm32-device.o)
                0x000000002400045c                stm32__device__pb13
 .bss.stm32__device__pb14
                0x0000000024000468        0xc /home/badr/hackinvent/Ada_Drivers_Library/boards/stm32h743_nucleo/obj/sfp_lib_Debug/libada_drivers_library.a(stm32-device.o)
                0x0000000024000468                stm32__device__pb14
 .bss.stm32__device__pb15
                0x0000000024000474        0xc /home/badr/hackinvent/Ada_Drivers_Library/boards/stm32h743_nucleo/obj/sfp_lib_Debug/libada_drivers_library.a(stm32-device.o)
                0x0000000024000474                stm32__device__pb15
 .bss.stm32__device__pc0
                0x0000000024000480        0xc /home/badr/hackinvent/Ada_Drivers_Library/boards/stm32h743_nucleo/obj/sfp_lib_Debug/libada_drivers_library.a(stm32-device.o)
                0x0000000024000480                stm32__device(char *, )
 .bss.stm32__device__pc1
                0x000000002400048c        0xc /home/badr/hackinvent/Ada_Drivers_Library/boards/stm32h743_nucleo/obj/sfp_lib_Debug/libada_drivers_library.a(stm32-device.o)
                0x000000002400048c                stm32__device__pc1
 .bss.stm32__device__pc2
                0x0000000024000498        0xc /home/badr/hackinvent/Ada_Drivers_Library/boards/stm32h743_nucleo/obj/sfp_lib_Debug/libada_drivers_library.a(stm32-device.o)
                0x0000000024000498                stm32__device__pc2
 .bss.stm32__device__pc3
                0x00000000240004a4        0xc /home/badr/hackinvent/Ada_Drivers_Library/boards/stm32h743_nucleo/obj/sfp_lib_Debug/libada_drivers_library.a(stm32-device.o)
                0x00000000240004a4                stm32__device__pc3
 .bss.stm32__device__pc4
                0x00000000240004b0        0xc /home/badr/hackinvent/Ada_Drivers_Library/boards/stm32h743_nucleo/obj/sfp_lib_Debug/libada_drivers_library.a(stm32-device.o)
                0x00000000240004b0                stm32__device__pc4
 .bss.stm32__device__pc5
                0x00000000240004bc        0xc /home/badr/hackinvent/Ada_Drivers_Library/boards/stm32h743_nucleo/obj/sfp_lib_Debug/libada_drivers_library.a(stm32-device.o)
                0x00000000240004bc                stm32__device__pc5
 .bss.stm32__device__pc6
                0x00000000240004c8        0xc /home/badr/hackinvent/Ada_Drivers_Library/boards/stm32h743_nucleo/obj/sfp_lib_Debug/libada_drivers_library.a(stm32-device.o)
                0x00000000240004c8                stm32__device__pc6
 .bss.stm32__device__pc7
                0x00000000240004d4        0xc /home/badr/hackinvent/Ada_Drivers_Library/boards/stm32h743_nucleo/obj/sfp_lib_Debug/libada_drivers_library.a(stm32-device.o)
                0x00000000240004d4                stm32__device__pc7
 .bss.stm32__device__pc8
                0x00000000240004e0        0xc /home/badr/hackinvent/Ada_Drivers_Library/boards/stm32h743_nucleo/obj/sfp_lib_Debug/libada_drivers_library.a(stm32-device.o)
                0x00000000240004e0                stm32__device__pc8
 .bss.stm32__device__pc9
                0x00000000240004ec        0xc /home/badr/hackinvent/Ada_Drivers_Library/boards/stm32h743_nucleo/obj/sfp_lib_Debug/libada_drivers_library.a(stm32-device.o)
                0x00000000240004ec                stm32__device__pc9
 .bss.stm32__device__pc10
                0x00000000240004f8        0xc /home/badr/hackinvent/Ada_Drivers_Library/boards/stm32h743_nucleo/obj/sfp_lib_Debug/libada_drivers_library.a(stm32-device.o)
                0x00000000240004f8                stm32__device__pc10
 .bss.stm32__device__pc11
                0x0000000024000504        0xc /home/badr/hackinvent/Ada_Drivers_Library/boards/stm32h743_nucleo/obj/sfp_lib_Debug/libada_drivers_library.a(stm32-device.o)
                0x0000000024000504                stm32__device__pc11
 .bss.stm32__device__pc12
                0x0000000024000510        0xc /home/badr/hackinvent/Ada_Drivers_Library/boards/stm32h743_nucleo/obj/sfp_lib_Debug/libada_drivers_library.a(stm32-device.o)
                0x0000000024000510                stm32__device__pc12
 .bss.stm32__device__pc13
                0x000000002400051c        0xc /home/badr/hackinvent/Ada_Drivers_Library/boards/stm32h743_nucleo/obj/sfp_lib_Debug/libada_drivers_library.a(stm32-device.o)
                0x000000002400051c                stm32__device__pc13
 .bss.stm32__device__pc14
                0x0000000024000528        0xc /home/badr/hackinvent/Ada_Drivers_Library/boards/stm32h743_nucleo/obj/sfp_lib_Debug/libada_drivers_library.a(stm32-device.o)
                0x0000000024000528                stm32__device__pc14
 .bss.stm32__device__pc15
                0x0000000024000534        0xc /home/badr/hackinvent/Ada_Drivers_Library/boards/stm32h743_nucleo/obj/sfp_lib_Debug/libada_drivers_library.a(stm32-device.o)
                0x0000000024000534                stm32__device__pc15
 .bss.stm32__device__pd0
                0x0000000024000540        0xc /home/badr/hackinvent/Ada_Drivers_Library/boards/stm32h743_nucleo/obj/sfp_lib_Debug/libada_drivers_library.a(stm32-device.o)
                0x0000000024000540                stm32__device(double *, )
 .bss.stm32__device__pd1
                0x000000002400054c        0xc /home/badr/hackinvent/Ada_Drivers_Library/boards/stm32h743_nucleo/obj/sfp_lib_Debug/libada_drivers_library.a(stm32-device.o)
                0x000000002400054c                stm32__device__pd1
 .bss.stm32__device__pd2
                0x0000000024000558        0xc /home/badr/hackinvent/Ada_Drivers_Library/boards/stm32h743_nucleo/obj/sfp_lib_Debug/libada_drivers_library.a(stm32-device.o)
                0x0000000024000558                stm32__device__pd2
 .bss.stm32__device__pd3
                0x0000000024000564        0xc /home/badr/hackinvent/Ada_Drivers_Library/boards/stm32h743_nucleo/obj/sfp_lib_Debug/libada_drivers_library.a(stm32-device.o)
                0x0000000024000564                stm32__device__pd3
 .bss.stm32__device__pd4
                0x0000000024000570        0xc /home/badr/hackinvent/Ada_Drivers_Library/boards/stm32h743_nucleo/obj/sfp_lib_Debug/libada_drivers_library.a(stm32-device.o)
                0x0000000024000570                stm32__device__pd4
 .bss.stm32__device__pd5
                0x000000002400057c        0xc /home/badr/hackinvent/Ada_Drivers_Library/boards/stm32h743_nucleo/obj/sfp_lib_Debug/libada_drivers_library.a(stm32-device.o)
                0x000000002400057c                stm32__device__pd5
 .bss.stm32__device__pd6
                0x0000000024000588        0xc /home/badr/hackinvent/Ada_Drivers_Library/boards/stm32h743_nucleo/obj/sfp_lib_Debug/libada_drivers_library.a(stm32-device.o)
                0x0000000024000588                stm32__device__pd6
 .bss.stm32__device__pd7
                0x0000000024000594        0xc /home/badr/hackinvent/Ada_Drivers_Library/boards/stm32h743_nucleo/obj/sfp_lib_Debug/libada_drivers_library.a(stm32-device.o)
                0x0000000024000594                stm32__device__pd7
 .bss.stm32__device__pd8
                0x00000000240005a0        0xc /home/badr/hackinvent/Ada_Drivers_Library/boards/stm32h743_nucleo/obj/sfp_lib_Debug/libada_drivers_library.a(stm32-device.o)
                0x00000000240005a0                stm32__device__pd8
 .bss.stm32__device__pd9
                0x00000000240005ac        0xc /home/badr/hackinvent/Ada_Drivers_Library/boards/stm32h743_nucleo/obj/sfp_lib_Debug/libada_drivers_library.a(stm32-device.o)
                0x00000000240005ac                stm32__device__pd9
 .bss.stm32__device__pd10
                0x00000000240005b8        0xc /home/badr/hackinvent/Ada_Drivers_Library/boards/stm32h743_nucleo/obj/sfp_lib_Debug/libada_drivers_library.a(stm32-device.o)
                0x00000000240005b8                stm32__device__pd10
 .bss.stm32__device__pd11
                0x00000000240005c4        0xc /home/badr/hackinvent/Ada_Drivers_Library/boards/stm32h743_nucleo/obj/sfp_lib_Debug/libada_drivers_library.a(stm32-device.o)
                0x00000000240005c4                stm32__device__pd11
 .bss.stm32__device__pd12
                0x00000000240005d0        0xc /home/badr/hackinvent/Ada_Drivers_Library/boards/stm32h743_nucleo/obj/sfp_lib_Debug/libada_drivers_library.a(stm32-device.o)
                0x00000000240005d0                stm32__device__pd12
 .bss.stm32__device__pd13
                0x00000000240005dc        0xc /home/badr/hackinvent/Ada_Drivers_Library/boards/stm32h743_nucleo/obj/sfp_lib_Debug/libada_drivers_library.a(stm32-device.o)
                0x00000000240005dc                stm32__device__pd13
 .bss.stm32__device__pd14
                0x00000000240005e8        0xc /home/badr/hackinvent/Ada_Drivers_Library/boards/stm32h743_nucleo/obj/sfp_lib_Debug/libada_drivers_library.a(stm32-device.o)
                0x00000000240005e8                stm32__device__pd14
 .bss.stm32__device__pd15
                0x00000000240005f4        0xc /home/badr/hackinvent/Ada_Drivers_Library/boards/stm32h743_nucleo/obj/sfp_lib_Debug/libada_drivers_library.a(stm32-device.o)
                0x00000000240005f4                stm32__device__pd15
 .bss.stm32__device__pe0
                0x0000000024000600        0xc /home/badr/hackinvent/Ada_Drivers_Library/boards/stm32h743_nucleo/obj/sfp_lib_Debug/libada_drivers_library.a(stm32-device.o)
                0x0000000024000600                stm32__device__pe0
 .bss.stm32__device__pe1
                0x000000002400060c        0xc /home/badr/hackinvent/Ada_Drivers_Library/boards/stm32h743_nucleo/obj/sfp_lib_Debug/libada_drivers_library.a(stm32-device.o)
                0x000000002400060c                stm32__device__pe1
 .bss.stm32__device__pe2
                0x0000000024000618        0xc /home/badr/hackinvent/Ada_Drivers_Library/boards/stm32h743_nucleo/obj/sfp_lib_Debug/libada_drivers_library.a(stm32-device.o)
                0x0000000024000618                stm32__device__pe2
 .bss.stm32__device__pe3
                0x0000000024000624        0xc /home/badr/hackinvent/Ada_Drivers_Library/boards/stm32h743_nucleo/obj/sfp_lib_Debug/libada_drivers_library.a(stm32-device.o)
                0x0000000024000624                stm32__device__pe3
 .bss.stm32__device__pe4
                0x0000000024000630        0xc /home/badr/hackinvent/Ada_Drivers_Library/boards/stm32h743_nucleo/obj/sfp_lib_Debug/libada_drivers_library.a(stm32-device.o)
                0x0000000024000630                stm32__device__pe4
 .bss.stm32__device__pe5
                0x000000002400063c        0xc /home/badr/hackinvent/Ada_Drivers_Library/boards/stm32h743_nucleo/obj/sfp_lib_Debug/libada_drivers_library.a(stm32-device.o)
                0x000000002400063c                stm32__device__pe5
 .bss.stm32__device__pe6
                0x0000000024000648        0xc /home/badr/hackinvent/Ada_Drivers_Library/boards/stm32h743_nucleo/obj/sfp_lib_Debug/libada_drivers_library.a(stm32-device.o)
                0x0000000024000648                stm32__device__pe6
 .bss.stm32__device__pe7
                0x0000000024000654        0xc /home/badr/hackinvent/Ada_Drivers_Library/boards/stm32h743_nucleo/obj/sfp_lib_Debug/libada_drivers_library.a(stm32-device.o)
                0x0000000024000654                stm32__device__pe7
 .bss.stm32__device__pe8
                0x0000000024000660        0xc /home/badr/hackinvent/Ada_Drivers_Library/boards/stm32h743_nucleo/obj/sfp_lib_Debug/libada_drivers_library.a(stm32-device.o)
                0x0000000024000660                stm32__device__pe8
 .bss.stm32__device__pe9
                0x000000002400066c        0xc /home/badr/hackinvent/Ada_Drivers_Library/boards/stm32h743_nucleo/obj/sfp_lib_Debug/libada_drivers_library.a(stm32-device.o)
                0x000000002400066c                stm32__device__pe9
 .bss.stm32__device__pe10
                0x0000000024000678        0xc /home/badr/hackinvent/Ada_Drivers_Library/boards/stm32h743_nucleo/obj/sfp_lib_Debug/libada_drivers_library.a(stm32-device.o)
                0x0000000024000678                stm32__device__pe10
 .bss.stm32__device__pe11
                0x0000000024000684        0xc /home/badr/hackinvent/Ada_Drivers_Library/boards/stm32h743_nucleo/obj/sfp_lib_Debug/libada_drivers_library.a(stm32-device.o)
                0x0000000024000684                stm32__device__pe11
 .bss.stm32__device__pe12
                0x0000000024000690        0xc /home/badr/hackinvent/Ada_Drivers_Library/boards/stm32h743_nucleo/obj/sfp_lib_Debug/libada_drivers_library.a(stm32-device.o)
                0x0000000024000690                stm32__device__pe12
 .bss.stm32__device__pe13
                0x000000002400069c        0xc /home/badr/hackinvent/Ada_Drivers_Library/boards/stm32h743_nucleo/obj/sfp_lib_Debug/libada_drivers_library.a(stm32-device.o)
                0x000000002400069c                stm32__device__pe13
 .bss.stm32__device__pe14
                0x00000000240006a8        0xc /home/badr/hackinvent/Ada_Drivers_Library/boards/stm32h743_nucleo/obj/sfp_lib_Debug/libada_drivers_library.a(stm32-device.o)
                0x00000000240006a8                stm32__device__pe14
 .bss.stm32__device__pe15
                0x00000000240006b4        0xc /home/badr/hackinvent/Ada_Drivers_Library/boards/stm32h743_nucleo/obj/sfp_lib_Debug/libada_drivers_library.a(stm32-device.o)
                0x00000000240006b4                stm32__device__pe15
 .bss.stm32__device__pf0
                0x00000000240006c0        0xc /home/badr/hackinvent/Ada_Drivers_Library/boards/stm32h743_nucleo/obj/sfp_lib_Debug/libada_drivers_library.a(stm32-device.o)
                0x00000000240006c0                stm32__device(float *, )
 .bss.stm32__device__pf1
                0x00000000240006cc        0xc /home/badr/hackinvent/Ada_Drivers_Library/boards/stm32h743_nucleo/obj/sfp_lib_Debug/libada_drivers_library.a(stm32-device.o)
                0x00000000240006cc                stm32__device__pf1
 .bss.stm32__device__pf2
                0x00000000240006d8        0xc /home/badr/hackinvent/Ada_Drivers_Library/boards/stm32h743_nucleo/obj/sfp_lib_Debug/libada_drivers_library.a(stm32-device.o)
                0x00000000240006d8                stm32__device__pf2
 .bss.stm32__device__pf3
                0x00000000240006e4        0xc /home/badr/hackinvent/Ada_Drivers_Library/boards/stm32h743_nucleo/obj/sfp_lib_Debug/libada_drivers_library.a(stm32-device.o)
                0x00000000240006e4                stm32__device__pf3
 .bss.stm32__device__pf4
                0x00000000240006f0        0xc /home/badr/hackinvent/Ada_Drivers_Library/boards/stm32h743_nucleo/obj/sfp_lib_Debug/libada_drivers_library.a(stm32-device.o)
                0x00000000240006f0                stm32__device__pf4
 .bss.stm32__device__pf5
                0x00000000240006fc        0xc /home/badr/hackinvent/Ada_Drivers_Library/boards/stm32h743_nucleo/obj/sfp_lib_Debug/libada_drivers_library.a(stm32-device.o)
                0x00000000240006fc                stm32__device__pf5
 .bss.stm32__device__pf6
                0x0000000024000708        0xc /home/badr/hackinvent/Ada_Drivers_Library/boards/stm32h743_nucleo/obj/sfp_lib_Debug/libada_drivers_library.a(stm32-device.o)
                0x0000000024000708                stm32__device__pf6
 .bss.stm32__device__pf7
                0x0000000024000714        0xc /home/badr/hackinvent/Ada_Drivers_Library/boards/stm32h743_nucleo/obj/sfp_lib_Debug/libada_drivers_library.a(stm32-device.o)
                0x0000000024000714                stm32__device__pf7
 .bss.stm32__device__pf8
                0x0000000024000720        0xc /home/badr/hackinvent/Ada_Drivers_Library/boards/stm32h743_nucleo/obj/sfp_lib_Debug/libada_drivers_library.a(stm32-device.o)
                0x0000000024000720                stm32__device__pf8
 .bss.stm32__device__pf9
                0x000000002400072c        0xc /home/badr/hackinvent/Ada_Drivers_Library/boards/stm32h743_nucleo/obj/sfp_lib_Debug/libada_drivers_library.a(stm32-device.o)
                0x000000002400072c                stm32__device__pf9
 .bss.stm32__device__pf10
                0x0000000024000738        0xc /home/badr/hackinvent/Ada_Drivers_Library/boards/stm32h743_nucleo/obj/sfp_lib_Debug/libada_drivers_library.a(stm32-device.o)
                0x0000000024000738                stm32__device__pf10
 .bss.stm32__device__pf11
                0x0000000024000744        0xc /home/badr/hackinvent/Ada_Drivers_Library/boards/stm32h743_nucleo/obj/sfp_lib_Debug/libada_drivers_library.a(stm32-device.o)
                0x0000000024000744                stm32__device__pf11
 .bss.stm32__device__pf12
                0x0000000024000750        0xc /home/badr/hackinvent/Ada_Drivers_Library/boards/stm32h743_nucleo/obj/sfp_lib_Debug/libada_drivers_library.a(stm32-device.o)
                0x0000000024000750                stm32__device__pf12
 .bss.stm32__device__pf13
                0x000000002400075c        0xc /home/badr/hackinvent/Ada_Drivers_Library/boards/stm32h743_nucleo/obj/sfp_lib_Debug/libada_drivers_library.a(stm32-device.o)
                0x000000002400075c                stm32__device__pf13
 .bss.stm32__device__pf14
                0x0000000024000768        0xc /home/badr/hackinvent/Ada_Drivers_Library/boards/stm32h743_nucleo/obj/sfp_lib_Debug/libada_drivers_library.a(stm32-device.o)
                0x0000000024000768                stm32__device__pf14
 .bss.stm32__device__pf15
                0x0000000024000774        0xc /home/badr/hackinvent/Ada_Drivers_Library/boards/stm32h743_nucleo/obj/sfp_lib_Debug/libada_drivers_library.a(stm32-device.o)
                0x0000000024000774                stm32__device__pf15
 .bss.stm32__device__pg0
                0x0000000024000780        0xc /home/badr/hackinvent/Ada_Drivers_Library/boards/stm32h743_nucleo/obj/sfp_lib_Debug/libada_drivers_library.a(stm32-device.o)
                0x0000000024000780                stm32__device__pg0
 .bss.stm32__device__pg1
                0x000000002400078c        0xc /home/badr/hackinvent/Ada_Drivers_Library/boards/stm32h743_nucleo/obj/sfp_lib_Debug/libada_drivers_library.a(stm32-device.o)
                0x000000002400078c                stm32__device__pg1
 .bss.stm32__device__pg2
                0x0000000024000798        0xc /home/badr/hackinvent/Ada_Drivers_Library/boards/stm32h743_nucleo/obj/sfp_lib_Debug/libada_drivers_library.a(stm32-device.o)
                0x0000000024000798                stm32__device__pg2
 .bss.stm32__device__pg3
                0x00000000240007a4        0xc /home/badr/hackinvent/Ada_Drivers_Library/boards/stm32h743_nucleo/obj/sfp_lib_Debug/libada_drivers_library.a(stm32-device.o)
                0x00000000240007a4                stm32__device__pg3
 .bss.stm32__device__pg4
                0x00000000240007b0        0xc /home/badr/hackinvent/Ada_Drivers_Library/boards/stm32h743_nucleo/obj/sfp_lib_Debug/libada_drivers_library.a(stm32-device.o)
                0x00000000240007b0                stm32__device__pg4
 .bss.stm32__device__pg5
                0x00000000240007bc        0xc /home/badr/hackinvent/Ada_Drivers_Library/boards/stm32h743_nucleo/obj/sfp_lib_Debug/libada_drivers_library.a(stm32-device.o)
                0x00000000240007bc                stm32__device__pg5
 .bss.stm32__device__pg6
                0x00000000240007c8        0xc /home/badr/hackinvent/Ada_Drivers_Library/boards/stm32h743_nucleo/obj/sfp_lib_Debug/libada_drivers_library.a(stm32-device.o)
                0x00000000240007c8                stm32__device__pg6
 .bss.stm32__device__pg7
                0x00000000240007d4        0xc /home/badr/hackinvent/Ada_Drivers_Library/boards/stm32h743_nucleo/obj/sfp_lib_Debug/libada_drivers_library.a(stm32-device.o)
                0x00000000240007d4                stm32__device__pg7
 .bss.stm32__device__pg8
                0x00000000240007e0        0xc /home/badr/hackinvent/Ada_Drivers_Library/boards/stm32h743_nucleo/obj/sfp_lib_Debug/libada_drivers_library.a(stm32-device.o)
                0x00000000240007e0                stm32__device__pg8
 .bss.stm32__device__pg9
                0x00000000240007ec        0xc /home/badr/hackinvent/Ada_Drivers_Library/boards/stm32h743_nucleo/obj/sfp_lib_Debug/libada_drivers_library.a(stm32-device.o)
                0x00000000240007ec                stm32__device__pg9
 .bss.stm32__device__pg10
                0x00000000240007f8        0xc /home/badr/hackinvent/Ada_Drivers_Library/boards/stm32h743_nucleo/obj/sfp_lib_Debug/libada_drivers_library.a(stm32-device.o)
                0x00000000240007f8                stm32__device__pg10
 .bss.stm32__device__pg11
                0x0000000024000804        0xc /home/badr/hackinvent/Ada_Drivers_Library/boards/stm32h743_nucleo/obj/sfp_lib_Debug/libada_drivers_library.a(stm32-device.o)
                0x0000000024000804                stm32__device__pg11
 .bss.stm32__device__pg12
                0x0000000024000810        0xc /home/badr/hackinvent/Ada_Drivers_Library/boards/stm32h743_nucleo/obj/sfp_lib_Debug/libada_drivers_library.a(stm32-device.o)
                0x0000000024000810                stm32__device__pg12
 .bss.stm32__device__pg13
                0x000000002400081c        0xc /home/badr/hackinvent/Ada_Drivers_Library/boards/stm32h743_nucleo/obj/sfp_lib_Debug/libada_drivers_library.a(stm32-device.o)
                0x000000002400081c                stm32__device__pg13
 .bss.stm32__device__pg14
                0x0000000024000828        0xc /home/badr/hackinvent/Ada_Drivers_Library/boards/stm32h743_nucleo/obj/sfp_lib_Debug/libada_drivers_library.a(stm32-device.o)
                0x0000000024000828                stm32__device__pg14
 .bss.stm32__device__pg15
                0x0000000024000834        0xc /home/badr/hackinvent/Ada_Drivers_Library/boards/stm32h743_nucleo/obj/sfp_lib_Debug/libada_drivers_library.a(stm32-device.o)
                0x0000000024000834                stm32__device__pg15
 .bss.stm32__device__ph0
                0x0000000024000840        0xc /home/badr/hackinvent/Ada_Drivers_Library/boards/stm32h743_nucleo/obj/sfp_lib_Debug/libada_drivers_library.a(stm32-device.o)
                0x0000000024000840                stm32__device__ph0
 .bss.stm32__device__ph1
                0x000000002400084c        0xc /home/badr/hackinvent/Ada_Drivers_Library/boards/stm32h743_nucleo/obj/sfp_lib_Debug/libada_drivers_library.a(stm32-device.o)
                0x000000002400084c                stm32__device__ph1
 .bss.stm32__device__ph2
                0x0000000024000858        0xc /home/badr/hackinvent/Ada_Drivers_Library/boards/stm32h743_nucleo/obj/sfp_lib_Debug/libada_drivers_library.a(stm32-device.o)
                0x0000000024000858                stm32__device__ph2
 .bss.stm32__device__ph3
                0x0000000024000864        0xc /home/badr/hackinvent/Ada_Drivers_Library/boards/stm32h743_nucleo/obj/sfp_lib_Debug/libada_drivers_library.a(stm32-device.o)
                0x0000000024000864                stm32__device__ph3
 .bss.stm32__device__ph4
                0x0000000024000870        0xc /home/badr/hackinvent/Ada_Drivers_Library/boards/stm32h743_nucleo/obj/sfp_lib_Debug/libada_drivers_library.a(stm32-device.o)
                0x0000000024000870                stm32__device__ph4
 .bss.stm32__device__ph5
                0x000000002400087c        0xc /home/badr/hackinvent/Ada_Drivers_Library/boards/stm32h743_nucleo/obj/sfp_lib_Debug/libada_drivers_library.a(stm32-device.o)
                0x000000002400087c                stm32__device__ph5
 .bss.stm32__device__ph6
                0x0000000024000888        0xc /home/badr/hackinvent/Ada_Drivers_Library/boards/stm32h743_nucleo/obj/sfp_lib_Debug/libada_drivers_library.a(stm32-device.o)
                0x0000000024000888                stm32__device__ph6
 .bss.stm32__device__ph7
                0x0000000024000894        0xc /home/badr/hackinvent/Ada_Drivers_Library/boards/stm32h743_nucleo/obj/sfp_lib_Debug/libada_drivers_library.a(stm32-device.o)
                0x0000000024000894                stm32__device__ph7
 .bss.stm32__device__ph8
                0x00000000240008a0        0xc /home/badr/hackinvent/Ada_Drivers_Library/boards/stm32h743_nucleo/obj/sfp_lib_Debug/libada_drivers_library.a(stm32-device.o)
                0x00000000240008a0                stm32__device__ph8
 .bss.stm32__device__ph9
                0x00000000240008ac        0xc /home/badr/hackinvent/Ada_Drivers_Library/boards/stm32h743_nucleo/obj/sfp_lib_Debug/libada_drivers_library.a(stm32-device.o)
                0x00000000240008ac                stm32__device__ph9
 .bss.stm32__device__ph10
                0x00000000240008b8        0xc /home/badr/hackinvent/Ada_Drivers_Library/boards/stm32h743_nucleo/obj/sfp_lib_Debug/libada_drivers_library.a(stm32-device.o)
                0x00000000240008b8                stm32__device__ph10
 .bss.stm32__device__ph11
                0x00000000240008c4        0xc /home/badr/hackinvent/Ada_Drivers_Library/boards/stm32h743_nucleo/obj/sfp_lib_Debug/libada_drivers_library.a(stm32-device.o)
                0x00000000240008c4                stm32__device__ph11
 .bss.stm32__device__ph12
                0x00000000240008d0        0xc /home/badr/hackinvent/Ada_Drivers_Library/boards/stm32h743_nucleo/obj/sfp_lib_Debug/libada_drivers_library.a(stm32-device.o)
                0x00000000240008d0                stm32__device__ph12
 .bss.stm32__device__ph13
                0x00000000240008dc        0xc /home/badr/hackinvent/Ada_Drivers_Library/boards/stm32h743_nucleo/obj/sfp_lib_Debug/libada_drivers_library.a(stm32-device.o)
                0x00000000240008dc                stm32__device__ph13
 .bss.stm32__device__ph14
                0x00000000240008e8        0xc /home/badr/hackinvent/Ada_Drivers_Library/boards/stm32h743_nucleo/obj/sfp_lib_Debug/libada_drivers_library.a(stm32-device.o)
                0x00000000240008e8                stm32__device__ph14
 .bss.stm32__device__ph15
                0x00000000240008f4        0xc /home/badr/hackinvent/Ada_Drivers_Library/boards/stm32h743_nucleo/obj/sfp_lib_Debug/libada_drivers_library.a(stm32-device.o)
                0x00000000240008f4                stm32__device__ph15
 .bss.stm32__device__pi0
                0x0000000024000900        0xc /home/badr/hackinvent/Ada_Drivers_Library/boards/stm32h743_nucleo/obj/sfp_lib_Debug/libada_drivers_library.a(stm32-device.o)
                0x0000000024000900                stm32__device(int *, )
 .bss.stm32__device__pi1
                0x000000002400090c        0xc /home/badr/hackinvent/Ada_Drivers_Library/boards/stm32h743_nucleo/obj/sfp_lib_Debug/libada_drivers_library.a(stm32-device.o)
                0x000000002400090c                stm32__device__pi1
 .bss.stm32__device__pi2
                0x0000000024000918        0xc /home/badr/hackinvent/Ada_Drivers_Library/boards/stm32h743_nucleo/obj/sfp_lib_Debug/libada_drivers_library.a(stm32-device.o)
                0x0000000024000918                stm32__device__pi2
 .bss.stm32__device__pi3
                0x0000000024000924        0xc /home/badr/hackinvent/Ada_Drivers_Library/boards/stm32h743_nucleo/obj/sfp_lib_Debug/libada_drivers_library.a(stm32-device.o)
                0x0000000024000924                stm32__device__pi3
 .bss.stm32__device__pi4
                0x0000000024000930        0xc /home/badr/hackinvent/Ada_Drivers_Library/boards/stm32h743_nucleo/obj/sfp_lib_Debug/libada_drivers_library.a(stm32-device.o)
                0x0000000024000930                stm32__device__pi4
 .bss.stm32__device__pi5
                0x000000002400093c        0xc /home/badr/hackinvent/Ada_Drivers_Library/boards/stm32h743_nucleo/obj/sfp_lib_Debug/libada_drivers_library.a(stm32-device.o)
                0x000000002400093c                stm32__device__pi5
 .bss.stm32__device__pi6
                0x0000000024000948        0xc /home/badr/hackinvent/Ada_Drivers_Library/boards/stm32h743_nucleo/obj/sfp_lib_Debug/libada_drivers_library.a(stm32-device.o)
                0x0000000024000948                stm32__device__pi6
 .bss.stm32__device__pi7
                0x0000000024000954        0xc /home/badr/hackinvent/Ada_Drivers_Library/boards/stm32h743_nucleo/obj/sfp_lib_Debug/libada_drivers_library.a(stm32-device.o)
                0x0000000024000954                stm32__device__pi7
 .bss.stm32__device__pi8
                0x0000000024000960        0xc /home/badr/hackinvent/Ada_Drivers_Library/boards/stm32h743_nucleo/obj/sfp_lib_Debug/libada_drivers_library.a(stm32-device.o)
                0x0000000024000960                stm32__device__pi8
 .bss.stm32__device__pi9
                0x000000002400096c        0xc /home/badr/hackinvent/Ada_Drivers_Library/boards/stm32h743_nucleo/obj/sfp_lib_Debug/libada_drivers_library.a(stm32-device.o)
                0x000000002400096c                stm32__device__pi9
 .bss.stm32__device__pi10
                0x0000000024000978        0xc /home/badr/hackinvent/Ada_Drivers_Library/boards/stm32h743_nucleo/obj/sfp_lib_Debug/libada_drivers_library.a(stm32-device.o)
                0x0000000024000978                stm32__device__pi10
 .bss.stm32__device__pi11
                0x0000000024000984        0xc /home/badr/hackinvent/Ada_Drivers_Library/boards/stm32h743_nucleo/obj/sfp_lib_Debug/libada_drivers_library.a(stm32-device.o)
                0x0000000024000984                stm32__device__pi11
 .bss.stm32__device__pi12
                0x0000000024000990        0xc /home/badr/hackinvent/Ada_Drivers_Library/boards/stm32h743_nucleo/obj/sfp_lib_Debug/libada_drivers_library.a(stm32-device.o)
                0x0000000024000990                stm32__device__pi12
 .bss.stm32__device__pi13
                0x000000002400099c        0xc /home/badr/hackinvent/Ada_Drivers_Library/boards/stm32h743_nucleo/obj/sfp_lib_Debug/libada_drivers_library.a(stm32-device.o)
                0x000000002400099c                stm32__device__pi13
 .bss.stm32__device__pi14
                0x00000000240009a8        0xc /home/badr/hackinvent/Ada_Drivers_Library/boards/stm32h743_nucleo/obj/sfp_lib_Debug/libada_drivers_library.a(stm32-device.o)
                0x00000000240009a8                stm32__device__pi14
 .bss.stm32__device__pi15
                0x00000000240009b4        0xc /home/badr/hackinvent/Ada_Drivers_Library/boards/stm32h743_nucleo/obj/sfp_lib_Debug/libada_drivers_library.a(stm32-device.o)
                0x00000000240009b4                stm32__device__pi15
 .bss.stm32__device__pj0
                0x00000000240009c0        0xc /home/badr/hackinvent/Ada_Drivers_Library/boards/stm32h743_nucleo/obj/sfp_lib_Debug/libada_drivers_library.a(stm32-device.o)
                0x00000000240009c0                stm32__device__pj0
 .bss.stm32__device__pj1
                0x00000000240009cc        0xc /home/badr/hackinvent/Ada_Drivers_Library/boards/stm32h743_nucleo/obj/sfp_lib_Debug/libada_drivers_library.a(stm32-device.o)
                0x00000000240009cc                stm32__device__pj1
 .bss.stm32__device__pj2
                0x00000000240009d8        0xc /home/badr/hackinvent/Ada_Drivers_Library/boards/stm32h743_nucleo/obj/sfp_lib_Debug/libada_drivers_library.a(stm32-device.o)
                0x00000000240009d8                stm32__device__pj2
 .bss.stm32__device__pj3
                0x00000000240009e4        0xc /home/badr/hackinvent/Ada_Drivers_Library/boards/stm32h743_nucleo/obj/sfp_lib_Debug/libada_drivers_library.a(stm32-device.o)
                0x00000000240009e4                stm32__device__pj3
 .bss.stm32__device__pj4
                0x00000000240009f0        0xc /home/badr/hackinvent/Ada_Drivers_Library/boards/stm32h743_nucleo/obj/sfp_lib_Debug/libada_drivers_library.a(stm32-device.o)
                0x00000000240009f0                stm32__device__pj4
 .bss.stm32__device__pj5
                0x00000000240009fc        0xc /home/badr/hackinvent/Ada_Drivers_Library/boards/stm32h743_nucleo/obj/sfp_lib_Debug/libada_drivers_library.a(stm32-device.o)
                0x00000000240009fc                stm32__device__pj5
 .bss.stm32__device__pj6
                0x0000000024000a08        0xc /home/badr/hackinvent/Ada_Drivers_Library/boards/stm32h743_nucleo/obj/sfp_lib_Debug/libada_drivers_library.a(stm32-device.o)
                0x0000000024000a08                stm32__device__pj6
 .bss.stm32__device__pj7
                0x0000000024000a14        0xc /home/badr/hackinvent/Ada_Drivers_Library/boards/stm32h743_nucleo/obj/sfp_lib_Debug/libada_drivers_library.a(stm32-device.o)
                0x0000000024000a14                stm32__device__pj7
 .bss.stm32__device__pj8
                0x0000000024000a20        0xc /home/badr/hackinvent/Ada_Drivers_Library/boards/stm32h743_nucleo/obj/sfp_lib_Debug/libada_drivers_library.a(stm32-device.o)
                0x0000000024000a20                stm32__device__pj8
 .bss.stm32__device__pj9
                0x0000000024000a2c        0xc /home/badr/hackinvent/Ada_Drivers_Library/boards/stm32h743_nucleo/obj/sfp_lib_Debug/libada_drivers_library.a(stm32-device.o)
                0x0000000024000a2c                stm32__device__pj9
 .bss.stm32__device__pj10
                0x0000000024000a38        0xc /home/badr/hackinvent/Ada_Drivers_Library/boards/stm32h743_nucleo/obj/sfp_lib_Debug/libada_drivers_library.a(stm32-device.o)
                0x0000000024000a38                stm32__device__pj10
 .bss.stm32__device__pj11
                0x0000000024000a44        0xc /home/badr/hackinvent/Ada_Drivers_Library/boards/stm32h743_nucleo/obj/sfp_lib_Debug/libada_drivers_library.a(stm32-device.o)
                0x0000000024000a44                stm32__device__pj11
 .bss.stm32__device__pj12
                0x0000000024000a50        0xc /home/badr/hackinvent/Ada_Drivers_Library/boards/stm32h743_nucleo/obj/sfp_lib_Debug/libada_drivers_library.a(stm32-device.o)
                0x0000000024000a50                stm32__device__pj12
 .bss.stm32__device__pj13
                0x0000000024000a5c        0xc /home/badr/hackinvent/Ada_Drivers_Library/boards/stm32h743_nucleo/obj/sfp_lib_Debug/libada_drivers_library.a(stm32-device.o)
                0x0000000024000a5c                stm32__device__pj13
 .bss.stm32__device__pj14
                0x0000000024000a68        0xc /home/badr/hackinvent/Ada_Drivers_Library/boards/stm32h743_nucleo/obj/sfp_lib_Debug/libada_drivers_library.a(stm32-device.o)
                0x0000000024000a68                stm32__device__pj14
 .bss.stm32__device__pj15
                0x0000000024000a74        0xc /home/badr/hackinvent/Ada_Drivers_Library/boards/stm32h743_nucleo/obj/sfp_lib_Debug/libada_drivers_library.a(stm32-device.o)
                0x0000000024000a74                stm32__device__pj15
 .bss.stm32__device__pk0
                0x0000000024000a80        0xc /home/badr/hackinvent/Ada_Drivers_Library/boards/stm32h743_nucleo/obj/sfp_lib_Debug/libada_drivers_library.a(stm32-device.o)
                0x0000000024000a80                stm32__device__pk0
 .bss.stm32__device__pk1
                0x0000000024000a8c        0xc /home/badr/hackinvent/Ada_Drivers_Library/boards/stm32h743_nucleo/obj/sfp_lib_Debug/libada_drivers_library.a(stm32-device.o)
                0x0000000024000a8c                stm32__device__pk1
 .bss.stm32__device__pk2
                0x0000000024000a98        0xc /home/badr/hackinvent/Ada_Drivers_Library/boards/stm32h743_nucleo/obj/sfp_lib_Debug/libada_drivers_library.a(stm32-device.o)
                0x0000000024000a98                stm32__device__pk2
 .bss.stm32__device__pk3
                0x0000000024000aa4        0xc /home/badr/hackinvent/Ada_Drivers_Library/boards/stm32h743_nucleo/obj/sfp_lib_Debug/libada_drivers_library.a(stm32-device.o)
                0x0000000024000aa4                stm32__device__pk3
 .bss.stm32__device__pk4
                0x0000000024000ab0        0xc /home/badr/hackinvent/Ada_Drivers_Library/boards/stm32h743_nucleo/obj/sfp_lib_Debug/libada_drivers_library.a(stm32-device.o)
                0x0000000024000ab0                stm32__device__pk4
 .bss.stm32__device__pk5
                0x0000000024000abc        0xc /home/badr/hackinvent/Ada_Drivers_Library/boards/stm32h743_nucleo/obj/sfp_lib_Debug/libada_drivers_library.a(stm32-device.o)
                0x0000000024000abc                stm32__device__pk5
 .bss.stm32__device__pk6
                0x0000000024000ac8        0xc /home/badr/hackinvent/Ada_Drivers_Library/boards/stm32h743_nucleo/obj/sfp_lib_Debug/libada_drivers_library.a(stm32-device.o)
                0x0000000024000ac8                stm32__device__pk6
 .bss.stm32__device__pk7
                0x0000000024000ad4        0xc /home/badr/hackinvent/Ada_Drivers_Library/boards/stm32h743_nucleo/obj/sfp_lib_Debug/libada_drivers_library.a(stm32-device.o)
                0x0000000024000ad4                stm32__device__pk7
 .bss.stm32__device__pk8
                0x0000000024000ae0        0xc /home/badr/hackinvent/Ada_Drivers_Library/boards/stm32h743_nucleo/obj/sfp_lib_Debug/libada_drivers_library.a(stm32-device.o)
                0x0000000024000ae0                stm32__device__pk8
 .bss.stm32__device__pk9
                0x0000000024000aec        0xc /home/badr/hackinvent/Ada_Drivers_Library/boards/stm32h743_nucleo/obj/sfp_lib_Debug/libada_drivers_library.a(stm32-device.o)
                0x0000000024000aec                stm32__device__pk9
 .bss.stm32__device__pk10
                0x0000000024000af8        0xc /home/badr/hackinvent/Ada_Drivers_Library/boards/stm32h743_nucleo/obj/sfp_lib_Debug/libada_drivers_library.a(stm32-device.o)
                0x0000000024000af8                stm32__device__pk10
 .bss.stm32__device__pk11
                0x0000000024000b04        0xc /home/badr/hackinvent/Ada_Drivers_Library/boards/stm32h743_nucleo/obj/sfp_lib_Debug/libada_drivers_library.a(stm32-device.o)
                0x0000000024000b04                stm32__device__pk11
 .bss.stm32__device__pk12
                0x0000000024000b10        0xc /home/badr/hackinvent/Ada_Drivers_Library/boards/stm32h743_nucleo/obj/sfp_lib_Debug/libada_drivers_library.a(stm32-device.o)
                0x0000000024000b10                stm32__device__pk12
 .bss.stm32__device__pk13
                0x0000000024000b1c        0xc /home/badr/hackinvent/Ada_Drivers_Library/boards/stm32h743_nucleo/obj/sfp_lib_Debug/libada_drivers_library.a(stm32-device.o)
                0x0000000024000b1c                stm32__device__pk13
 .bss.stm32__device__pk14
                0x0000000024000b28        0xc /home/badr/hackinvent/Ada_Drivers_Library/boards/stm32h743_nucleo/obj/sfp_lib_Debug/libada_drivers_library.a(stm32-device.o)
                0x0000000024000b28                stm32__device__pk14
 .bss.stm32__device__pk15
                0x0000000024000b34        0xc /home/badr/hackinvent/Ada_Drivers_Library/boards/stm32h743_nucleo/obj/sfp_lib_Debug/libada_drivers_library.a(stm32-device.o)
                0x0000000024000b34                stm32__device__pk15
 .bss.stm32__device__sysfreq
                0x0000000024000b40       0x1c /home/badr/hackinvent/Ada_Drivers_Library/boards/stm32h743_nucleo/obj/sfp_lib_Debug/libada_drivers_library.a(stm32-device.o)
                0x0000000024000b40                stm32__device__sysfreq
 .bss           0x0000000024000b5c        0x0 /home/badr/hackinvent/Ada_Drivers_Library/boards/stm32h743_nucleo/obj/sfp_lib_Debug/libada_drivers_library.a(stm32-exti.o)
 .bss           0x0000000024000b5c        0x0 /home/badr/hackinvent/Ada_Drivers_Library/boards/stm32h743_nucleo/obj/sfp_lib_Debug/libada_drivers_library.a(stm32-gpio.o)
 .bss           0x0000000024000b5c        0x0 /home/badr/hackinvent/Ada_Drivers_Library/boards/stm32h743_nucleo/obj/sfp_lib_Debug/libada_drivers_library.a(stm32-rcc.o)
 .bss           0x0000000024000b5c        0x0 /home/badr/hackinvent/Ada_Drivers_Library/boards/stm32h743_nucleo/obj/sfp_lib_Debug/libada_drivers_library.a(stm32-syscfg.o)
 .bss           0x0000000024000b5c        0x0 /home/badr/hackinvent/Ada_Drivers_Library/boards/stm32h743_nucleo/obj/sfp_lib_Debug/libada_drivers_library.a(hal-gpio.o)
 .bss           0x0000000024000b5c        0x0 /home/badr/GNAT/2018-arm-elf/arm-eabi/lib/gnat/ravenscar-sfp-stm32h743nucleo/adalib/libgnarl.a(a-reatim.o)
 .bss           0x0000000024000b5c        0x0 /home/badr/GNAT/2018-arm-elf/arm-eabi/lib/gnat/ravenscar-sfp-stm32h743nucleo/adalib/libgnarl.a(a-retide.o)
 .bss           0x0000000024000b5c        0x0 /home/badr/GNAT/2018-arm-elf/arm-eabi/lib/gnat/ravenscar-sfp-stm32h743nucleo/adalib/libgnarl.a(s-bbtiev.o)
 .bss           0x0000000024000b5c        0x0 /home/badr/GNAT/2018-arm-elf/arm-eabi/lib/gnat/ravenscar-sfp-stm32h743nucleo/adalib/libgnarl.a(s-bbtime.o)
 .bss           0x0000000024000b5c        0x0 /home/badr/GNAT/2018-arm-elf/arm-eabi/lib/gnat/ravenscar-sfp-stm32h743nucleo/adalib/libgnarl.a(s-taprop.o)
 *fill*         0x0000000024000b5c        0x4 
 .bss.system__task_primitives__operations__idle_stacks
                0x0000000024000b60      0x800 /home/badr/GNAT/2018-arm-elf/arm-eabi/lib/gnat/ravenscar-sfp-stm32h743nucleo/adalib/libgnarl.a(s-taprop.o)
                0x0000000024000b60                system__task_primitives__operations__idle_stacks
 .bss.__gnat_idle_stack_table
                0x0000000024001360        0x4 /home/badr/GNAT/2018-arm-elf/arm-eabi/lib/gnat/ravenscar-sfp-stm32h743nucleo/adalib/libgnarl.a(s-taprop.o)
                0x0000000024001360                __gnat_idle_stack_table
 *fill*         0x0000000024001364        0x4 
 .bss.system__task_primitives__operations__idle_tasks
                0x0000000024001368       0xb8 /home/badr/GNAT/2018-arm-elf/arm-eabi/lib/gnat/ravenscar-sfp-stm32h743nucleo/adalib/libgnarl.a(s-taprop.o)
                0x0000000024001368                system__task_primitives__operations__idle_tasks
 .bss           0x0000000024001420        0x0 /home/badr/GNAT/2018-arm-elf/arm-eabi/lib/gnat/ravenscar-sfp-stm32h743nucleo/adalib/libgnarl.a(s-tasdeb.o)
 .bss           0x0000000024001420        0x0 /home/badr/GNAT/2018-arm-elf/arm-eabi/lib/gnat/ravenscar-sfp-stm32h743nucleo/adalib/libgnarl.a(s-taskin.o)
 .bss.system__tasking__environment_task
                0x0000000024001420       0xb8 /home/badr/GNAT/2018-arm-elf/arm-eabi/lib/gnat/ravenscar-sfp-stm32h743nucleo/adalib/libgnarl.a(s-taskin.o)
 .bss           0x00000000240014d8        0x0 /home/badr/GNAT/2018-arm-elf/arm-eabi/lib/gnat/ravenscar-sfp-stm32h743nucleo/adalib/libgnarl.a(s-bbbosu.o)
 .bss.__gnat_alarm_time
                0x00000000240014d8        0x4 /home/badr/GNAT/2018-arm-elf/arm-eabi/lib/gnat/ravenscar-sfp-stm32h743nucleo/adalib/libgnarl.a(s-bbbosu.o)
                0x00000000240014d8                __gnat_alarm_time
 .bss.system__bb__board_support__next_tick_time
                0x00000000240014dc        0x4 /home/badr/GNAT/2018-arm-elf/arm-eabi/lib/gnat/ravenscar-sfp-stm32h743nucleo/adalib/libgnarl.a(s-bbbosu.o)
                0x00000000240014dc                system__bb__board_support__next_tick_time
 .bss           0x00000000240014e0        0x0 /home/badr/GNAT/2018-arm-elf/arm-eabi/lib/gnat/ravenscar-sfp-stm32h743nucleo/adalib/libgnarl.a(s-bbcppr.o)
 .bss.__gnat_bb_exception_handlers
                0x00000000240014e0       0x44 /home/badr/GNAT/2018-arm-elf/arm-eabi/lib/gnat/ravenscar-sfp-stm32h743nucleo/adalib/libgnarl.a(s-bbcppr.o)
                0x00000000240014e0                __gnat_bb_exception_handlers
 .bss           0x0000000024001524        0x0 /home/badr/GNAT/2018-arm-elf/arm-eabi/lib/gnat/ravenscar-sfp-stm32h743nucleo/adalib/libgnarl.a(s-bbinte.o)
 .bss.interrupt_stack_table
                0x0000000024001524        0x4 /home/badr/GNAT/2018-arm-elf/arm-eabi/lib/gnat/ravenscar-sfp-stm32h743nucleo/adalib/libgnarl.a(s-bbinte.o)
                0x0000000024001524                interrupt_stack_table
 .bss.system__bb__interrupts__interrupt_handlers_table
                0x0000000024001528      0x25c /home/badr/GNAT/2018-arm-elf/arm-eabi/lib/gnat/ravenscar-sfp-stm32h743nucleo/adalib/libgnarl.a(s-bbinte.o)
                0x0000000024001528                system__bb__interrupts__interrupt_handlers_table
 .bss           0x0000000024001784        0x0 /home/badr/GNAT/2018-arm-elf/arm-eabi/lib/gnat/ravenscar-sfp-stm32h743nucleo/adalib/libgnarl.a(s-bbprot.o)
 .bss           0x0000000024001784        0x0 /home/badr/GNAT/2018-arm-elf/arm-eabi/lib/gnat/ravenscar-sfp-stm32h743nucleo/adalib/libgnarl.a(s-bbthqu.o)
 .bss           0x0000000024001784        0x0 /home/badr/GNAT/2018-arm-elf/arm-eabi/lib/gnat/ravenscar-sfp-stm32h743nucleo/adalib/libgnarl.a(s-bbthre.o)
 .bss           0x0000000024001784        0x0 /home/badr/GNAT/2018-arm-elf/arm-eabi/lib/gnat/ravenscar-sfp-stm32h743nucleo/adalib/libgnarl.a(s-bcpcst.o)
 .bss           0x0000000024001784        0x0 /home/badr/GNAT/2018-arm-elf/arm-eabi/lib/gnat/ravenscar-sfp-stm32h743nucleo/adalib/libgnarl.a(handler.o)
 .bss           0x0000000024001784        0x0 /home/badr/GNAT/2018-arm-elf/arm-eabi/lib/gnat/ravenscar-sfp-stm32h743nucleo/adalib/libgnat.a(a-elchha.o)
 .bss           0x0000000024001784        0x0 /home/badr/GNAT/2018-arm-elf/arm-eabi/lib/gnat/ravenscar-sfp-stm32h743nucleo/adalib/libgnat.a(a-except.o)
 .bss           0x0000000024001784        0x0 /home/badr/GNAT/2018-arm-elf/arm-eabi/lib/gnat/ravenscar-sfp-stm32h743nucleo/adalib/libgnat.a(breakpoint_handler-cortexm.o)
 .bss           0x0000000024001784        0x0 /home/badr/GNAT/2018-arm-elf/arm-eabi/lib/gnat/ravenscar-sfp-stm32h743nucleo/adalib/libgnat.a(g-io.o)
 .bss           0x0000000024001784        0x0 /home/badr/GNAT/2018-arm-elf/arm-eabi/lib/gnat/ravenscar-sfp-stm32h743nucleo/adalib/libgnat.a(s-assert.o)
 .bss           0x0000000024001784        0x0 /home/badr/GNAT/2018-arm-elf/arm-eabi/lib/gnat/ravenscar-sfp-stm32h743nucleo/adalib/libgnat.a(s-macres.o)
 .bss           0x0000000024001784        0x0 /home/badr/GNAT/2018-arm-elf/arm-eabi/lib/gnat/ravenscar-sfp-stm32h743nucleo/adalib/libgnat.a(s-memcop.o)
 .bss           0x0000000024001784        0x0 /home/badr/GNAT/2018-arm-elf/arm-eabi/lib/gnat/ravenscar-sfp-stm32h743nucleo/adalib/libgnat.a(s-memset.o)
 .bss           0x0000000024001784        0x0 /home/badr/GNAT/2018-arm-elf/arm-eabi/lib/gnat/ravenscar-sfp-stm32h743nucleo/adalib/libgnat.a(s-parame.o)
 .bss           0x0000000024001784        0x0 /home/badr/GNAT/2018-arm-elf/arm-eabi/lib/gnat/ravenscar-sfp-stm32h743nucleo/adalib/libgnat.a(s-secsta.o)
 .bss.system__secondary_stack__ss_pool
                0x0000000024001784        0x4 /home/badr/GNAT/2018-arm-elf/arm-eabi/lib/gnat/ravenscar-sfp-stm32h743nucleo/adalib/libgnat.a(s-secsta.o)
                0x0000000024001784                system__secondary_stack__ss_pool
 .bss.__gnat_binder_ss_count
                0x0000000024001788        0x4 /home/badr/GNAT/2018-arm-elf/arm-eabi/lib/gnat/ravenscar-sfp-stm32h743nucleo/adalib/libgnat.a(s-secsta.o)
                0x0000000024001788                __gnat_binder_ss_count
 .bss.__gnat_default_ss_size
                0x000000002400178c        0x4 /home/badr/GNAT/2018-arm-elf/arm-eabi/lib/gnat/ravenscar-sfp-stm32h743nucleo/adalib/libgnat.a(s-secsta.o)
                0x000000002400178c                __gnat_default_ss_size
 .bss.__gnat_default_ss_pool
                0x0000000024001790        0x4 /home/badr/GNAT/2018-arm-elf/arm-eabi/lib/gnat/ravenscar-sfp-stm32h743nucleo/adalib/libgnat.a(s-secsta.o)
                0x0000000024001790                __gnat_default_ss_pool
 .bss           0x0000000024001794        0x0 /home/badr/GNAT/2018-arm-elf/arm-eabi/lib/gnat/ravenscar-sfp-stm32h743nucleo/adalib/libgnat.a(s-textio.o)
 .bss           0x0000000024001794        0x0 /home/badr/GNAT/2018-arm-elf/arm-eabi/lib/gnat/ravenscar-sfp-stm32h743nucleo/adalib/libgnat.a(start-rom.o)
 .bss           0x0000000024001794        0x0 /home/badr/GNAT/2018-arm-elf/arm-eabi/lib/gnat/ravenscar-sfp-stm32h743nucleo/adalib/libgnat.a(s-semiho.o)
 .bss.system__semihosting__buffer
                0x0000000024001794       0x80 /home/badr/GNAT/2018-arm-elf/arm-eabi/lib/gnat/ravenscar-sfp-stm32h743nucleo/adalib/libgnat.a(s-semiho.o)
 .bss           0x0000000024001814        0x0 /home/badr/GNAT/2018-arm-elf/arm-eabi/lib/gnat/ravenscar-sfp-stm32h743nucleo/adalib/libgnat.a(start-common.o)
 .bss           0x0000000024001814        0x0 /home/badr/GNAT/2018-arm-elf/bin/../lib/gcc/arm-eabi/7.3.1/thumb/v7e-m/fpv5/hard/libgcc.a(_aeabi_ldivmod.o)
 .bss           0x0000000024001814        0x0 /home/badr/GNAT/2018-arm-elf/bin/../lib/gcc/arm-eabi/7.3.1/thumb/v7e-m/fpv5/hard/libgcc.a(_aeabi_uldivmod.o)
 .bss           0x0000000024001814        0x0 /home/badr/GNAT/2018-arm-elf/bin/../lib/gcc/arm-eabi/7.3.1/thumb/v7e-m/fpv5/hard/libgcc.a(_udivmoddi4.o)
 .bss           0x0000000024001814        0x0 /home/badr/GNAT/2018-arm-elf/bin/../lib/gcc/arm-eabi/7.3.1/thumb/v7e-m/fpv5/hard/libgcc.a(_dvmd_tls.o)
 *(COMMON)
                0x0000000024001818                . = ALIGN (0x8)
 *fill*         0x0000000024001814        0x4 
                0x0000000024001818                __bss_end = .
                0x0000000024001818                __interrupt_stack_start = .
 *(.interrupt_stacks)
 .interrupt_stacks
                0x0000000024001818      0x800 /home/badr/GNAT/2018-arm-elf/arm-eabi/lib/gnat/ravenscar-sfp-stm32h743nucleo/adalib/libgnarl.a(s-bbinte.o)
                0x0000000024001818                system__bb__interrupts__interrupt_stacks
                0x0000000024002018                . = ALIGN (0x8)
                0x0000000024002018                __interrupt_stack_end = .
                0x0000000024002018                __stack_start = .
                0x0000000024003018                . = (. + DEFINED (__stack_size)?__stack_size:_DEFAULT_STACK_SIZE)
 *fill*         0x0000000024002018     0x1000 
                0x0000000024003018                . = ALIGN (0x8)
                0x0000000024003018                __stack_end = .
                0x0000000024003018                _end = .
                0x0000000024003018                __heap_start = .
                0x0000000024080000                __heap_end = (ORIGIN (sram_bs) + LENGTH (sram_bs))
                0x00000000000005ca                __bss_words = ((__bss_end - __bss_start) >> 0x2)

.debug
 *(.debug)

.line
 *(.line)

.debug_srcinfo
 *(.debug_srcinfo)

.debug_sfnames
 *(.debug_sfnames)

.debug_aranges  0x0000000000000000      0xaa8
 *(.debug_aranges)
 .debug_aranges
                0x0000000000000000       0x68 /home/badr/hackinvent/Ada_Drivers_Library/boards/stm32h743_nucleo/obj/sfp_lib_Debug/libada_drivers_library.a(stm32-device.o)
 .debug_aranges
                0x0000000000000068       0x50 /home/badr/hackinvent/Ada_Drivers_Library/boards/stm32h743_nucleo/obj/sfp_lib_Debug/libada_drivers_library.a(stm32-exti.o)
 .debug_aranges
                0x00000000000000b8       0xf8 /home/badr/hackinvent/Ada_Drivers_Library/boards/stm32h743_nucleo/obj/sfp_lib_Debug/libada_drivers_library.a(stm32-gpio.o)
 .debug_aranges
                0x00000000000001b0       0x20 /home/badr/hackinvent/Ada_Drivers_Library/boards/stm32h743_nucleo/obj/sfp_lib_Debug/libada_drivers_library.a(stm32-rcc.o)
 .debug_aranges
                0x00000000000001d0       0x40 /home/badr/hackinvent/Ada_Drivers_Library/boards/stm32h743_nucleo/obj/sfp_lib_Debug/libada_drivers_library.a(stm32-syscfg.o)
 .debug_aranges
                0x0000000000000210       0x18 /home/badr/hackinvent/Ada_Drivers_Library/boards/stm32h743_nucleo/obj/sfp_lib_Debug/libada_drivers_library.a(hal-gpio.o)
 .debug_aranges
                0x0000000000000228       0xd8 /home/badr/GNAT/2018-arm-elf/arm-eabi/lib/gnat/ravenscar-sfp-stm32h743nucleo/adalib/libgnarl.a(a-reatim.o)
 .debug_aranges
                0x0000000000000300       0x28 /home/badr/GNAT/2018-arm-elf/arm-eabi/lib/gnat/ravenscar-sfp-stm32h743nucleo/adalib/libgnarl.a(a-retide.o)
 .debug_aranges
                0x0000000000000328       0x58 /home/badr/GNAT/2018-arm-elf/arm-eabi/lib/gnat/ravenscar-sfp-stm32h743nucleo/adalib/libgnarl.a(s-bbtiev.o)
 .debug_aranges
                0x0000000000000380       0x60 /home/badr/GNAT/2018-arm-elf/arm-eabi/lib/gnat/ravenscar-sfp-stm32h743nucleo/adalib/libgnarl.a(s-bbtime.o)
 .debug_aranges
                0x00000000000003e0       0xa8 /home/badr/GNAT/2018-arm-elf/arm-eabi/lib/gnat/ravenscar-sfp-stm32h743nucleo/adalib/libgnarl.a(s-taprop.o)
 .debug_aranges
                0x0000000000000488       0x20 /home/badr/GNAT/2018-arm-elf/arm-eabi/lib/gnat/ravenscar-sfp-stm32h743nucleo/adalib/libgnarl.a(s-tasdeb.o)
 .debug_aranges
                0x00000000000004a8       0x40 /home/badr/GNAT/2018-arm-elf/arm-eabi/lib/gnat/ravenscar-sfp-stm32h743nucleo/adalib/libgnarl.a(s-taskin.o)
 .debug_aranges
                0x00000000000004e8       0xb0 /home/badr/GNAT/2018-arm-elf/arm-eabi/lib/gnat/ravenscar-sfp-stm32h743nucleo/adalib/libgnarl.a(s-bbbosu.o)
 .debug_aranges
                0x0000000000000598       0x88 /home/badr/GNAT/2018-arm-elf/arm-eabi/lib/gnat/ravenscar-sfp-stm32h743nucleo/adalib/libgnarl.a(s-bbcppr.o)
 .debug_aranges
                0x0000000000000620       0x40 /home/badr/GNAT/2018-arm-elf/arm-eabi/lib/gnat/ravenscar-sfp-stm32h743nucleo/adalib/libgnarl.a(s-bbinte.o)
 .debug_aranges
                0x0000000000000660       0x28 /home/badr/GNAT/2018-arm-elf/arm-eabi/lib/gnat/ravenscar-sfp-stm32h743nucleo/adalib/libgnarl.a(s-bbprot.o)
 .debug_aranges
                0x0000000000000688       0x78 /home/badr/GNAT/2018-arm-elf/arm-eabi/lib/gnat/ravenscar-sfp-stm32h743nucleo/adalib/libgnarl.a(s-bbthqu.o)
 .debug_aranges
                0x0000000000000700       0x80 /home/badr/GNAT/2018-arm-elf/arm-eabi/lib/gnat/ravenscar-sfp-stm32h743nucleo/adalib/libgnarl.a(s-bbthre.o)
 .debug_aranges
                0x0000000000000780       0x30 /home/badr/GNAT/2018-arm-elf/arm-eabi/lib/gnat/ravenscar-sfp-stm32h743nucleo/adalib/libgnarl.a(s-bcpcst.o)
 .debug_aranges
                0x00000000000007b0       0x20 /home/badr/GNAT/2018-arm-elf/arm-eabi/lib/gnat/ravenscar-sfp-stm32h743nucleo/adalib/libgnarl.a(handler.o)
 .debug_aranges
                0x00000000000007d0       0x28 /home/badr/GNAT/2018-arm-elf/arm-eabi/lib/gnat/ravenscar-sfp-stm32h743nucleo/adalib/libgnat.a(a-elchha.o)
 .debug_aranges
                0x00000000000007f8       0x18 /home/badr/GNAT/2018-arm-elf/arm-eabi/lib/gnat/ravenscar-sfp-stm32h743nucleo/adalib/libgnat.a(a-except.o)
 .debug_aranges
                0x0000000000000810       0x20 /home/badr/GNAT/2018-arm-elf/arm-eabi/lib/gnat/ravenscar-sfp-stm32h743nucleo/adalib/libgnat.a(breakpoint_handler-cortexm.o)
 .debug_aranges
                0x0000000000000830       0x40 /home/badr/GNAT/2018-arm-elf/arm-eabi/lib/gnat/ravenscar-sfp-stm32h743nucleo/adalib/libgnat.a(g-io.o)
 .debug_aranges
                0x0000000000000870       0x20 /home/badr/GNAT/2018-arm-elf/arm-eabi/lib/gnat/ravenscar-sfp-stm32h743nucleo/adalib/libgnat.a(s-assert.o)
 .debug_aranges
                0x0000000000000890       0x30 /home/badr/GNAT/2018-arm-elf/arm-eabi/lib/gnat/ravenscar-sfp-stm32h743nucleo/adalib/libgnat.a(s-macres.o)
 .debug_aranges
                0x00000000000008c0       0x20 /home/badr/GNAT/2018-arm-elf/arm-eabi/lib/gnat/ravenscar-sfp-stm32h743nucleo/adalib/libgnat.a(s-memcop.o)
 .debug_aranges
                0x00000000000008e0       0x20 /home/badr/GNAT/2018-arm-elf/arm-eabi/lib/gnat/ravenscar-sfp-stm32h743nucleo/adalib/libgnat.a(s-memset.o)
 .debug_aranges
                0x0000000000000900       0x20 /home/badr/GNAT/2018-arm-elf/arm-eabi/lib/gnat/ravenscar-sfp-stm32h743nucleo/adalib/libgnat.a(s-parame.o)
 .debug_aranges
                0x0000000000000920       0x40 /home/badr/GNAT/2018-arm-elf/arm-eabi/lib/gnat/ravenscar-sfp-stm32h743nucleo/adalib/libgnat.a(s-secsta.o)
 .debug_aranges
                0x0000000000000960       0x48 /home/badr/GNAT/2018-arm-elf/arm-eabi/lib/gnat/ravenscar-sfp-stm32h743nucleo/adalib/libgnat.a(s-textio.o)
 .debug_aranges
                0x00000000000009a8       0x20 /home/badr/GNAT/2018-arm-elf/arm-eabi/lib/gnat/ravenscar-sfp-stm32h743nucleo/adalib/libgnat.a(start-rom.o)
 .debug_aranges
                0x00000000000009c8       0x40 /home/badr/GNAT/2018-arm-elf/arm-eabi/lib/gnat/ravenscar-sfp-stm32h743nucleo/adalib/libgnat.a(s-semiho.o)
 .debug_aranges
                0x0000000000000a08       0x20 /home/badr/GNAT/2018-arm-elf/arm-eabi/lib/gnat/ravenscar-sfp-stm32h743nucleo/adalib/libgnat.a(start-common.o)
 .debug_aranges
                0x0000000000000a28       0x20 /home/badr/GNAT/2018-arm-elf/bin/../lib/gcc/arm-eabi/7.3.1/thumb/v7e-m/fpv5/hard/libgcc.a(_aeabi_ldivmod.o)
 .debug_aranges
                0x0000000000000a48       0x20 /home/badr/GNAT/2018-arm-elf/bin/../lib/gcc/arm-eabi/7.3.1/thumb/v7e-m/fpv5/hard/libgcc.a(_aeabi_uldivmod.o)
 .debug_aranges
                0x0000000000000a68       0x20 /home/badr/GNAT/2018-arm-elf/bin/../lib/gcc/arm-eabi/7.3.1/thumb/v7e-m/fpv5/hard/libgcc.a(_udivmoddi4.o)
 .debug_aranges
                0x0000000000000a88       0x20 /home/badr/GNAT/2018-arm-elf/bin/../lib/gcc/arm-eabi/7.3.1/thumb/v7e-m/fpv5/hard/libgcc.a(_dvmd_tls.o)

.debug_pubnames
 *(.debug_pubnames)

.debug_info     0x0000000000000000     0xb66a
 *(.debug_info .gnu.linkonce.wi.*)
 .debug_info    0x0000000000000000     0x22ad /home/badr/hackinvent/Ada_Drivers_Library/boards/stm32h743_nucleo/obj/sfp_lib_Debug/libada_drivers_library.a(stm32-device.o)
 .debug_info    0x00000000000022ad      0x242 /home/badr/hackinvent/Ada_Drivers_Library/boards/stm32h743_nucleo/obj/sfp_lib_Debug/libada_drivers_library.a(stm32-exti.o)
 .debug_info    0x00000000000024ef     0x1525 /home/badr/hackinvent/Ada_Drivers_Library/boards/stm32h743_nucleo/obj/sfp_lib_Debug/libada_drivers_library.a(stm32-gpio.o)
 .debug_info    0x0000000000003a14      0x19b /home/badr/hackinvent/Ada_Drivers_Library/boards/stm32h743_nucleo/obj/sfp_lib_Debug/libada_drivers_library.a(stm32-rcc.o)
 .debug_info    0x0000000000003baf      0xb82 /home/badr/hackinvent/Ada_Drivers_Library/boards/stm32h743_nucleo/obj/sfp_lib_Debug/libada_drivers_library.a(stm32-syscfg.o)
 .debug_info    0x0000000000004731       0x41 /home/badr/hackinvent/Ada_Drivers_Library/boards/stm32h743_nucleo/obj/sfp_lib_Debug/libada_drivers_library.a(hal-gpio.o)
 .debug_info    0x0000000000004772      0x8c9 /home/badr/GNAT/2018-arm-elf/arm-eabi/lib/gnat/ravenscar-sfp-stm32h743nucleo/adalib/libgnarl.a(a-reatim.o)
 .debug_info    0x000000000000503b      0x103 /home/badr/GNAT/2018-arm-elf/arm-eabi/lib/gnat/ravenscar-sfp-stm32h743nucleo/adalib/libgnarl.a(a-retide.o)
 .debug_info    0x000000000000513e      0x5d4 /home/badr/GNAT/2018-arm-elf/arm-eabi/lib/gnat/ravenscar-sfp-stm32h743nucleo/adalib/libgnarl.a(s-bbtiev.o)
 .debug_info    0x0000000000005712      0x5b7 /home/badr/GNAT/2018-arm-elf/arm-eabi/lib/gnat/ravenscar-sfp-stm32h743nucleo/adalib/libgnarl.a(s-bbtime.o)
 .debug_info    0x0000000000005cc9      0xbfd /home/badr/GNAT/2018-arm-elf/arm-eabi/lib/gnat/ravenscar-sfp-stm32h743nucleo/adalib/libgnarl.a(s-taprop.o)
 .debug_info    0x00000000000068c6      0x65b /home/badr/GNAT/2018-arm-elf/arm-eabi/lib/gnat/ravenscar-sfp-stm32h743nucleo/adalib/libgnarl.a(s-tasdeb.o)
 .debug_info    0x0000000000006f21      0x8d0 /home/badr/GNAT/2018-arm-elf/arm-eabi/lib/gnat/ravenscar-sfp-stm32h743nucleo/adalib/libgnarl.a(s-taskin.o)
 .debug_info    0x00000000000077f1      0x52a /home/badr/GNAT/2018-arm-elf/arm-eabi/lib/gnat/ravenscar-sfp-stm32h743nucleo/adalib/libgnarl.a(s-bbbosu.o)
 .debug_info    0x0000000000007d1b      0x677 /home/badr/GNAT/2018-arm-elf/arm-eabi/lib/gnat/ravenscar-sfp-stm32h743nucleo/adalib/libgnarl.a(s-bbcppr.o)
 .debug_info    0x0000000000008392      0x46c /home/badr/GNAT/2018-arm-elf/arm-eabi/lib/gnat/ravenscar-sfp-stm32h743nucleo/adalib/libgnarl.a(s-bbinte.o)
 .debug_info    0x00000000000087fe       0x95 /home/badr/GNAT/2018-arm-elf/arm-eabi/lib/gnat/ravenscar-sfp-stm32h743nucleo/adalib/libgnarl.a(s-bbprot.o)
 .debug_info    0x0000000000008893      0x546 /home/badr/GNAT/2018-arm-elf/arm-eabi/lib/gnat/ravenscar-sfp-stm32h743nucleo/adalib/libgnarl.a(s-bbthqu.o)
 .debug_info    0x0000000000008dd9      0x60c /home/badr/GNAT/2018-arm-elf/arm-eabi/lib/gnat/ravenscar-sfp-stm32h743nucleo/adalib/libgnarl.a(s-bbthre.o)
 .debug_info    0x00000000000093e5      0x11a /home/badr/GNAT/2018-arm-elf/arm-eabi/lib/gnat/ravenscar-sfp-stm32h743nucleo/adalib/libgnarl.a(s-bcpcst.o)
 .debug_info    0x00000000000094ff       0x26 /home/badr/GNAT/2018-arm-elf/arm-eabi/lib/gnat/ravenscar-sfp-stm32h743nucleo/adalib/libgnarl.a(handler.o)
 .debug_info    0x0000000000009525      0x145 /home/badr/GNAT/2018-arm-elf/arm-eabi/lib/gnat/ravenscar-sfp-stm32h743nucleo/adalib/libgnat.a(a-elchha.o)
 .debug_info    0x000000000000966a      0x149 /home/badr/GNAT/2018-arm-elf/arm-eabi/lib/gnat/ravenscar-sfp-stm32h743nucleo/adalib/libgnat.a(a-except.o)
 .debug_info    0x00000000000097b3       0x26 /home/badr/GNAT/2018-arm-elf/arm-eabi/lib/gnat/ravenscar-sfp-stm32h743nucleo/adalib/libgnat.a(breakpoint_handler-cortexm.o)
 .debug_info    0x00000000000097d9      0x256 /home/badr/GNAT/2018-arm-elf/arm-eabi/lib/gnat/ravenscar-sfp-stm32h743nucleo/adalib/libgnat.a(g-io.o)
 .debug_info    0x0000000000009a2f      0x169 /home/badr/GNAT/2018-arm-elf/arm-eabi/lib/gnat/ravenscar-sfp-stm32h743nucleo/adalib/libgnat.a(s-assert.o)
 .debug_info    0x0000000000009b98       0xb0 /home/badr/GNAT/2018-arm-elf/arm-eabi/lib/gnat/ravenscar-sfp-stm32h743nucleo/adalib/libgnat.a(s-macres.o)
 .debug_info    0x0000000000009c48       0xbf /home/badr/GNAT/2018-arm-elf/arm-eabi/lib/gnat/ravenscar-sfp-stm32h743nucleo/adalib/libgnat.a(s-memcop.o)
 .debug_info    0x0000000000009d07      0x11f /home/badr/GNAT/2018-arm-elf/arm-eabi/lib/gnat/ravenscar-sfp-stm32h743nucleo/adalib/libgnat.a(s-memset.o)
 .debug_info    0x0000000000009e26      0x13c /home/badr/GNAT/2018-arm-elf/arm-eabi/lib/gnat/ravenscar-sfp-stm32h743nucleo/adalib/libgnat.a(s-parame.o)
 .debug_info    0x0000000000009f62      0x5bf /home/badr/GNAT/2018-arm-elf/arm-eabi/lib/gnat/ravenscar-sfp-stm32h743nucleo/adalib/libgnat.a(s-secsta.o)
 .debug_info    0x000000000000a521       0xe4 /home/badr/GNAT/2018-arm-elf/arm-eabi/lib/gnat/ravenscar-sfp-stm32h743nucleo/adalib/libgnat.a(s-textio.o)
 .debug_info    0x000000000000a605       0x26 /home/badr/GNAT/2018-arm-elf/arm-eabi/lib/gnat/ravenscar-sfp-stm32h743nucleo/adalib/libgnat.a(start-rom.o)
 .debug_info    0x000000000000a62b      0x2a8 /home/badr/GNAT/2018-arm-elf/arm-eabi/lib/gnat/ravenscar-sfp-stm32h743nucleo/adalib/libgnat.a(s-semiho.o)
 .debug_info    0x000000000000a8d3       0x26 /home/badr/GNAT/2018-arm-elf/arm-eabi/lib/gnat/ravenscar-sfp-stm32h743nucleo/adalib/libgnat.a(start-common.o)
 .debug_info    0x000000000000a8f9       0x26 /home/badr/GNAT/2018-arm-elf/bin/../lib/gcc/arm-eabi/7.3.1/thumb/v7e-m/fpv5/hard/libgcc.a(_aeabi_ldivmod.o)
 .debug_info    0x000000000000a91f       0x26 /home/badr/GNAT/2018-arm-elf/bin/../lib/gcc/arm-eabi/7.3.1/thumb/v7e-m/fpv5/hard/libgcc.a(_aeabi_uldivmod.o)
 .debug_info    0x000000000000a945      0xcff /home/badr/GNAT/2018-arm-elf/bin/../lib/gcc/arm-eabi/7.3.1/thumb/v7e-m/fpv5/hard/libgcc.a(_udivmoddi4.o)
 .debug_info    0x000000000000b644       0x26 /home/badr/GNAT/2018-arm-elf/bin/../lib/gcc/arm-eabi/7.3.1/thumb/v7e-m/fpv5/hard/libgcc.a(_dvmd_tls.o)

.debug_abbrev   0x0000000000000000     0x362d
 *(.debug_abbrev)
 .debug_abbrev  0x0000000000000000      0x3c2 /home/badr/hackinvent/Ada_Drivers_Library/boards/stm32h743_nucleo/obj/sfp_lib_Debug/libada_drivers_library.a(stm32-device.o)
 .debug_abbrev  0x00000000000003c2       0xb1 /home/badr/hackinvent/Ada_Drivers_Library/boards/stm32h743_nucleo/obj/sfp_lib_Debug/libada_drivers_library.a(stm32-exti.o)
 .debug_abbrev  0x0000000000000473      0x425 /home/badr/hackinvent/Ada_Drivers_Library/boards/stm32h743_nucleo/obj/sfp_lib_Debug/libada_drivers_library.a(stm32-gpio.o)
 .debug_abbrev  0x0000000000000898       0x8f /home/badr/hackinvent/Ada_Drivers_Library/boards/stm32h743_nucleo/obj/sfp_lib_Debug/libada_drivers_library.a(stm32-rcc.o)
 .debug_abbrev  0x0000000000000927      0x2d7 /home/badr/hackinvent/Ada_Drivers_Library/boards/stm32h743_nucleo/obj/sfp_lib_Debug/libada_drivers_library.a(stm32-syscfg.o)
 .debug_abbrev  0x0000000000000bfe       0x28 /home/badr/hackinvent/Ada_Drivers_Library/boards/stm32h743_nucleo/obj/sfp_lib_Debug/libada_drivers_library.a(hal-gpio.o)
 .debug_abbrev  0x0000000000000c26      0x1ce /home/badr/GNAT/2018-arm-elf/arm-eabi/lib/gnat/ravenscar-sfp-stm32h743nucleo/adalib/libgnarl.a(a-reatim.o)
 .debug_abbrev  0x0000000000000df4       0x9d /home/badr/GNAT/2018-arm-elf/arm-eabi/lib/gnat/ravenscar-sfp-stm32h743nucleo/adalib/libgnarl.a(a-retide.o)
 .debug_abbrev  0x0000000000000e91      0x23b /home/badr/GNAT/2018-arm-elf/arm-eabi/lib/gnat/ravenscar-sfp-stm32h743nucleo/adalib/libgnarl.a(s-bbtiev.o)
 .debug_abbrev  0x00000000000010cc      0x24c /home/badr/GNAT/2018-arm-elf/arm-eabi/lib/gnat/ravenscar-sfp-stm32h743nucleo/adalib/libgnarl.a(s-bbtime.o)
 .debug_abbrev  0x0000000000001318      0x402 /home/badr/GNAT/2018-arm-elf/arm-eabi/lib/gnat/ravenscar-sfp-stm32h743nucleo/adalib/libgnarl.a(s-taprop.o)
 .debug_abbrev  0x000000000000171a      0x232 /home/badr/GNAT/2018-arm-elf/arm-eabi/lib/gnat/ravenscar-sfp-stm32h743nucleo/adalib/libgnarl.a(s-tasdeb.o)
 .debug_abbrev  0x000000000000194c      0x2e1 /home/badr/GNAT/2018-arm-elf/arm-eabi/lib/gnat/ravenscar-sfp-stm32h743nucleo/adalib/libgnarl.a(s-taskin.o)
 .debug_abbrev  0x0000000000001c2d      0x240 /home/badr/GNAT/2018-arm-elf/arm-eabi/lib/gnat/ravenscar-sfp-stm32h743nucleo/adalib/libgnarl.a(s-bbbosu.o)
 .debug_abbrev  0x0000000000001e6d      0x26c /home/badr/GNAT/2018-arm-elf/arm-eabi/lib/gnat/ravenscar-sfp-stm32h743nucleo/adalib/libgnarl.a(s-bbcppr.o)
 .debug_abbrev  0x00000000000020d9      0x1fb /home/badr/GNAT/2018-arm-elf/arm-eabi/lib/gnat/ravenscar-sfp-stm32h743nucleo/adalib/libgnarl.a(s-bbinte.o)
 .debug_abbrev  0x00000000000022d4       0x65 /home/badr/GNAT/2018-arm-elf/arm-eabi/lib/gnat/ravenscar-sfp-stm32h743nucleo/adalib/libgnarl.a(s-bbprot.o)
 .debug_abbrev  0x0000000000002339      0x289 /home/badr/GNAT/2018-arm-elf/arm-eabi/lib/gnat/ravenscar-sfp-stm32h743nucleo/adalib/libgnarl.a(s-bbthqu.o)
 .debug_abbrev  0x00000000000025c2      0x26d /home/badr/GNAT/2018-arm-elf/arm-eabi/lib/gnat/ravenscar-sfp-stm32h743nucleo/adalib/libgnarl.a(s-bbthre.o)
 .debug_abbrev  0x000000000000282f       0xb0 /home/badr/GNAT/2018-arm-elf/arm-eabi/lib/gnat/ravenscar-sfp-stm32h743nucleo/adalib/libgnarl.a(s-bcpcst.o)
 .debug_abbrev  0x00000000000028df       0x14 /home/badr/GNAT/2018-arm-elf/arm-eabi/lib/gnat/ravenscar-sfp-stm32h743nucleo/adalib/libgnarl.a(handler.o)
 .debug_abbrev  0x00000000000028f3      0x113 /home/badr/GNAT/2018-arm-elf/arm-eabi/lib/gnat/ravenscar-sfp-stm32h743nucleo/adalib/libgnat.a(a-elchha.o)
 .debug_abbrev  0x0000000000002a06       0xc6 /home/badr/GNAT/2018-arm-elf/arm-eabi/lib/gnat/ravenscar-sfp-stm32h743nucleo/adalib/libgnat.a(a-except.o)
 .debug_abbrev  0x0000000000002acc       0x14 /home/badr/GNAT/2018-arm-elf/arm-eabi/lib/gnat/ravenscar-sfp-stm32h743nucleo/adalib/libgnat.a(breakpoint_handler-cortexm.o)
 .debug_abbrev  0x0000000000002ae0      0x134 /home/badr/GNAT/2018-arm-elf/arm-eabi/lib/gnat/ravenscar-sfp-stm32h743nucleo/adalib/libgnat.a(g-io.o)
 .debug_abbrev  0x0000000000002c14       0xd2 /home/badr/GNAT/2018-arm-elf/arm-eabi/lib/gnat/ravenscar-sfp-stm32h743nucleo/adalib/libgnat.a(s-assert.o)
 .debug_abbrev  0x0000000000002ce6       0xbd /home/badr/GNAT/2018-arm-elf/arm-eabi/lib/gnat/ravenscar-sfp-stm32h743nucleo/adalib/libgnat.a(s-macres.o)
 .debug_abbrev  0x0000000000002da3       0x76 /home/badr/GNAT/2018-arm-elf/arm-eabi/lib/gnat/ravenscar-sfp-stm32h743nucleo/adalib/libgnat.a(s-memcop.o)
 .debug_abbrev  0x0000000000002e19       0xc6 /home/badr/GNAT/2018-arm-elf/arm-eabi/lib/gnat/ravenscar-sfp-stm32h743nucleo/adalib/libgnat.a(s-memset.o)
 .debug_abbrev  0x0000000000002edf       0x95 /home/badr/GNAT/2018-arm-elf/arm-eabi/lib/gnat/ravenscar-sfp-stm32h743nucleo/adalib/libgnat.a(s-parame.o)
 .debug_abbrev  0x0000000000002f74      0x2a9 /home/badr/GNAT/2018-arm-elf/arm-eabi/lib/gnat/ravenscar-sfp-stm32h743nucleo/adalib/libgnat.a(s-secsta.o)
 .debug_abbrev  0x000000000000321d       0xb5 /home/badr/GNAT/2018-arm-elf/arm-eabi/lib/gnat/ravenscar-sfp-stm32h743nucleo/adalib/libgnat.a(s-textio.o)
 .debug_abbrev  0x00000000000032d2       0x14 /home/badr/GNAT/2018-arm-elf/arm-eabi/lib/gnat/ravenscar-sfp-stm32h743nucleo/adalib/libgnat.a(start-rom.o)
 .debug_abbrev  0x00000000000032e6      0x15e /home/badr/GNAT/2018-arm-elf/arm-eabi/lib/gnat/ravenscar-sfp-stm32h743nucleo/adalib/libgnat.a(s-semiho.o)
 .debug_abbrev  0x0000000000003444       0x14 /home/badr/GNAT/2018-arm-elf/arm-eabi/lib/gnat/ravenscar-sfp-stm32h743nucleo/adalib/libgnat.a(start-common.o)
 .debug_abbrev  0x0000000000003458       0x14 /home/badr/GNAT/2018-arm-elf/bin/../lib/gcc/arm-eabi/7.3.1/thumb/v7e-m/fpv5/hard/libgcc.a(_aeabi_ldivmod.o)
 .debug_abbrev  0x000000000000346c       0x14 /home/badr/GNAT/2018-arm-elf/bin/../lib/gcc/arm-eabi/7.3.1/thumb/v7e-m/fpv5/hard/libgcc.a(_aeabi_uldivmod.o)
 .debug_abbrev  0x0000000000003480      0x199 /home/badr/GNAT/2018-arm-elf/bin/../lib/gcc/arm-eabi/7.3.1/thumb/v7e-m/fpv5/hard/libgcc.a(_udivmoddi4.o)
 .debug_abbrev  0x0000000000003619       0x14 /home/badr/GNAT/2018-arm-elf/bin/../lib/gcc/arm-eabi/7.3.1/thumb/v7e-m/fpv5/hard/libgcc.a(_dvmd_tls.o)

.debug_line     0x0000000000000000     0x511e
 *(.debug_line)
 .debug_line    0x0000000000000000      0x580 /home/badr/hackinvent/Ada_Drivers_Library/boards/stm32h743_nucleo/obj/sfp_lib_Debug/libada_drivers_library.a(stm32-device.o)
 .debug_line    0x0000000000000580      0x115 /home/badr/hackinvent/Ada_Drivers_Library/boards/stm32h743_nucleo/obj/sfp_lib_Debug/libada_drivers_library.a(stm32-exti.o)
 .debug_line    0x0000000000000695      0x886 /home/badr/hackinvent/Ada_Drivers_Library/boards/stm32h743_nucleo/obj/sfp_lib_Debug/libada_drivers_library.a(stm32-gpio.o)
 .debug_line    0x0000000000000f1b       0xa9 /home/badr/hackinvent/Ada_Drivers_Library/boards/stm32h743_nucleo/obj/sfp_lib_Debug/libada_drivers_library.a(stm32-rcc.o)
 .debug_line    0x0000000000000fc4      0x2fa /home/badr/hackinvent/Ada_Drivers_Library/boards/stm32h743_nucleo/obj/sfp_lib_Debug/libada_drivers_library.a(stm32-syscfg.o)
 .debug_line    0x00000000000012be       0x1d /home/badr/hackinvent/Ada_Drivers_Library/boards/stm32h743_nucleo/obj/sfp_lib_Debug/libada_drivers_library.a(hal-gpio.o)
 .debug_line    0x00000000000012db      0x3fb /home/badr/GNAT/2018-arm-elf/arm-eabi/lib/gnat/ravenscar-sfp-stm32h743nucleo/adalib/libgnarl.a(a-reatim.o)
 .debug_line    0x00000000000016d6       0xb5 /home/badr/GNAT/2018-arm-elf/arm-eabi/lib/gnat/ravenscar-sfp-stm32h743nucleo/adalib/libgnarl.a(a-retide.o)
 .debug_line    0x000000000000178b      0x33e /home/badr/GNAT/2018-arm-elf/arm-eabi/lib/gnat/ravenscar-sfp-stm32h743nucleo/adalib/libgnarl.a(s-bbtiev.o)
 .debug_line    0x0000000000001ac9      0x2ea /home/badr/GNAT/2018-arm-elf/arm-eabi/lib/gnat/ravenscar-sfp-stm32h743nucleo/adalib/libgnarl.a(s-bbtime.o)
 .debug_line    0x0000000000001db3      0x498 /home/badr/GNAT/2018-arm-elf/arm-eabi/lib/gnat/ravenscar-sfp-stm32h743nucleo/adalib/libgnarl.a(s-taprop.o)
 .debug_line    0x000000000000224b      0x1f3 /home/badr/GNAT/2018-arm-elf/arm-eabi/lib/gnat/ravenscar-sfp-stm32h743nucleo/adalib/libgnarl.a(s-tasdeb.o)
 .debug_line    0x000000000000243e      0x37b /home/badr/GNAT/2018-arm-elf/arm-eabi/lib/gnat/ravenscar-sfp-stm32h743nucleo/adalib/libgnarl.a(s-taskin.o)
 .debug_line    0x00000000000027b9      0x413 /home/badr/GNAT/2018-arm-elf/arm-eabi/lib/gnat/ravenscar-sfp-stm32h743nucleo/adalib/libgnarl.a(s-bbbosu.o)
 .debug_line    0x0000000000002bcc      0x50b /home/badr/GNAT/2018-arm-elf/arm-eabi/lib/gnat/ravenscar-sfp-stm32h743nucleo/adalib/libgnarl.a(s-bbcppr.o)
 .debug_line    0x00000000000030d7      0x238 /home/badr/GNAT/2018-arm-elf/arm-eabi/lib/gnat/ravenscar-sfp-stm32h743nucleo/adalib/libgnarl.a(s-bbinte.o)
 .debug_line    0x000000000000330f       0xc3 /home/badr/GNAT/2018-arm-elf/arm-eabi/lib/gnat/ravenscar-sfp-stm32h743nucleo/adalib/libgnarl.a(s-bbprot.o)
 .debug_line    0x00000000000033d2      0x602 /home/badr/GNAT/2018-arm-elf/arm-eabi/lib/gnat/ravenscar-sfp-stm32h743nucleo/adalib/libgnarl.a(s-bbthqu.o)
 .debug_line    0x00000000000039d4      0x455 /home/badr/GNAT/2018-arm-elf/arm-eabi/lib/gnat/ravenscar-sfp-stm32h743nucleo/adalib/libgnarl.a(s-bbthre.o)
 .debug_line    0x0000000000003e29       0xb2 /home/badr/GNAT/2018-arm-elf/arm-eabi/lib/gnat/ravenscar-sfp-stm32h743nucleo/adalib/libgnarl.a(s-bcpcst.o)
 .debug_line    0x0000000000003edb       0xa6 /home/badr/GNAT/2018-arm-elf/arm-eabi/lib/gnat/ravenscar-sfp-stm32h743nucleo/adalib/libgnarl.a(handler.o)
 .debug_line    0x0000000000003f81       0xc5 /home/badr/GNAT/2018-arm-elf/arm-eabi/lib/gnat/ravenscar-sfp-stm32h743nucleo/adalib/libgnat.a(a-elchha.o)
 .debug_line    0x0000000000004046       0x89 /home/badr/GNAT/2018-arm-elf/arm-eabi/lib/gnat/ravenscar-sfp-stm32h743nucleo/adalib/libgnat.a(a-except.o)
 .debug_line    0x00000000000040cf       0x9f /home/badr/GNAT/2018-arm-elf/arm-eabi/lib/gnat/ravenscar-sfp-stm32h743nucleo/adalib/libgnat.a(breakpoint_handler-cortexm.o)
 .debug_line    0x000000000000416e      0x1c6 /home/badr/GNAT/2018-arm-elf/arm-eabi/lib/gnat/ravenscar-sfp-stm32h743nucleo/adalib/libgnat.a(g-io.o)
 .debug_line    0x0000000000004334      0x14d /home/badr/GNAT/2018-arm-elf/arm-eabi/lib/gnat/ravenscar-sfp-stm32h743nucleo/adalib/libgnat.a(s-assert.o)
 .debug_line    0x0000000000004481       0xaa /home/badr/GNAT/2018-arm-elf/arm-eabi/lib/gnat/ravenscar-sfp-stm32h743nucleo/adalib/libgnat.a(s-macres.o)
 .debug_line    0x000000000000452b       0xe8 /home/badr/GNAT/2018-arm-elf/arm-eabi/lib/gnat/ravenscar-sfp-stm32h743nucleo/adalib/libgnat.a(s-memcop.o)
 .debug_line    0x0000000000004613       0xcf /home/badr/GNAT/2018-arm-elf/arm-eabi/lib/gnat/ravenscar-sfp-stm32h743nucleo/adalib/libgnat.a(s-memset.o)
 .debug_line    0x00000000000046e2       0xa0 /home/badr/GNAT/2018-arm-elf/arm-eabi/lib/gnat/ravenscar-sfp-stm32h743nucleo/adalib/libgnat.a(s-parame.o)
 .debug_line    0x0000000000004782      0x1b0 /home/badr/GNAT/2018-arm-elf/arm-eabi/lib/gnat/ravenscar-sfp-stm32h743nucleo/adalib/libgnat.a(s-secsta.o)
 .debug_line    0x0000000000004932      0x127 /home/badr/GNAT/2018-arm-elf/arm-eabi/lib/gnat/ravenscar-sfp-stm32h743nucleo/adalib/libgnat.a(s-textio.o)
 .debug_line    0x0000000000004a59       0xc1 /home/badr/GNAT/2018-arm-elf/arm-eabi/lib/gnat/ravenscar-sfp-stm32h743nucleo/adalib/libgnat.a(start-rom.o)
 .debug_line    0x0000000000004b1a      0x159 /home/badr/GNAT/2018-arm-elf/arm-eabi/lib/gnat/ravenscar-sfp-stm32h743nucleo/adalib/libgnat.a(s-semiho.o)
 .debug_line    0x0000000000004c73       0xf1 /home/badr/GNAT/2018-arm-elf/arm-eabi/lib/gnat/ravenscar-sfp-stm32h743nucleo/adalib/libgnat.a(start-common.o)
 .debug_line    0x0000000000004d64       0x85 /home/badr/GNAT/2018-arm-elf/bin/../lib/gcc/arm-eabi/7.3.1/thumb/v7e-m/fpv5/hard/libgcc.a(_aeabi_ldivmod.o)
 .debug_line    0x0000000000004de9       0x67 /home/badr/GNAT/2018-arm-elf/bin/../lib/gcc/arm-eabi/7.3.1/thumb/v7e-m/fpv5/hard/libgcc.a(_aeabi_uldivmod.o)
 .debug_line    0x0000000000004e50      0x267 /home/badr/GNAT/2018-arm-elf/bin/../lib/gcc/arm-eabi/7.3.1/thumb/v7e-m/fpv5/hard/libgcc.a(_udivmoddi4.o)
 .debug_line    0x00000000000050b7       0x67 /home/badr/GNAT/2018-arm-elf/bin/../lib/gcc/arm-eabi/7.3.1/thumb/v7e-m/fpv5/hard/libgcc.a(_dvmd_tls.o)

.debug_frame    0x0000000000000000     0x26c4
 *(.debug_frame)
 .debug_frame   0x0000000000000000      0x1c4 /home/badr/hackinvent/Ada_Drivers_Library/boards/stm32h743_nucleo/obj/sfp_lib_Debug/libada_drivers_library.a(stm32-device.o)
 .debug_frame   0x00000000000001c4      0x128 /home/badr/hackinvent/Ada_Drivers_Library/boards/stm32h743_nucleo/obj/sfp_lib_Debug/libada_drivers_library.a(stm32-exti.o)
 .debug_frame   0x00000000000002ec      0x670 /home/badr/hackinvent/Ada_Drivers_Library/boards/stm32h743_nucleo/obj/sfp_lib_Debug/libada_drivers_library.a(stm32-gpio.o)
 .debug_frame   0x000000000000095c       0x30 /home/badr/hackinvent/Ada_Drivers_Library/boards/stm32h743_nucleo/obj/sfp_lib_Debug/libada_drivers_library.a(stm32-rcc.o)
 .debug_frame   0x000000000000098c       0xd4 /home/badr/hackinvent/Ada_Drivers_Library/boards/stm32h743_nucleo/obj/sfp_lib_Debug/libada_drivers_library.a(stm32-syscfg.o)
 .debug_frame   0x0000000000000a60      0x3e0 /home/badr/GNAT/2018-arm-elf/arm-eabi/lib/gnat/ravenscar-sfp-stm32h743nucleo/adalib/libgnarl.a(a-reatim.o)
 .debug_frame   0x0000000000000e40       0x5c /home/badr/GNAT/2018-arm-elf/arm-eabi/lib/gnat/ravenscar-sfp-stm32h743nucleo/adalib/libgnarl.a(a-retide.o)
 .debug_frame   0x0000000000000e9c      0x190 /home/badr/GNAT/2018-arm-elf/arm-eabi/lib/gnat/ravenscar-sfp-stm32h743nucleo/adalib/libgnarl.a(s-bbtiev.o)
 .debug_frame   0x000000000000102c      0x1bc /home/badr/GNAT/2018-arm-elf/arm-eabi/lib/gnat/ravenscar-sfp-stm32h743nucleo/adalib/libgnarl.a(s-bbtime.o)
 .debug_frame   0x00000000000011e8      0x30c /home/badr/GNAT/2018-arm-elf/arm-eabi/lib/gnat/ravenscar-sfp-stm32h743nucleo/adalib/libgnarl.a(s-taprop.o)
 .debug_frame   0x00000000000014f4       0x34 /home/badr/GNAT/2018-arm-elf/arm-eabi/lib/gnat/ravenscar-sfp-stm32h743nucleo/adalib/libgnarl.a(s-tasdeb.o)
 .debug_frame   0x0000000000001528      0x10c /home/badr/GNAT/2018-arm-elf/arm-eabi/lib/gnat/ravenscar-sfp-stm32h743nucleo/adalib/libgnarl.a(s-taskin.o)
 .debug_frame   0x0000000000001634      0x2f4 /home/badr/GNAT/2018-arm-elf/arm-eabi/lib/gnat/ravenscar-sfp-stm32h743nucleo/adalib/libgnarl.a(s-bbbosu.o)
 .debug_frame   0x0000000000001928      0x244 /home/badr/GNAT/2018-arm-elf/arm-eabi/lib/gnat/ravenscar-sfp-stm32h743nucleo/adalib/libgnarl.a(s-bbcppr.o)
 .debug_frame   0x0000000000001b6c      0x118 /home/badr/GNAT/2018-arm-elf/arm-eabi/lib/gnat/ravenscar-sfp-stm32h743nucleo/adalib/libgnarl.a(s-bbinte.o)
 .debug_frame   0x0000000000001c84       0x48 /home/badr/GNAT/2018-arm-elf/arm-eabi/lib/gnat/ravenscar-sfp-stm32h743nucleo/adalib/libgnarl.a(s-bbprot.o)
 .debug_frame   0x0000000000001ccc      0x1c4 /home/badr/GNAT/2018-arm-elf/arm-eabi/lib/gnat/ravenscar-sfp-stm32h743nucleo/adalib/libgnarl.a(s-bbthqu.o)
 .debug_frame   0x0000000000001e90      0x200 /home/badr/GNAT/2018-arm-elf/arm-eabi/lib/gnat/ravenscar-sfp-stm32h743nucleo/adalib/libgnarl.a(s-bbthre.o)
 .debug_frame   0x0000000000002090       0x60 /home/badr/GNAT/2018-arm-elf/arm-eabi/lib/gnat/ravenscar-sfp-stm32h743nucleo/adalib/libgnarl.a(s-bcpcst.o)
 .debug_frame   0x00000000000020f0       0x58 /home/badr/GNAT/2018-arm-elf/arm-eabi/lib/gnat/ravenscar-sfp-stm32h743nucleo/adalib/libgnat.a(a-elchha.o)
 .debug_frame   0x0000000000002148       0xcc /home/badr/GNAT/2018-arm-elf/arm-eabi/lib/gnat/ravenscar-sfp-stm32h743nucleo/adalib/libgnat.a(g-io.o)
 .debug_frame   0x0000000000002214       0x30 /home/badr/GNAT/2018-arm-elf/arm-eabi/lib/gnat/ravenscar-sfp-stm32h743nucleo/adalib/libgnat.a(s-assert.o)
 .debug_frame   0x0000000000002244       0x64 /home/badr/GNAT/2018-arm-elf/arm-eabi/lib/gnat/ravenscar-sfp-stm32h743nucleo/adalib/libgnat.a(s-macres.o)
 .debug_frame   0x00000000000022a8       0x34 /home/badr/GNAT/2018-arm-elf/arm-eabi/lib/gnat/ravenscar-sfp-stm32h743nucleo/adalib/libgnat.a(s-memcop.o)
 .debug_frame   0x00000000000022dc       0x34 /home/badr/GNAT/2018-arm-elf/arm-eabi/lib/gnat/ravenscar-sfp-stm32h743nucleo/adalib/libgnat.a(s-memset.o)
 .debug_frame   0x0000000000002310       0x38 /home/badr/GNAT/2018-arm-elf/arm-eabi/lib/gnat/ravenscar-sfp-stm32h743nucleo/adalib/libgnat.a(s-parame.o)
 .debug_frame   0x0000000000002348      0x10c /home/badr/GNAT/2018-arm-elf/arm-eabi/lib/gnat/ravenscar-sfp-stm32h743nucleo/adalib/libgnat.a(s-secsta.o)
 .debug_frame   0x0000000000002454       0xd8 /home/badr/GNAT/2018-arm-elf/arm-eabi/lib/gnat/ravenscar-sfp-stm32h743nucleo/adalib/libgnat.a(s-textio.o)
 .debug_frame   0x000000000000252c       0xf4 /home/badr/GNAT/2018-arm-elf/arm-eabi/lib/gnat/ravenscar-sfp-stm32h743nucleo/adalib/libgnat.a(s-semiho.o)
 .debug_frame   0x0000000000002620       0x44 /home/badr/GNAT/2018-arm-elf/bin/../lib/gcc/arm-eabi/7.3.1/thumb/v7e-m/fpv5/hard/libgcc.a(_aeabi_ldivmod.o)
 .debug_frame   0x0000000000002664       0x2c /home/badr/GNAT/2018-arm-elf/bin/../lib/gcc/arm-eabi/7.3.1/thumb/v7e-m/fpv5/hard/libgcc.a(_aeabi_uldivmod.o)
 .debug_frame   0x0000000000002690       0x34 /home/badr/GNAT/2018-arm-elf/bin/../lib/gcc/arm-eabi/7.3.1/thumb/v7e-m/fpv5/hard/libgcc.a(_udivmoddi4.o)

.debug_str      0x0000000000000000     0xc1c9
 *(.debug_str)
 .debug_str     0x0000000000000000     0x3099 /home/badr/hackinvent/Ada_Drivers_Library/boards/stm32h743_nucleo/obj/sfp_lib_Debug/libada_drivers_library.a(stm32-device.o)
                                       0x30cc (size before relaxing)
 .debug_str     0x0000000000003099      0x524 /home/badr/hackinvent/Ada_Drivers_Library/boards/stm32h743_nucleo/obj/sfp_lib_Debug/libada_drivers_library.a(stm32-exti.o)
                                        0x724 (size before relaxing)
 .debug_str     0x00000000000035bd      0x8b1 /home/badr/hackinvent/Ada_Drivers_Library/boards/stm32h743_nucleo/obj/sfp_lib_Debug/libada_drivers_library.a(stm32-gpio.o)
                                       0x1bf9 (size before relaxing)
 .debug_str     0x0000000000003e6e       0x94 /home/badr/hackinvent/Ada_Drivers_Library/boards/stm32h743_nucleo/obj/sfp_lib_Debug/libada_drivers_library.a(stm32-rcc.o)
                                        0x5a0 (size before relaxing)
 .debug_str     0x0000000000003f02      0x170 /home/badr/hackinvent/Ada_Drivers_Library/boards/stm32h743_nucleo/obj/sfp_lib_Debug/libada_drivers_library.a(stm32-syscfg.o)
                                       0x113a (size before relaxing)
 .debug_str     0x0000000000004072       0x3f /home/badr/hackinvent/Ada_Drivers_Library/boards/stm32h743_nucleo/obj/sfp_lib_Debug/libada_drivers_library.a(hal-gpio.o)
                                        0x256 (size before relaxing)
 .debug_str     0x00000000000040b1      0x8de /home/badr/GNAT/2018-arm-elf/arm-eabi/lib/gnat/ravenscar-sfp-stm32h743nucleo/adalib/libgnarl.a(a-reatim.o)
                                        0x916 (size before relaxing)
 .debug_str     0x000000000000498f      0x364 /home/badr/GNAT/2018-arm-elf/arm-eabi/lib/gnat/ravenscar-sfp-stm32h743nucleo/adalib/libgnarl.a(a-retide.o)
                                        0x4c4 (size before relaxing)
 .debug_str     0x0000000000004cf3      0x4db /home/badr/GNAT/2018-arm-elf/arm-eabi/lib/gnat/ravenscar-sfp-stm32h743nucleo/adalib/libgnarl.a(s-bbtiev.o)
                                        0x8e1 (size before relaxing)
 .debug_str     0x00000000000051ce      0x4ef /home/badr/GNAT/2018-arm-elf/arm-eabi/lib/gnat/ravenscar-sfp-stm32h743nucleo/adalib/libgnarl.a(s-bbtime.o)
                                        0xa26 (size before relaxing)
 .debug_str     0x00000000000056bd     0x1125 /home/badr/GNAT/2018-arm-elf/arm-eabi/lib/gnat/ravenscar-sfp-stm32h743nucleo/adalib/libgnarl.a(s-taprop.o)
                                       0x1641 (size before relaxing)
 .debug_str     0x00000000000067e2      0x26d /home/badr/GNAT/2018-arm-elf/arm-eabi/lib/gnat/ravenscar-sfp-stm32h743nucleo/adalib/libgnarl.a(s-tasdeb.o)
                                        0xe43 (size before relaxing)
 .debug_str     0x0000000000006a4f      0x30f /home/badr/GNAT/2018-arm-elf/arm-eabi/lib/gnat/ravenscar-sfp-stm32h743nucleo/adalib/libgnarl.a(s-taskin.o)
                                       0x10b6 (size before relaxing)
 .debug_str     0x0000000000006d5e      0x93b /home/badr/GNAT/2018-arm-elf/arm-eabi/lib/gnat/ravenscar-sfp-stm32h743nucleo/adalib/libgnarl.a(s-bbbosu.o)
                                        0xb0e (size before relaxing)
 .debug_str     0x0000000000007699      0x890 /home/badr/GNAT/2018-arm-elf/arm-eabi/lib/gnat/ravenscar-sfp-stm32h743nucleo/adalib/libgnarl.a(s-bbcppr.o)
                                        0xce9 (size before relaxing)
 .debug_str     0x0000000000007f29      0x36f /home/badr/GNAT/2018-arm-elf/arm-eabi/lib/gnat/ravenscar-sfp-stm32h743nucleo/adalib/libgnarl.a(s-bbinte.o)
                                        0x9c7 (size before relaxing)
 .debug_str     0x0000000000008298       0xef /home/badr/GNAT/2018-arm-elf/arm-eabi/lib/gnat/ravenscar-sfp-stm32h743nucleo/adalib/libgnarl.a(s-bbprot.o)
                                        0x3a4 (size before relaxing)
 .debug_str     0x0000000000008387      0x46a /home/badr/GNAT/2018-arm-elf/arm-eabi/lib/gnat/ravenscar-sfp-stm32h743nucleo/adalib/libgnarl.a(s-bbthqu.o)
                                        0x9ee (size before relaxing)
 .debug_str     0x00000000000087f1      0x27f /home/badr/GNAT/2018-arm-elf/arm-eabi/lib/gnat/ravenscar-sfp-stm32h743nucleo/adalib/libgnarl.a(s-bbthre.o)
                                        0x8ff (size before relaxing)
 .debug_str     0x0000000000008a70      0x2ff /home/badr/GNAT/2018-arm-elf/arm-eabi/lib/gnat/ravenscar-sfp-stm32h743nucleo/adalib/libgnarl.a(s-bcpcst.o)
                                        0x563 (size before relaxing)
 .debug_str     0x0000000000008d6f       0x81 /home/badr/GNAT/2018-arm-elf/arm-eabi/lib/gnat/ravenscar-sfp-stm32h743nucleo/adalib/libgnarl.a(handler.o)
                                         0xf1 (size before relaxing)
 .debug_str     0x0000000000008df0      0x371 /home/badr/GNAT/2018-arm-elf/arm-eabi/lib/gnat/ravenscar-sfp-stm32h743nucleo/adalib/libgnat.a(a-elchha.o)
                                        0x408 (size before relaxing)
 .debug_str     0x0000000000009161      0x2f5 /home/badr/GNAT/2018-arm-elf/arm-eabi/lib/gnat/ravenscar-sfp-stm32h743nucleo/adalib/libgnat.a(a-except.o)
                                        0x394 (size before relaxing)
 .debug_str     0x0000000000009456       0x66 /home/badr/GNAT/2018-arm-elf/arm-eabi/lib/gnat/ravenscar-sfp-stm32h743nucleo/adalib/libgnat.a(breakpoint_handler-cortexm.o)
                                         0xe5 (size before relaxing)
 .debug_str     0x00000000000094bc      0x129 /home/badr/GNAT/2018-arm-elf/arm-eabi/lib/gnat/ravenscar-sfp-stm32h743nucleo/adalib/libgnat.a(g-io.o)
                                        0x3d8 (size before relaxing)
 .debug_str     0x00000000000095e5      0x243 /home/badr/GNAT/2018-arm-elf/arm-eabi/lib/gnat/ravenscar-sfp-stm32h743nucleo/adalib/libgnat.a(s-assert.o)
                                        0x3a1 (size before relaxing)
 .debug_str     0x0000000000009828      0x261 /home/badr/GNAT/2018-arm-elf/arm-eabi/lib/gnat/ravenscar-sfp-stm32h743nucleo/adalib/libgnat.a(s-macres.o)
                                        0x313 (size before relaxing)
 .debug_str     0x0000000000009a89      0x281 /home/badr/GNAT/2018-arm-elf/arm-eabi/lib/gnat/ravenscar-sfp-stm32h743nucleo/adalib/libgnat.a(s-memcop.o)
                                        0x308 (size before relaxing)
 .debug_str     0x0000000000009d0a      0x235 /home/badr/GNAT/2018-arm-elf/arm-eabi/lib/gnat/ravenscar-sfp-stm32h743nucleo/adalib/libgnat.a(s-memset.o)
                                        0x352 (size before relaxing)
 .debug_str     0x0000000000009f3f      0x201 /home/badr/GNAT/2018-arm-elf/arm-eabi/lib/gnat/ravenscar-sfp-stm32h743nucleo/adalib/libgnat.a(s-parame.o)
                                        0x487 (size before relaxing)
 .debug_str     0x000000000000a140      0x7bb /home/badr/GNAT/2018-arm-elf/arm-eabi/lib/gnat/ravenscar-sfp-stm32h743nucleo/adalib/libgnat.a(s-secsta.o)
                                        0xd5a (size before relaxing)
 .debug_str     0x000000000000a8fb      0x11d /home/badr/GNAT/2018-arm-elf/arm-eabi/lib/gnat/ravenscar-sfp-stm32h743nucleo/adalib/libgnat.a(s-textio.o)
                                        0x348 (size before relaxing)
 .debug_str     0x000000000000aa18       0x73 /home/badr/GNAT/2018-arm-elf/arm-eabi/lib/gnat/ravenscar-sfp-stm32h743nucleo/adalib/libgnat.a(start-rom.o)
                                         0xf2 (size before relaxing)
 .debug_str     0x000000000000aa8b      0x2a5 /home/badr/GNAT/2018-arm-elf/arm-eabi/lib/gnat/ravenscar-sfp-stm32h743nucleo/adalib/libgnat.a(s-semiho.o)
                                        0x552 (size before relaxing)
 .debug_str     0x000000000000ad30       0x66 /home/badr/GNAT/2018-arm-elf/arm-eabi/lib/gnat/ravenscar-sfp-stm32h743nucleo/adalib/libgnat.a(start-common.o)
                                         0xe5 (size before relaxing)
 .debug_str     0x000000000000ad96       0xa1 /home/badr/GNAT/2018-arm-elf/bin/../lib/gcc/arm-eabi/7.3.1/thumb/v7e-m/fpv5/hard/libgcc.a(_aeabi_ldivmod.o)
                                         0xb0 (size before relaxing)
 .debug_str     0x000000000000ae37       0xb0 /home/badr/GNAT/2018-arm-elf/bin/../lib/gcc/arm-eabi/7.3.1/thumb/v7e-m/fpv5/hard/libgcc.a(_aeabi_uldivmod.o)
 .debug_str     0x000000000000ae37     0x135b /home/badr/GNAT/2018-arm-elf/bin/../lib/gcc/arm-eabi/7.3.1/thumb/v7e-m/fpv5/hard/libgcc.a(_udivmoddi4.o)
                                       0x140c (size before relaxing)
 .debug_str     0x000000000000c192       0x37 /home/badr/GNAT/2018-arm-elf/bin/../lib/gcc/arm-eabi/7.3.1/thumb/v7e-m/fpv5/hard/libgcc.a(_dvmd_tls.o)
                                         0xb4 (size before relaxing)

.debug_loc      0x0000000000000000      0xdaa
 *(.debug_loc)
 .debug_loc     0x0000000000000000      0xdaa /home/badr/GNAT/2018-arm-elf/bin/../lib/gcc/arm-eabi/7.3.1/thumb/v7e-m/fpv5/hard/libgcc.a(_udivmoddi4.o)

.debug_macinfo
 *(.debug_macinfo)

.debug_pubtypes
 *(.debug_pubtypes)

.debug_ranges   0x0000000000000000      0x898
 *(.debug_ranges)
 .debug_ranges  0x0000000000000000       0x58 /home/badr/hackinvent/Ada_Drivers_Library/boards/stm32h743_nucleo/obj/sfp_lib_Debug/libada_drivers_library.a(stm32-device.o)
 .debug_ranges  0x0000000000000058       0x40 /home/badr/hackinvent/Ada_Drivers_Library/boards/stm32h743_nucleo/obj/sfp_lib_Debug/libada_drivers_library.a(stm32-exti.o)
 .debug_ranges  0x0000000000000098       0xe8 /home/badr/hackinvent/Ada_Drivers_Library/boards/stm32h743_nucleo/obj/sfp_lib_Debug/libada_drivers_library.a(stm32-gpio.o)
 .debug_ranges  0x0000000000000180       0x10 /home/badr/hackinvent/Ada_Drivers_Library/boards/stm32h743_nucleo/obj/sfp_lib_Debug/libada_drivers_library.a(stm32-rcc.o)
 .debug_ranges  0x0000000000000190       0x30 /home/badr/hackinvent/Ada_Drivers_Library/boards/stm32h743_nucleo/obj/sfp_lib_Debug/libada_drivers_library.a(stm32-syscfg.o)
 .debug_ranges  0x00000000000001c0       0xc8 /home/badr/GNAT/2018-arm-elf/arm-eabi/lib/gnat/ravenscar-sfp-stm32h743nucleo/adalib/libgnarl.a(a-reatim.o)
 .debug_ranges  0x0000000000000288       0x18 /home/badr/GNAT/2018-arm-elf/arm-eabi/lib/gnat/ravenscar-sfp-stm32h743nucleo/adalib/libgnarl.a(a-retide.o)
 .debug_ranges  0x00000000000002a0       0x48 /home/badr/GNAT/2018-arm-elf/arm-eabi/lib/gnat/ravenscar-sfp-stm32h743nucleo/adalib/libgnarl.a(s-bbtiev.o)
 .debug_ranges  0x00000000000002e8       0x68 /home/badr/GNAT/2018-arm-elf/arm-eabi/lib/gnat/ravenscar-sfp-stm32h743nucleo/adalib/libgnarl.a(s-bbtime.o)
 .debug_ranges  0x0000000000000350       0x98 /home/badr/GNAT/2018-arm-elf/arm-eabi/lib/gnat/ravenscar-sfp-stm32h743nucleo/adalib/libgnarl.a(s-taprop.o)
 .debug_ranges  0x00000000000003e8       0x10 /home/badr/GNAT/2018-arm-elf/arm-eabi/lib/gnat/ravenscar-sfp-stm32h743nucleo/adalib/libgnarl.a(s-tasdeb.o)
 .debug_ranges  0x00000000000003f8       0x30 /home/badr/GNAT/2018-arm-elf/arm-eabi/lib/gnat/ravenscar-sfp-stm32h743nucleo/adalib/libgnarl.a(s-taskin.o)
 .debug_ranges  0x0000000000000428       0xa0 /home/badr/GNAT/2018-arm-elf/arm-eabi/lib/gnat/ravenscar-sfp-stm32h743nucleo/adalib/libgnarl.a(s-bbbosu.o)
 .debug_ranges  0x00000000000004c8       0x78 /home/badr/GNAT/2018-arm-elf/arm-eabi/lib/gnat/ravenscar-sfp-stm32h743nucleo/adalib/libgnarl.a(s-bbcppr.o)
 .debug_ranges  0x0000000000000540       0x30 /home/badr/GNAT/2018-arm-elf/arm-eabi/lib/gnat/ravenscar-sfp-stm32h743nucleo/adalib/libgnarl.a(s-bbinte.o)
 .debug_ranges  0x0000000000000570       0x18 /home/badr/GNAT/2018-arm-elf/arm-eabi/lib/gnat/ravenscar-sfp-stm32h743nucleo/adalib/libgnarl.a(s-bbprot.o)
 .debug_ranges  0x0000000000000588       0x68 /home/badr/GNAT/2018-arm-elf/arm-eabi/lib/gnat/ravenscar-sfp-stm32h743nucleo/adalib/libgnarl.a(s-bbthqu.o)
 .debug_ranges  0x00000000000005f0       0x70 /home/badr/GNAT/2018-arm-elf/arm-eabi/lib/gnat/ravenscar-sfp-stm32h743nucleo/adalib/libgnarl.a(s-bbthre.o)
 .debug_ranges  0x0000000000000660       0x20 /home/badr/GNAT/2018-arm-elf/arm-eabi/lib/gnat/ravenscar-sfp-stm32h743nucleo/adalib/libgnarl.a(s-bcpcst.o)
 .debug_ranges  0x0000000000000680       0x18 /home/badr/GNAT/2018-arm-elf/arm-eabi/lib/gnat/ravenscar-sfp-stm32h743nucleo/adalib/libgnat.a(a-elchha.o)
 .debug_ranges  0x0000000000000698       0x30 /home/badr/GNAT/2018-arm-elf/arm-eabi/lib/gnat/ravenscar-sfp-stm32h743nucleo/adalib/libgnat.a(g-io.o)
 .debug_ranges  0x00000000000006c8       0x10 /home/badr/GNAT/2018-arm-elf/arm-eabi/lib/gnat/ravenscar-sfp-stm32h743nucleo/adalib/libgnat.a(s-assert.o)
 .debug_ranges  0x00000000000006d8       0x20 /home/badr/GNAT/2018-arm-elf/arm-eabi/lib/gnat/ravenscar-sfp-stm32h743nucleo/adalib/libgnat.a(s-macres.o)
 .debug_ranges  0x00000000000006f8       0x10 /home/badr/GNAT/2018-arm-elf/arm-eabi/lib/gnat/ravenscar-sfp-stm32h743nucleo/adalib/libgnat.a(s-memcop.o)
 .debug_ranges  0x0000000000000708       0x10 /home/badr/GNAT/2018-arm-elf/arm-eabi/lib/gnat/ravenscar-sfp-stm32h743nucleo/adalib/libgnat.a(s-memset.o)
 .debug_ranges  0x0000000000000718       0x10 /home/badr/GNAT/2018-arm-elf/arm-eabi/lib/gnat/ravenscar-sfp-stm32h743nucleo/adalib/libgnat.a(s-parame.o)
 .debug_ranges  0x0000000000000728       0x30 /home/badr/GNAT/2018-arm-elf/arm-eabi/lib/gnat/ravenscar-sfp-stm32h743nucleo/adalib/libgnat.a(s-secsta.o)
 .debug_ranges  0x0000000000000758       0x38 /home/badr/GNAT/2018-arm-elf/arm-eabi/lib/gnat/ravenscar-sfp-stm32h743nucleo/adalib/libgnat.a(s-textio.o)
 .debug_ranges  0x0000000000000790       0x30 /home/badr/GNAT/2018-arm-elf/arm-eabi/lib/gnat/ravenscar-sfp-stm32h743nucleo/adalib/libgnat.a(s-semiho.o)
 .debug_ranges  0x00000000000007c0       0xd8 /home/badr/GNAT/2018-arm-elf/bin/../lib/gcc/arm-eabi/7.3.1/thumb/v7e-m/fpv5/hard/libgcc.a(_udivmoddi4.o)

.comment        0x0000000000000000       0x3d
 .comment       0x0000000000000000       0x3d blink.o
                                         0x3e (size before relaxing)
 .comment       0x000000000000003d       0x3e b__blink.o
 .comment       0x000000000000003d       0x3e /home/badr/hackinvent/Ada_Drivers_Library/boards/stm32h743_nucleo/obj/sfp_lib_Debug/libada_drivers_library.a(stm32-device.o)
 .comment       0x000000000000003d       0x3e /home/badr/hackinvent/Ada_Drivers_Library/boards/stm32h743_nucleo/obj/sfp_lib_Debug/libada_drivers_library.a(stm32-exti.o)
 .comment       0x000000000000003d       0x3e /home/badr/hackinvent/Ada_Drivers_Library/boards/stm32h743_nucleo/obj/sfp_lib_Debug/libada_drivers_library.a(stm32-gpio.o)
 .comment       0x000000000000003d       0x3e /home/badr/hackinvent/Ada_Drivers_Library/boards/stm32h743_nucleo/obj/sfp_lib_Debug/libada_drivers_library.a(stm32-rcc.o)
 .comment       0x000000000000003d       0x3e /home/badr/hackinvent/Ada_Drivers_Library/boards/stm32h743_nucleo/obj/sfp_lib_Debug/libada_drivers_library.a(stm32-syscfg.o)
 .comment       0x000000000000003d       0x3e /home/badr/hackinvent/Ada_Drivers_Library/boards/stm32h743_nucleo/obj/sfp_lib_Debug/libada_drivers_library.a(hal-gpio.o)
 .comment       0x000000000000003d       0x3e /home/badr/GNAT/2018-arm-elf/arm-eabi/lib/gnat/ravenscar-sfp-stm32h743nucleo/adalib/libgnarl.a(a-reatim.o)
 .comment       0x000000000000003d       0x3e /home/badr/GNAT/2018-arm-elf/arm-eabi/lib/gnat/ravenscar-sfp-stm32h743nucleo/adalib/libgnarl.a(a-retide.o)
 .comment       0x000000000000003d       0x3e /home/badr/GNAT/2018-arm-elf/arm-eabi/lib/gnat/ravenscar-sfp-stm32h743nucleo/adalib/libgnarl.a(s-bbtiev.o)
 .comment       0x000000000000003d       0x3e /home/badr/GNAT/2018-arm-elf/arm-eabi/lib/gnat/ravenscar-sfp-stm32h743nucleo/adalib/libgnarl.a(s-bbtime.o)
 .comment       0x000000000000003d       0x3e /home/badr/GNAT/2018-arm-elf/arm-eabi/lib/gnat/ravenscar-sfp-stm32h743nucleo/adalib/libgnarl.a(s-taprop.o)
 .comment       0x000000000000003d       0x3e /home/badr/GNAT/2018-arm-elf/arm-eabi/lib/gnat/ravenscar-sfp-stm32h743nucleo/adalib/libgnarl.a(s-tasdeb.o)
 .comment       0x000000000000003d       0x3e /home/badr/GNAT/2018-arm-elf/arm-eabi/lib/gnat/ravenscar-sfp-stm32h743nucleo/adalib/libgnarl.a(s-taskin.o)
 .comment       0x000000000000003d       0x3e /home/badr/GNAT/2018-arm-elf/arm-eabi/lib/gnat/ravenscar-sfp-stm32h743nucleo/adalib/libgnarl.a(s-bbbosu.o)
 .comment       0x000000000000003d       0x3e /home/badr/GNAT/2018-arm-elf/arm-eabi/lib/gnat/ravenscar-sfp-stm32h743nucleo/adalib/libgnarl.a(s-bbcppr.o)
 .comment       0x000000000000003d       0x3e /home/badr/GNAT/2018-arm-elf/arm-eabi/lib/gnat/ravenscar-sfp-stm32h743nucleo/adalib/libgnarl.a(s-bbinte.o)
 .comment       0x000000000000003d       0x3e /home/badr/GNAT/2018-arm-elf/arm-eabi/lib/gnat/ravenscar-sfp-stm32h743nucleo/adalib/libgnarl.a(s-bbprot.o)
 .comment       0x000000000000003d       0x3e /home/badr/GNAT/2018-arm-elf/arm-eabi/lib/gnat/ravenscar-sfp-stm32h743nucleo/adalib/libgnarl.a(s-bbthqu.o)
 .comment       0x000000000000003d       0x3e /home/badr/GNAT/2018-arm-elf/arm-eabi/lib/gnat/ravenscar-sfp-stm32h743nucleo/adalib/libgnarl.a(s-bbthre.o)
 .comment       0x000000000000003d       0x3e /home/badr/GNAT/2018-arm-elf/arm-eabi/lib/gnat/ravenscar-sfp-stm32h743nucleo/adalib/libgnarl.a(s-bcpcst.o)
 .comment       0x000000000000003d       0x3e /home/badr/GNAT/2018-arm-elf/arm-eabi/lib/gnat/ravenscar-sfp-stm32h743nucleo/adalib/libgnat.a(a-elchha.o)
 .comment       0x000000000000003d       0x3e /home/badr/GNAT/2018-arm-elf/arm-eabi/lib/gnat/ravenscar-sfp-stm32h743nucleo/adalib/libgnat.a(a-except.o)
 .comment       0x000000000000003d       0x3e /home/badr/GNAT/2018-arm-elf/arm-eabi/lib/gnat/ravenscar-sfp-stm32h743nucleo/adalib/libgnat.a(g-io.o)
 .comment       0x000000000000003d       0x3e /home/badr/GNAT/2018-arm-elf/arm-eabi/lib/gnat/ravenscar-sfp-stm32h743nucleo/adalib/libgnat.a(s-assert.o)
 .comment       0x000000000000003d       0x3e /home/badr/GNAT/2018-arm-elf/arm-eabi/lib/gnat/ravenscar-sfp-stm32h743nucleo/adalib/libgnat.a(s-macres.o)
 .comment       0x000000000000003d       0x3e /home/badr/GNAT/2018-arm-elf/arm-eabi/lib/gnat/ravenscar-sfp-stm32h743nucleo/adalib/libgnat.a(s-memcop.o)
 .comment       0x000000000000003d       0x3e /home/badr/GNAT/2018-arm-elf/arm-eabi/lib/gnat/ravenscar-sfp-stm32h743nucleo/adalib/libgnat.a(s-memset.o)
 .comment       0x000000000000003d       0x3e /home/badr/GNAT/2018-arm-elf/arm-eabi/lib/gnat/ravenscar-sfp-stm32h743nucleo/adalib/libgnat.a(s-parame.o)
 .comment       0x000000000000003d       0x3e /home/badr/GNAT/2018-arm-elf/arm-eabi/lib/gnat/ravenscar-sfp-stm32h743nucleo/adalib/libgnat.a(s-secsta.o)
 .comment       0x000000000000003d       0x3e /home/badr/GNAT/2018-arm-elf/arm-eabi/lib/gnat/ravenscar-sfp-stm32h743nucleo/adalib/libgnat.a(s-textio.o)
 .comment       0x000000000000003d       0x3e /home/badr/GNAT/2018-arm-elf/arm-eabi/lib/gnat/ravenscar-sfp-stm32h743nucleo/adalib/libgnat.a(s-semiho.o)
 .comment       0x000000000000003d       0x3e /home/badr/GNAT/2018-arm-elf/bin/../lib/gcc/arm-eabi/7.3.1/thumb/v7e-m/fpv5/hard/libgcc.a(_udivmoddi4.o)

.ARM.attributes
                0x0000000000000000       0x35
 .ARM.attributes
                0x0000000000000000       0x35 blink.o
 .ARM.attributes
                0x0000000000000035       0x35 b__blink.o
 .ARM.attributes
                0x000000000000006a       0x35 /home/badr/hackinvent/Ada_Drivers_Library/boards/stm32h743_nucleo/obj/sfp_lib_Debug/libada_drivers_library.a(stm32-device.o)
 .ARM.attributes
                0x000000000000009f       0x35 /home/badr/hackinvent/Ada_Drivers_Library/boards/stm32h743_nucleo/obj/sfp_lib_Debug/libada_drivers_library.a(stm32-exti.o)
 .ARM.attributes
                0x00000000000000d4       0x35 /home/badr/hackinvent/Ada_Drivers_Library/boards/stm32h743_nucleo/obj/sfp_lib_Debug/libada_drivers_library.a(stm32-gpio.o)
 .ARM.attributes
                0x0000000000000109       0x35 /home/badr/hackinvent/Ada_Drivers_Library/boards/stm32h743_nucleo/obj/sfp_lib_Debug/libada_drivers_library.a(stm32-rcc.o)
 .ARM.attributes
                0x000000000000013e       0x35 /home/badr/hackinvent/Ada_Drivers_Library/boards/stm32h743_nucleo/obj/sfp_lib_Debug/libada_drivers_library.a(stm32-syscfg.o)
 .ARM.attributes
                0x0000000000000173       0x35 /home/badr/hackinvent/Ada_Drivers_Library/boards/stm32h743_nucleo/obj/sfp_lib_Debug/libada_drivers_library.a(hal-gpio.o)
 .ARM.attributes
                0x00000000000001a8       0x35 /home/badr/GNAT/2018-arm-elf/arm-eabi/lib/gnat/ravenscar-sfp-stm32h743nucleo/adalib/libgnarl.a(a-reatim.o)
 .ARM.attributes
                0x00000000000001dd       0x35 /home/badr/GNAT/2018-arm-elf/arm-eabi/lib/gnat/ravenscar-sfp-stm32h743nucleo/adalib/libgnarl.a(a-retide.o)
 .ARM.attributes
                0x0000000000000212       0x35 /home/badr/GNAT/2018-arm-elf/arm-eabi/lib/gnat/ravenscar-sfp-stm32h743nucleo/adalib/libgnarl.a(s-bbtiev.o)
 .ARM.attributes
                0x0000000000000247       0x35 /home/badr/GNAT/2018-arm-elf/arm-eabi/lib/gnat/ravenscar-sfp-stm32h743nucleo/adalib/libgnarl.a(s-bbtime.o)
 .ARM.attributes
                0x000000000000027c       0x35 /home/badr/GNAT/2018-arm-elf/arm-eabi/lib/gnat/ravenscar-sfp-stm32h743nucleo/adalib/libgnarl.a(s-taprop.o)
 .ARM.attributes
                0x00000000000002b1       0x35 /home/badr/GNAT/2018-arm-elf/arm-eabi/lib/gnat/ravenscar-sfp-stm32h743nucleo/adalib/libgnarl.a(s-tasdeb.o)
 .ARM.attributes
                0x00000000000002e6       0x35 /home/badr/GNAT/2018-arm-elf/arm-eabi/lib/gnat/ravenscar-sfp-stm32h743nucleo/adalib/libgnarl.a(s-taskin.o)
 .ARM.attributes
                0x000000000000031b       0x35 /home/badr/GNAT/2018-arm-elf/arm-eabi/lib/gnat/ravenscar-sfp-stm32h743nucleo/adalib/libgnarl.a(s-bbbosu.o)
 .ARM.attributes
                0x0000000000000350       0x35 /home/badr/GNAT/2018-arm-elf/arm-eabi/lib/gnat/ravenscar-sfp-stm32h743nucleo/adalib/libgnarl.a(s-bbcppr.o)
 .ARM.attributes
                0x0000000000000385       0x35 /home/badr/GNAT/2018-arm-elf/arm-eabi/lib/gnat/ravenscar-sfp-stm32h743nucleo/adalib/libgnarl.a(s-bbinte.o)
 .ARM.attributes
                0x00000000000003ba       0x35 /home/badr/GNAT/2018-arm-elf/arm-eabi/lib/gnat/ravenscar-sfp-stm32h743nucleo/adalib/libgnarl.a(s-bbprot.o)
 .ARM.attributes
                0x00000000000003ef       0x35 /home/badr/GNAT/2018-arm-elf/arm-eabi/lib/gnat/ravenscar-sfp-stm32h743nucleo/adalib/libgnarl.a(s-bbthqu.o)
 .ARM.attributes
                0x0000000000000424       0x35 /home/badr/GNAT/2018-arm-elf/arm-eabi/lib/gnat/ravenscar-sfp-stm32h743nucleo/adalib/libgnarl.a(s-bbthre.o)
 .ARM.attributes
                0x0000000000000459       0x35 /home/badr/GNAT/2018-arm-elf/arm-eabi/lib/gnat/ravenscar-sfp-stm32h743nucleo/adalib/libgnarl.a(s-bcpcst.o)
 .ARM.attributes
                0x000000000000048e       0x23 /home/badr/GNAT/2018-arm-elf/arm-eabi/lib/gnat/ravenscar-sfp-stm32h743nucleo/adalib/libgnarl.a(handler.o)
 .ARM.attributes
                0x00000000000004b1       0x35 /home/badr/GNAT/2018-arm-elf/arm-eabi/lib/gnat/ravenscar-sfp-stm32h743nucleo/adalib/libgnat.a(a-elchha.o)
 .ARM.attributes
                0x00000000000004e6       0x35 /home/badr/GNAT/2018-arm-elf/arm-eabi/lib/gnat/ravenscar-sfp-stm32h743nucleo/adalib/libgnat.a(a-except.o)
 .ARM.attributes
                0x000000000000051b       0x23 /home/badr/GNAT/2018-arm-elf/arm-eabi/lib/gnat/ravenscar-sfp-stm32h743nucleo/adalib/libgnat.a(breakpoint_handler-cortexm.o)
 .ARM.attributes
                0x000000000000053e       0x35 /home/badr/GNAT/2018-arm-elf/arm-eabi/lib/gnat/ravenscar-sfp-stm32h743nucleo/adalib/libgnat.a(g-io.o)
 .ARM.attributes
                0x0000000000000573       0x35 /home/badr/GNAT/2018-arm-elf/arm-eabi/lib/gnat/ravenscar-sfp-stm32h743nucleo/adalib/libgnat.a(s-assert.o)
 .ARM.attributes
                0x00000000000005a8       0x35 /home/badr/GNAT/2018-arm-elf/arm-eabi/lib/gnat/ravenscar-sfp-stm32h743nucleo/adalib/libgnat.a(s-macres.o)
 .ARM.attributes
                0x00000000000005dd       0x35 /home/badr/GNAT/2018-arm-elf/arm-eabi/lib/gnat/ravenscar-sfp-stm32h743nucleo/adalib/libgnat.a(s-memcop.o)
 .ARM.attributes
                0x0000000000000612       0x35 /home/badr/GNAT/2018-arm-elf/arm-eabi/lib/gnat/ravenscar-sfp-stm32h743nucleo/adalib/libgnat.a(s-memset.o)
 .ARM.attributes
                0x0000000000000647       0x35 /home/badr/GNAT/2018-arm-elf/arm-eabi/lib/gnat/ravenscar-sfp-stm32h743nucleo/adalib/libgnat.a(s-parame.o)
 .ARM.attributes
                0x000000000000067c       0x35 /home/badr/GNAT/2018-arm-elf/arm-eabi/lib/gnat/ravenscar-sfp-stm32h743nucleo/adalib/libgnat.a(s-secsta.o)
 .ARM.attributes
                0x00000000000006b1       0x35 /home/badr/GNAT/2018-arm-elf/arm-eabi/lib/gnat/ravenscar-sfp-stm32h743nucleo/adalib/libgnat.a(s-textio.o)
 .ARM.attributes
                0x00000000000006e6       0x23 /home/badr/GNAT/2018-arm-elf/arm-eabi/lib/gnat/ravenscar-sfp-stm32h743nucleo/adalib/libgnat.a(start-rom.o)
 .ARM.attributes
                0x0000000000000709       0x35 /home/badr/GNAT/2018-arm-elf/arm-eabi/lib/gnat/ravenscar-sfp-stm32h743nucleo/adalib/libgnat.a(s-semiho.o)
 .ARM.attributes
                0x000000000000073e       0x23 /home/badr/GNAT/2018-arm-elf/arm-eabi/lib/gnat/ravenscar-sfp-stm32h743nucleo/adalib/libgnat.a(start-common.o)
 .ARM.attributes
                0x0000000000000761       0x20 /home/badr/GNAT/2018-arm-elf/bin/../lib/gcc/arm-eabi/7.3.1/thumb/v7e-m/fpv5/hard/libgcc.a(_aeabi_ldivmod.o)
 .ARM.attributes
                0x0000000000000781       0x20 /home/badr/GNAT/2018-arm-elf/bin/../lib/gcc/arm-eabi/7.3.1/thumb/v7e-m/fpv5/hard/libgcc.a(_aeabi_uldivmod.o)
 .ARM.attributes
                0x00000000000007a1       0x32 /home/badr/GNAT/2018-arm-elf/bin/../lib/gcc/arm-eabi/7.3.1/thumb/v7e-m/fpv5/hard/libgcc.a(_udivmoddi4.o)
 .ARM.attributes
                0x00000000000007d3       0x20 /home/badr/GNAT/2018-arm-elf/bin/../lib/gcc/arm-eabi/7.3.1/thumb/v7e-m/fpv5/hard/libgcc.a(_dvmd_tls.o)

.gnu.attributes
 *(.gnu.attributes)

/DISCARD/
 *(.note.GNU-stack)
 *(.gnu_debuglink)
 *(.gnu.lto_*)
OUTPUT(blink elf32-littlearm)
