Archive member included to satisfy reference by file (symbol)

/home/badr/hackinvent/Ada_Drivers_Library/boards/stm32h743_nucleo/obj/sfp_lib_Debug/libada_drivers_library.a(stm32-board.o)
                              spi.o (stm32__board__initialize_spi4)
/home/badr/hackinvent/Ada_Drivers_Library/boards/stm32h743_nucleo/obj/sfp_lib_Debug/libada_drivers_library.a(stm32-device.o)
                              spi.o (stm32__device__enable_clock_main)
/home/badr/hackinvent/Ada_Drivers_Library/boards/stm32h743_nucleo/obj/sfp_lib_Debug/libada_drivers_library.a(stm32-exti.o)
                              b__spi.o (stm32__exti_E)
/home/badr/hackinvent/Ada_Drivers_Library/boards/stm32h743_nucleo/obj/sfp_lib_Debug/libada_drivers_library.a(stm32-gpio.o)
                              /home/badr/hackinvent/Ada_Drivers_Library/boards/stm32h743_nucleo/obj/sfp_lib_Debug/libada_drivers_library.a(stm32-board.o) (stm32__gpio__gpio_port_configurationIP)
/home/badr/hackinvent/Ada_Drivers_Library/boards/stm32h743_nucleo/obj/sfp_lib_Debug/libada_drivers_library.a(stm32-rcc.o)
                              /home/badr/hackinvent/Ada_Drivers_Library/boards/stm32h743_nucleo/obj/sfp_lib_Debug/libada_drivers_library.a(stm32-gpio.o) (stm32__rcc__syscfg_clock_enable)
/home/badr/hackinvent/Ada_Drivers_Library/boards/stm32h743_nucleo/obj/sfp_lib_Debug/libada_drivers_library.a(stm32-spi.o)
                              /home/badr/hackinvent/Ada_Drivers_Library/boards/stm32h743_nucleo/obj/sfp_lib_Debug/libada_drivers_library.a(stm32-device.o) (stm32__spi__spi_portIP)
/home/badr/hackinvent/Ada_Drivers_Library/boards/stm32h743_nucleo/obj/sfp_lib_Debug/libada_drivers_library.a(stm32-syscfg.o)
                              /home/badr/hackinvent/Ada_Drivers_Library/boards/stm32h743_nucleo/obj/sfp_lib_Debug/libada_drivers_library.a(stm32-gpio.o) (stm32__syscfg__connect_external_interrupt__2)
/home/badr/hackinvent/Ada_Drivers_Library/boards/stm32h743_nucleo/obj/sfp_lib_Debug/libada_drivers_library.a(hal-gpio.o)
                              /home/badr/hackinvent/Ada_Drivers_Library/boards/stm32h743_nucleo/obj/sfp_lib_Debug/libada_drivers_library.a(stm32-gpio.o) (hal__gpio__gpio_pointT)
/home/badr/hackinvent/Ada_Drivers_Library/boards/stm32h743_nucleo/obj/sfp_lib_Debug/libada_drivers_library.a(hal-spi.o)
                              /home/badr/hackinvent/Ada_Drivers_Library/boards/stm32h743_nucleo/obj/sfp_lib_Debug/libada_drivers_library.a(stm32-spi.o) (hal__spi__spi_portT)
/home/badr/GNAT/2018-arm-elf/arm-eabi/lib/gnat/ravenscar-sfp-stm32h743nucleo/adalib/libgnarl.a(a-reatim.o)
                              spi.o (ada__real_time__Oadd)
/home/badr/GNAT/2018-arm-elf/arm-eabi/lib/gnat/ravenscar-sfp-stm32h743nucleo/adalib/libgnarl.a(a-retide.o)
                              spi.o (ada__real_time__delays__delay_until)
/home/badr/GNAT/2018-arm-elf/arm-eabi/lib/gnat/ravenscar-sfp-stm32h743nucleo/adalib/libgnarl.a(s-bbtiev.o)
                              b__spi.o (system__bb__timing_events___elabb)
/home/badr/GNAT/2018-arm-elf/arm-eabi/lib/gnat/ravenscar-sfp-stm32h743nucleo/adalib/libgnarl.a(s-bbtime.o)
                              /home/badr/GNAT/2018-arm-elf/arm-eabi/lib/gnat/ravenscar-sfp-stm32h743nucleo/adalib/libgnarl.a(s-bbtiev.o) (system__bb__time__get_next_timeout)
/home/badr/GNAT/2018-arm-elf/arm-eabi/lib/gnat/ravenscar-sfp-stm32h743nucleo/adalib/libgnarl.a(s-taprop.o)
                              /home/badr/GNAT/2018-arm-elf/arm-eabi/lib/gnat/ravenscar-sfp-stm32h743nucleo/adalib/libgnarl.a(a-retide.o) (system__task_primitives__operations(short,...)(long, float))
/home/badr/GNAT/2018-arm-elf/arm-eabi/lib/gnat/ravenscar-sfp-stm32h743nucleo/adalib/libgnarl.a(s-tasdeb.o)
                              /home/badr/GNAT/2018-arm-elf/arm-eabi/lib/gnat/ravenscar-sfp-stm32h743nucleo/adalib/libgnarl.a(s-taprop.o) (system__tasking__debug__add_task_id)
/home/badr/GNAT/2018-arm-elf/arm-eabi/lib/gnat/ravenscar-sfp-stm32h743nucleo/adalib/libgnarl.a(s-taskin.o)
                              /home/badr/GNAT/2018-arm-elf/arm-eabi/lib/gnat/ravenscar-sfp-stm32h743nucleo/adalib/libgnarl.a(s-taprop.o) (system__tasking__initialize_atcb)
/home/badr/GNAT/2018-arm-elf/arm-eabi/lib/gnat/ravenscar-sfp-stm32h743nucleo/adalib/libgnarl.a(s-bbbosu.o)
                              /home/badr/GNAT/2018-arm-elf/arm-eabi/lib/gnat/ravenscar-sfp-stm32h743nucleo/adalib/libgnarl.a(s-bbtime.o) (system__bb__board_support__time__max_timer_interval)
/home/badr/GNAT/2018-arm-elf/arm-eabi/lib/gnat/ravenscar-sfp-stm32h743nucleo/adalib/libgnarl.a(s-bbcppr.o)
                              /home/badr/GNAT/2018-arm-elf/arm-eabi/lib/gnat/ravenscar-sfp-stm32h743nucleo/adalib/libgnarl.a(s-bbbosu.o) (system__bb__cpu_primitives__enable_interrupts)
/home/badr/GNAT/2018-arm-elf/arm-eabi/lib/gnat/ravenscar-sfp-stm32h743nucleo/adalib/libgnarl.a(s-bbinte.o)
                              /home/badr/GNAT/2018-arm-elf/arm-eabi/lib/gnat/ravenscar-sfp-stm32h743nucleo/adalib/libgnarl.a(s-bbbosu.o) (system__bb__interrupts__attach_handler)
/home/badr/GNAT/2018-arm-elf/arm-eabi/lib/gnat/ravenscar-sfp-stm32h743nucleo/adalib/libgnarl.a(s-bbprot.o)
                              /home/badr/GNAT/2018-arm-elf/arm-eabi/lib/gnat/ravenscar-sfp-stm32h743nucleo/adalib/libgnarl.a(s-bbtime.o) (system__bb__protection__enter_kernel)
/home/badr/GNAT/2018-arm-elf/arm-eabi/lib/gnat/ravenscar-sfp-stm32h743nucleo/adalib/libgnarl.a(s-bbthqu.o)
                              /home/badr/GNAT/2018-arm-elf/arm-eabi/lib/gnat/ravenscar-sfp-stm32h743nucleo/adalib/libgnarl.a(s-bbtiev.o) (system__bb__threads__queues__change_priority)
/home/badr/GNAT/2018-arm-elf/arm-eabi/lib/gnat/ravenscar-sfp-stm32h743nucleo/adalib/libgnarl.a(s-bbthre.o)
                              /home/badr/GNAT/2018-arm-elf/arm-eabi/lib/gnat/ravenscar-sfp-stm32h743nucleo/adalib/libgnarl.a(s-taprop.o) (system__bb__threads__get_affinity)
/home/badr/GNAT/2018-arm-elf/arm-eabi/lib/gnat/ravenscar-sfp-stm32h743nucleo/adalib/libgnarl.a(s-bcpcst.o)
                              /home/badr/GNAT/2018-arm-elf/arm-eabi/lib/gnat/ravenscar-sfp-stm32h743nucleo/adalib/libgnarl.a(s-bbcppr.o) (system__bb__cpu_primitives__context_switch_trigger__initialize_context_switch)
/home/badr/GNAT/2018-arm-elf/arm-eabi/lib/gnat/ravenscar-sfp-stm32h743nucleo/adalib/libgnarl.a(handler.o)
                              /home/badr/GNAT/2018-arm-elf/arm-eabi/lib/gnat/ravenscar-sfp-stm32h743nucleo/adalib/libgnarl.a(s-bbcppr.o) (__vectors)
/home/badr/GNAT/2018-arm-elf/arm-eabi/lib/gnat/ravenscar-sfp-stm32h743nucleo/adalib/libgnat.a(a-elchha.o)
                              /home/badr/hackinvent/Ada_Drivers_Library/boards/stm32h743_nucleo/obj/sfp_lib_Debug/libada_drivers_library.a(stm32-board.o) (__gnat_last_chance_handler)
/home/badr/GNAT/2018-arm-elf/arm-eabi/lib/gnat/ravenscar-sfp-stm32h743nucleo/adalib/libgnat.a(a-except.o)
                              /home/badr/hackinvent/Ada_Drivers_Library/boards/stm32h743_nucleo/obj/sfp_lib_Debug/libada_drivers_library.a(stm32-device.o) (ada__exceptions__empty_c_string___UNC)
/home/badr/GNAT/2018-arm-elf/arm-eabi/lib/gnat/ravenscar-sfp-stm32h743nucleo/adalib/libgnat.a(breakpoint_handler-cortexm.o)
                              /home/badr/GNAT/2018-arm-elf/arm-eabi/lib/gnat/ravenscar-sfp-stm32h743nucleo/adalib/libgnarl.a(handler.o) (__gnat_bkpt_trap)
/home/badr/GNAT/2018-arm-elf/arm-eabi/lib/gnat/ravenscar-sfp-stm32h743nucleo/adalib/libgnat.a(g-io.o)
                              /home/badr/GNAT/2018-arm-elf/arm-eabi/lib/gnat/ravenscar-sfp-stm32h743nucleo/adalib/libgnat.a(a-elchha.o) (gnat__io__put__2)
/home/badr/GNAT/2018-arm-elf/arm-eabi/lib/gnat/ravenscar-sfp-stm32h743nucleo/adalib/libgnat.a(s-assert.o)
                              /home/badr/hackinvent/Ada_Drivers_Library/boards/stm32h743_nucleo/obj/sfp_lib_Debug/libada_drivers_library.a(stm32-gpio.o) (system__assertions__raise_assert_failure)
/home/badr/GNAT/2018-arm-elf/arm-eabi/lib/gnat/ravenscar-sfp-stm32h743nucleo/adalib/libgnat.a(s-macres.o)
                              /home/badr/GNAT/2018-arm-elf/arm-eabi/lib/gnat/ravenscar-sfp-stm32h743nucleo/adalib/libgnat.a(a-elchha.o) (system__machine_reset__stop)
/home/badr/GNAT/2018-arm-elf/arm-eabi/lib/gnat/ravenscar-sfp-stm32h743nucleo/adalib/libgnat.a(s-memcop.o)
                              /home/badr/hackinvent/Ada_Drivers_Library/boards/stm32h743_nucleo/obj/sfp_lib_Debug/libada_drivers_library.a(stm32-device.o) (memcpy)
/home/badr/GNAT/2018-arm-elf/arm-eabi/lib/gnat/ravenscar-sfp-stm32h743nucleo/adalib/libgnat.a(s-memset.o)
                              /home/badr/GNAT/2018-arm-elf/arm-eabi/lib/gnat/ravenscar-sfp-stm32h743nucleo/adalib/libgnarl.a(s-bbcppr.o) (memset)
/home/badr/GNAT/2018-arm-elf/arm-eabi/lib/gnat/ravenscar-sfp-stm32h743nucleo/adalib/libgnat.a(s-parame.o)
                              /home/badr/GNAT/2018-arm-elf/arm-eabi/lib/gnat/ravenscar-sfp-stm32h743nucleo/adalib/libgnarl.a(s-taskin.o) (system__parameters__adjust_storage_size)
/home/badr/GNAT/2018-arm-elf/arm-eabi/lib/gnat/ravenscar-sfp-stm32h743nucleo/adalib/libgnat.a(s-secsta.o)
                              b__spi.o (system__secondary_stack__ss_stackIP)
/home/badr/GNAT/2018-arm-elf/arm-eabi/lib/gnat/ravenscar-sfp-stm32h743nucleo/adalib/libgnat.a(s-textio.o)
                              /home/badr/GNAT/2018-arm-elf/arm-eabi/lib/gnat/ravenscar-sfp-stm32h743nucleo/adalib/libgnat.a(g-io.o) (system__text_io__initialize)
/home/badr/GNAT/2018-arm-elf/arm-eabi/lib/gnat/ravenscar-sfp-stm32h743nucleo/adalib/libgnat.a(start-rom.o)
                              (_start_rom)
/home/badr/GNAT/2018-arm-elf/arm-eabi/lib/gnat/ravenscar-sfp-stm32h743nucleo/adalib/libgnat.a(s-semiho.o)
                              /home/badr/GNAT/2018-arm-elf/arm-eabi/lib/gnat/ravenscar-sfp-stm32h743nucleo/adalib/libgnat.a(s-textio.o) (system__semihosting__put)
/home/badr/GNAT/2018-arm-elf/arm-eabi/lib/gnat/ravenscar-sfp-stm32h743nucleo/adalib/libgnat.a(start-common.o)
                              /home/badr/GNAT/2018-arm-elf/arm-eabi/lib/gnat/ravenscar-sfp-stm32h743nucleo/adalib/libgnat.a(start-rom.o) (_stm32_start_common)
/home/badr/GNAT/2018-arm-elf/bin/../lib/gcc/arm-eabi/7.3.1/thumb/v7e-m/fpv5/hard/libgcc.a(_aeabi_ldivmod.o)
                              /home/badr/GNAT/2018-arm-elf/arm-eabi/lib/gnat/ravenscar-sfp-stm32h743nucleo/adalib/libgnarl.a(a-reatim.o) (__aeabi_ldivmod)
/home/badr/GNAT/2018-arm-elf/bin/../lib/gcc/arm-eabi/7.3.1/thumb/v7e-m/fpv5/hard/libgcc.a(_aeabi_uldivmod.o)
                              /home/badr/GNAT/2018-arm-elf/arm-eabi/lib/gnat/ravenscar-sfp-stm32h743nucleo/adalib/libgnarl.a(a-reatim.o) (__aeabi_uldivmod)
/home/badr/GNAT/2018-arm-elf/bin/../lib/gcc/arm-eabi/7.3.1/thumb/v7e-m/fpv5/hard/libgcc.a(_udivmoddi4.o)
                              /home/badr/GNAT/2018-arm-elf/bin/../lib/gcc/arm-eabi/7.3.1/thumb/v7e-m/fpv5/hard/libgcc.a(_aeabi_ldivmod.o) (__udivmoddi4)
/home/badr/GNAT/2018-arm-elf/bin/../lib/gcc/arm-eabi/7.3.1/thumb/v7e-m/fpv5/hard/libgcc.a(_dvmd_tls.o)
                              /home/badr/GNAT/2018-arm-elf/bin/../lib/gcc/arm-eabi/7.3.1/thumb/v7e-m/fpv5/hard/libgcc.a(_aeabi_ldivmod.o) (__aeabi_ldiv0)

Memory Configuration

Name             Origin             Length             Attributes
ITCMRAM          0x0000000000000000 0x0000000000010000 xrw
FLASH            0x0000000008000000 0x0000000000200000 xr
DTCMRAM          0x0000000020000000 0x0000000000020000 xrw
RAM_D1           0x0000000024000000 0x0000000000080000 xrw
RAM_D2           0x0000000030000000 0x0000000000048000 xrw
RAM_D3           0x0000000038000000 0x0000000000010000 xrw
*default*        0x0000000000000000 0xffffffffffffffff

Linker script and memory map

LOAD spi.o
LOAD b__spi.o
LOAD /home/badr/hackinvent/Ada_Drivers_Library/boards/stm32h743_nucleo/obj/sfp_lib_Debug/libada_drivers_library.a
LOAD /home/badr/GNAT/2018-arm-elf/arm-eabi/lib/gnat/ravenscar-sfp-stm32h743nucleo/adalib/libgnarl.a
LOAD /home/badr/GNAT/2018-arm-elf/arm-eabi/lib/gnat/ravenscar-sfp-stm32h743nucleo/adalib/libgnat.a
START GROUP
LOAD /home/badr/GNAT/2018-arm-elf/bin/../lib/gcc/arm-eabi/7.3.1/thumb/v7e-m/fpv5/hard/libgcc.a
END GROUP
                0x0000000020020000                _estack = 0x20020000
                0x0000000000000200                _Min_Heap_Size = 0x200
                0x0000000000000400                _Min_Stack_Size = 0x400
                0x0000000000000000                __DYNAMIC = 0x0
                0x0000000000001000                _DEFAULT_STACK_SIZE = 0x1000

.text           0x0000000008000000     0xbaf4
 *(.vectors)
 .vectors       0x0000000008000000       0x14 /home/badr/GNAT/2018-arm-elf/arm-eabi/lib/gnat/ravenscar-sfp-stm32h743nucleo/adalib/libgnat.a(start-rom.o)
 *(.text .text.* .gnu.linkonce.t*)
 .text          0x0000000008000014       0x88 spi.o
                0x0000000008000040                _ada_spi
 .text          0x000000000800009c      0x168 b__spi.o
                0x000000000800009c                ada_main__Tsec_default_sized_stacksBIP
                0x00000000080000e0                adainit
                0x00000000080001cc                main
                0x00000000080001e8                ada_main___elabb
 .text          0x0000000008000204        0x0 /home/badr/hackinvent/Ada_Drivers_Library/boards/stm32h743_nucleo/obj/sfp_lib_Debug/libada_drivers_library.a(stm32-board.o)
 .text.stm32__board__all_leds_off
                0x0000000008000204       0x1c /home/badr/hackinvent/Ada_Drivers_Library/boards/stm32h743_nucleo/obj/sfp_lib_Debug/libada_drivers_library.a(stm32-board.o)
                0x0000000008000204                stm32__board__all_leds_off
 .text.stm32__board__all_leds_on
                0x0000000008000220       0x1c /home/badr/hackinvent/Ada_Drivers_Library/boards/stm32h743_nucleo/obj/sfp_lib_Debug/libada_drivers_library.a(stm32-board.o)
                0x0000000008000220                stm32__board__all_leds_on
 .text.stm32__board__initialize_leds
                0x000000000800023c       0x2c /home/badr/hackinvent/Ada_Drivers_Library/boards/stm32h743_nucleo/obj/sfp_lib_Debug/libada_drivers_library.a(stm32-board.o)
                0x000000000800023c                stm32__board__initialize_leds
 .text.stm32__board__writeregister_spi4
                0x0000000008000268       0x84 /home/badr/hackinvent/Ada_Drivers_Library/boards/stm32h743_nucleo/obj/sfp_lib_Debug/libada_drivers_library.a(stm32-board.o)
                0x0000000008000268                stm32__board__writeregister_spi4
 .text.stm32__board__initialize_spi4
                0x00000000080002ec       0xa8 /home/badr/hackinvent/Ada_Drivers_Library/boards/stm32h743_nucleo/obj/sfp_lib_Debug/libada_drivers_library.a(stm32-board.o)
                0x00000000080002ec                stm32__board__initialize_spi4
 .text.stm32__board___elabs
                0x0000000008000394       0x98 /home/badr/hackinvent/Ada_Drivers_Library/boards/stm32h743_nucleo/obj/sfp_lib_Debug/libada_drivers_library.a(stm32-board.o)
                0x0000000008000394                stm32__board___elabs
 .text          0x000000000800042c        0x0 /home/badr/hackinvent/Ada_Drivers_Library/boards/stm32h743_nucleo/obj/sfp_lib_Debug/libada_drivers_library.a(stm32-device.o)
 .text.stm32__device__rcc_system_clocksIP
                0x000000000800042c       0x14 /home/badr/hackinvent/Ada_Drivers_Library/boards/stm32h743_nucleo/obj/sfp_lib_Debug/libada_drivers_library.a(stm32-device.o)
                0x000000000800042c                stm32__device__rcc_system_clocksIP
 .text.stm32__device__enable_clock_main
                0x0000000008000440      0x364 /home/badr/hackinvent/Ada_Drivers_Library/boards/stm32h743_nucleo/obj/sfp_lib_Debug/libada_drivers_library.a(stm32-device.o)
                0x0000000008000440                stm32__device__enable_clock_main
 .text.stm32__device__enable_clock
                0x00000000080007a4      0x2f0 /home/badr/hackinvent/Ada_Drivers_Library/boards/stm32h743_nucleo/obj/sfp_lib_Debug/libada_drivers_library.a(stm32-device.o)
                0x00000000080007a4                stm32__device__enable_clock
 .text.stm32__device__enable_clock__2
                0x0000000008000a94       0x18 /home/badr/hackinvent/Ada_Drivers_Library/boards/stm32h743_nucleo/obj/sfp_lib_Debug/libada_drivers_library.a(stm32-device.o)
                0x0000000008000a94                stm32__device__enable_clock__2
 .text.stm32__device__enable_clock__3
                0x0000000008000aac       0x4c /home/badr/hackinvent/Ada_Drivers_Library/boards/stm32h743_nucleo/obj/sfp_lib_Debug/libada_drivers_library.a(stm32-device.o)
                0x0000000008000aac                stm32__device__enable_clock__3
 .text.stm32__device__reset
                0x0000000008000af8      0x3a4 /home/badr/hackinvent/Ada_Drivers_Library/boards/stm32h743_nucleo/obj/sfp_lib_Debug/libada_drivers_library.a(stm32-device.o)
                0x0000000008000af8                stm32__device__reset
 .text.stm32__device__reset__2
                0x0000000008000e9c       0x18 /home/badr/hackinvent/Ada_Drivers_Library/boards/stm32h743_nucleo/obj/sfp_lib_Debug/libada_drivers_library.a(stm32-device.o)
                0x0000000008000e9c                stm32__device__reset__2
 .text.stm32__device__reset__3
                0x0000000008000eb4       0xbc /home/badr/hackinvent/Ada_Drivers_Library/boards/stm32h743_nucleo/obj/sfp_lib_Debug/libada_drivers_library.a(stm32-device.o)
                0x0000000008000eb4                stm32__device__reset__3
 .text.stm32__device__gpio_port_representation
                0x0000000008000f70       0xd0 /home/badr/hackinvent/Ada_Drivers_Library/boards/stm32h743_nucleo/obj/sfp_lib_Debug/libada_drivers_library.a(stm32-device.o)
                0x0000000008000f70                stm32__device__gpio_port_representation
 .text.stm32__device__enable_clock__4
                0x0000000008001040      0x254 /home/badr/hackinvent/Ada_Drivers_Library/boards/stm32h743_nucleo/obj/sfp_lib_Debug/libada_drivers_library.a(stm32-device.o)
                0x0000000008001040                stm32__device__enable_clock__4
 .text.stm32__device__reset__4
                0x0000000008001294      0x2b4 /home/badr/hackinvent/Ada_Drivers_Library/boards/stm32h743_nucleo/obj/sfp_lib_Debug/libada_drivers_library.a(stm32-device.o)
                0x0000000008001294                stm32__device__reset__4
 .text.stm32__device__system_clock_frequencies
                0x0000000008001548       0xf8 /home/badr/hackinvent/Ada_Drivers_Library/boards/stm32h743_nucleo/obj/sfp_lib_Debug/libada_drivers_library.a(stm32-device.o)
                0x0000000008001548                stm32__device__system_clock_frequencies
 .text.stm32__device___elabs
                0x0000000008001640     0x10c0 /home/badr/hackinvent/Ada_Drivers_Library/boards/stm32h743_nucleo/obj/sfp_lib_Debug/libada_drivers_library.a(stm32-device.o)
                0x0000000008001640                stm32__device___elabs
 .text          0x0000000008002700        0x0 /home/badr/hackinvent/Ada_Drivers_Library/boards/stm32h743_nucleo/obj/sfp_lib_Debug/libada_drivers_library.a(stm32-exti.o)
 .text.stm32__exti__enable_external_interrupt
                0x0000000008002700       0x1c /home/badr/hackinvent/Ada_Drivers_Library/boards/stm32h743_nucleo/obj/sfp_lib_Debug/libada_drivers_library.a(stm32-exti.o)
                0x0000000008002700                stm32__exti__enable_external_interrupt
 .text.stm32__exti__disable_external_interrupt
                0x000000000800271c       0x18 /home/badr/hackinvent/Ada_Drivers_Library/boards/stm32h743_nucleo/obj/sfp_lib_Debug/libada_drivers_library.a(stm32-exti.o)
                0x000000000800271c                stm32__exti__disable_external_interrupt
 .text.stm32__exti__enable_external_event
                0x0000000008002734       0x1c /home/badr/hackinvent/Ada_Drivers_Library/boards/stm32h743_nucleo/obj/sfp_lib_Debug/libada_drivers_library.a(stm32-exti.o)
                0x0000000008002734                stm32__exti__enable_external_event
 .text.stm32__exti__disable_external_event
                0x0000000008002750       0x18 /home/badr/hackinvent/Ada_Drivers_Library/boards/stm32h743_nucleo/obj/sfp_lib_Debug/libada_drivers_library.a(stm32-exti.o)
                0x0000000008002750                stm32__exti__disable_external_event
 .text.stm32__exti__generate_swi
                0x0000000008002768       0x18 /home/badr/hackinvent/Ada_Drivers_Library/boards/stm32h743_nucleo/obj/sfp_lib_Debug/libada_drivers_library.a(stm32-exti.o)
                0x0000000008002768                stm32__exti__generate_swi
 .text.stm32__exti__external_interrupt_pending
                0x0000000008002780       0x1c /home/badr/hackinvent/Ada_Drivers_Library/boards/stm32h743_nucleo/obj/sfp_lib_Debug/libada_drivers_library.a(stm32-exti.o)
                0x0000000008002780                stm32__exti__external_interrupt_pending
 .text.stm32__exti__clear_external_interrupt
                0x000000000800279c       0x18 /home/badr/hackinvent/Ada_Drivers_Library/boards/stm32h743_nucleo/obj/sfp_lib_Debug/libada_drivers_library.a(stm32-exti.o)
                0x000000000800279c                stm32__exti__clear_external_interrupt
 .text          0x00000000080027b4        0x0 /home/badr/hackinvent/Ada_Drivers_Library/boards/stm32h743_nucleo/obj/sfp_lib_Debug/libada_drivers_library.a(stm32-gpio.o)
 .text.stm32__gpio__gpio_pinRP
                0x00000000080027b4       0xd0 /home/badr/hackinvent/Ada_Drivers_Library/boards/stm32h743_nucleo/obj/sfp_lib_Debug/libada_drivers_library.a(stm32-gpio.o)
                0x00000000080027b4                stm32__gpio__gpio_pinRP
 .text.stm32__gpio__gpio_pinsIP
                0x0000000008002884       0x14 /home/badr/hackinvent/Ada_Drivers_Library/boards/stm32h743_nucleo/obj/sfp_lib_Debug/libada_drivers_library.a(stm32-gpio.o)
                0x0000000008002884                stm32__gpio__gpio_pinsIP
 .text.stm32__gpio__gpio_portEQ
                0x0000000008002898       0x18 /home/badr/hackinvent/Ada_Drivers_Library/boards/stm32h743_nucleo/obj/sfp_lib_Debug/libada_drivers_library.a(stm32-gpio.o)
                0x0000000008002898                stm32__gpio__gpio_portEQ
 .text.stm32__gpio__gpio_port_configurationD2
                0x00000000080028b0       0x24 /home/badr/hackinvent/Ada_Drivers_Library/boards/stm32h743_nucleo/obj/sfp_lib_Debug/libada_drivers_library.a(stm32-gpio.o)
                0x00000000080028b0                stm32__gpio__gpio_port_configurationD2
 .text.stm32__gpio__gpio_port_configurationD3
                0x00000000080028d4       0x24 /home/badr/hackinvent/Ada_Drivers_Library/boards/stm32h743_nucleo/obj/sfp_lib_Debug/libada_drivers_library.a(stm32-gpio.o)
                0x00000000080028d4                stm32__gpio__gpio_port_configurationD3
 .text.stm32__gpio__gpio_port_configurationEQ
                0x00000000080028f8       0x90 /home/badr/hackinvent/Ada_Drivers_Library/boards/stm32h743_nucleo/obj/sfp_lib_Debug/libada_drivers_library.a(stm32-gpio.o)
                0x00000000080028f8                stm32__gpio__gpio_port_configurationEQ
 .text.stm32__gpio__gpio_port_configurationIP
                0x0000000008002988       0x28 /home/badr/hackinvent/Ada_Drivers_Library/boards/stm32h743_nucleo/obj/sfp_lib_Debug/libada_drivers_library.a(stm32-gpio.o)
                0x0000000008002988                stm32__gpio__gpio_port_configurationIP
 .text.stm32__gpio__gpio_pointIP
                0x00000000080029b0       0x2c /home/badr/hackinvent/Ada_Drivers_Library/boards/stm32h743_nucleo/obj/sfp_lib_Debug/libada_drivers_library.a(stm32-gpio.o)
                0x00000000080029b0                stm32__gpio__gpio_pointIP
 .text.stm32__gpio___size__2
                0x00000000080029dc       0x1c /home/badr/hackinvent/Ada_Drivers_Library/boards/stm32h743_nucleo/obj/sfp_lib_Debug/libada_drivers_library.a(stm32-gpio.o)
                0x00000000080029dc                stm32__gpio___size__2
 .text.stm32__gpio__Oeq
                0x00000000080029f8       0x34 /home/badr/hackinvent/Ada_Drivers_Library/boards/stm32h743_nucleo/obj/sfp_lib_Debug/libada_drivers_library.a(stm32-gpio.o)
                0x00000000080029f8                stm32__gpio__Oeq
 .text.stm32__gpio___assign
                0x0000000008002a2c       0x24 /home/badr/hackinvent/Ada_Drivers_Library/boards/stm32h743_nucleo/obj/sfp_lib_Debug/libada_drivers_library.a(stm32-gpio.o)
                0x0000000008002a2c                stm32__gpio___assign
 .text.stm32__gpio__gpio_pointsIP
                0x0000000008002a50       0x44 /home/badr/hackinvent/Ada_Drivers_Library/boards/stm32h743_nucleo/obj/sfp_lib_Debug/libada_drivers_library.a(stm32-gpio.o)
                0x0000000008002a50                stm32__gpio__gpio_pointsIP
 .text.stm32__gpio__support
                0x0000000008002a94       0x2c /home/badr/hackinvent/Ada_Drivers_Library/boards/stm32h743_nucleo/obj/sfp_lib_Debug/libada_drivers_library.a(stm32-gpio.o)
                0x0000000008002a94                stm32__gpio__support
 .text.stm32__gpio__any_set
                0x0000000008002ac0       0x5c /home/badr/hackinvent/Ada_Drivers_Library/boards/stm32h743_nucleo/obj/sfp_lib_Debug/libada_drivers_library.a(stm32-gpio.o)
                0x0000000008002ac0                stm32__gpio__any_set
 .text.stm32__gpio__mode
                0x0000000008002b1c       0x58 /home/badr/hackinvent/Ada_Drivers_Library/boards/stm32h743_nucleo/obj/sfp_lib_Debug/libada_drivers_library.a(stm32-gpio.o)
                0x0000000008002b1c                stm32__gpio__mode
 .text.stm32__gpio__pin_io_mode
                0x0000000008002b74       0x60 /home/badr/hackinvent/Ada_Drivers_Library/boards/stm32h743_nucleo/obj/sfp_lib_Debug/libada_drivers_library.a(stm32-gpio.o)
                0x0000000008002b74                stm32__gpio__pin_io_mode
 .text.stm32__gpio__set_mode
                0x0000000008002bd4      0x110 /home/badr/hackinvent/Ada_Drivers_Library/boards/stm32h743_nucleo/obj/sfp_lib_Debug/libada_drivers_library.a(stm32-gpio.o)
                0x0000000008002bd4                stm32__gpio__set_mode
 .text.stm32__gpio__pull_resistor
                0x0000000008002ce4       0xb8 /home/badr/hackinvent/Ada_Drivers_Library/boards/stm32h743_nucleo/obj/sfp_lib_Debug/libada_drivers_library.a(stm32-gpio.o)
                0x0000000008002ce4                stm32__gpio__pull_resistor
 .text.stm32__gpio__set_pull_resistor
                0x0000000008002d9c      0x168 /home/badr/hackinvent/Ada_Drivers_Library/boards/stm32h743_nucleo/obj/sfp_lib_Debug/libada_drivers_library.a(stm32-gpio.o)
                0x0000000008002d9c                stm32__gpio__set_pull_resistor
 .text.stm32__gpio__set
                0x0000000008002f04       0x68 /home/badr/hackinvent/Ada_Drivers_Library/boards/stm32h743_nucleo/obj/sfp_lib_Debug/libada_drivers_library.a(stm32-gpio.o)
                0x0000000008002f04                stm32__gpio__set
 .text.stm32__gpio__all_set
                0x0000000008002f6c       0x64 /home/badr/hackinvent/Ada_Drivers_Library/boards/stm32h743_nucleo/obj/sfp_lib_Debug/libada_drivers_library.a(stm32-gpio.o)
                0x0000000008002f6c                stm32__gpio__all_set
 .text.stm32__gpio__set__2
                0x0000000008002fd0       0x3c /home/badr/hackinvent/Ada_Drivers_Library/boards/stm32h743_nucleo/obj/sfp_lib_Debug/libada_drivers_library.a(stm32-gpio.o)
                0x0000000008002fd0                stm32__gpio__set__2
 .text.stm32__gpio__set__4
                0x000000000800300c       0x50 /home/badr/hackinvent/Ada_Drivers_Library/boards/stm32h743_nucleo/obj/sfp_lib_Debug/libada_drivers_library.a(stm32-gpio.o)
                0x000000000800300c                stm32__gpio__set__4
 .text.stm32__gpio__clear
                0x000000000800305c       0x3c /home/badr/hackinvent/Ada_Drivers_Library/boards/stm32h743_nucleo/obj/sfp_lib_Debug/libada_drivers_library.a(stm32-gpio.o)
                0x000000000800305c                stm32__gpio__clear
 .text.stm32__gpio__clear__2
                0x0000000008003098       0x50 /home/badr/hackinvent/Ada_Drivers_Library/boards/stm32h743_nucleo/obj/sfp_lib_Debug/libada_drivers_library.a(stm32-gpio.o)
                0x0000000008003098                stm32__gpio__clear__2
 .text.stm32__gpio__toggle
                0x00000000080030e8       0x78 /home/badr/hackinvent/Ada_Drivers_Library/boards/stm32h743_nucleo/obj/sfp_lib_Debug/libada_drivers_library.a(stm32-gpio.o)
                0x00000000080030e8                stm32__gpio__toggle
 .text.stm32__gpio__toggle__2
                0x0000000008003160       0x50 /home/badr/hackinvent/Ada_Drivers_Library/boards/stm32h743_nucleo/obj/sfp_lib_Debug/libada_drivers_library.a(stm32-gpio.o)
                0x0000000008003160                stm32__gpio__toggle__2
 .text.stm32__gpio__locked
                0x00000000080031b0       0x4c /home/badr/hackinvent/Ada_Drivers_Library/boards/stm32h743_nucleo/obj/sfp_lib_Debug/libada_drivers_library.a(stm32-gpio.o)
                0x00000000080031b0                stm32__gpio__locked
 .text.stm32__gpio__lock_the_pin
                0x00000000080031fc       0x34 /home/badr/hackinvent/Ada_Drivers_Library/boards/stm32h743_nucleo/obj/sfp_lib_Debug/libada_drivers_library.a(stm32-gpio.o)
 .text.stm32__gpio__lock___postconditions.6857
                0x0000000008003230       0x3c /home/badr/hackinvent/Ada_Drivers_Library/boards/stm32h743_nucleo/obj/sfp_lib_Debug/libada_drivers_library.a(stm32-gpio.o)
 .text.stm32__gpio__lock
                0x000000000800326c       0x88 /home/badr/hackinvent/Ada_Drivers_Library/boards/stm32h743_nucleo/obj/sfp_lib_Debug/libada_drivers_library.a(stm32-gpio.o)
                0x000000000800326c                stm32__gpio__lock
 .text.stm32__gpio__lock__2
                0x00000000080032f4       0x70 /home/badr/hackinvent/Ada_Drivers_Library/boards/stm32h743_nucleo/obj/sfp_lib_Debug/libada_drivers_library.a(stm32-gpio.o)
                0x00000000080032f4                stm32__gpio__lock__2
 .text.stm32__gpio__configure_io
                0x0000000008003364      0x370 /home/badr/hackinvent/Ada_Drivers_Library/boards/stm32h743_nucleo/obj/sfp_lib_Debug/libada_drivers_library.a(stm32-gpio.o)
                0x0000000008003364                stm32__gpio__configure_io
 .text.stm32__gpio__configure_io__2
                0x00000000080036d4       0x50 /home/badr/hackinvent/Ada_Drivers_Library/boards/stm32h743_nucleo/obj/sfp_lib_Debug/libada_drivers_library.a(stm32-gpio.o)
                0x00000000080036d4                stm32__gpio__configure_io__2
 .text.stm32__gpio__configure_alternate_function
                0x0000000008003724      0x118 /home/badr/hackinvent/Ada_Drivers_Library/boards/stm32h743_nucleo/obj/sfp_lib_Debug/libada_drivers_library.a(stm32-gpio.o)
                0x0000000008003724                stm32__gpio__configure_alternate_function
 .text.stm32__gpio__configure_alternate_function__2
                0x000000000800383c       0x54 /home/badr/hackinvent/Ada_Drivers_Library/boards/stm32h743_nucleo/obj/sfp_lib_Debug/libada_drivers_library.a(stm32-gpio.o)
                0x000000000800383c                stm32__gpio__configure_alternate_function__2
 .text.stm32__gpio__interrupt_line_number
                0x0000000008003890       0x60 /home/badr/hackinvent/Ada_Drivers_Library/boards/stm32h743_nucleo/obj/sfp_lib_Debug/libada_drivers_library.a(stm32-gpio.o)
                0x0000000008003890                stm32__gpio__interrupt_line_number
 .text.stm32__gpio__configure_trigger
                0x00000000080038f0       0x9c /home/badr/hackinvent/Ada_Drivers_Library/boards/stm32h743_nucleo/obj/sfp_lib_Debug/libada_drivers_library.a(stm32-gpio.o)
                0x00000000080038f0                stm32__gpio__configure_trigger
 .text.stm32__gpio__configure_trigger__2
                0x000000000800398c       0x54 /home/badr/hackinvent/Ada_Drivers_Library/boards/stm32h743_nucleo/obj/sfp_lib_Debug/libada_drivers_library.a(stm32-gpio.o)
                0x000000000800398c                stm32__gpio__configure_trigger__2
 .text.stm32__gpio___elabb
                0x00000000080039e0       0x68 /home/badr/hackinvent/Ada_Drivers_Library/boards/stm32h743_nucleo/obj/sfp_lib_Debug/libada_drivers_library.a(stm32-gpio.o)
                0x00000000080039e0                stm32__gpio___elabb
 .text._GLOBAL__SZ39_stm32__gpio
                0x0000000008003a48       0x34 /home/badr/hackinvent/Ada_Drivers_Library/boards/stm32h743_nucleo/obj/sfp_lib_Debug/libada_drivers_library.a(stm32-gpio.o)
 .text          0x0000000008003a7c        0x0 /home/badr/hackinvent/Ada_Drivers_Library/boards/stm32h743_nucleo/obj/sfp_lib_Debug/libada_drivers_library.a(stm32-rcc.o)
 .text.stm32__rcc__syscfg_clock_enable
                0x0000000008003a7c       0x24 /home/badr/hackinvent/Ada_Drivers_Library/boards/stm32h743_nucleo/obj/sfp_lib_Debug/libada_drivers_library.a(stm32-rcc.o)
                0x0000000008003a7c                stm32__rcc__syscfg_clock_enable
 .text          0x0000000008003aa0        0x0 /home/badr/hackinvent/Ada_Drivers_Library/boards/stm32h743_nucleo/obj/sfp_lib_Debug/libada_drivers_library.a(stm32-spi.o)
 .text.stm32__spi__spi_portIP
                0x0000000008003aa0       0x30 /home/badr/hackinvent/Ada_Drivers_Library/boards/stm32h743_nucleo/obj/sfp_lib_Debug/libada_drivers_library.a(stm32-spi.o)
                0x0000000008003aa0                stm32__spi__spi_portIP
 .text.stm32__spi___size__2
                0x0000000008003ad0       0x1c /home/badr/hackinvent/Ada_Drivers_Library/boards/stm32h743_nucleo/obj/sfp_lib_Debug/libada_drivers_library.a(stm32-spi.o)
                0x0000000008003ad0                stm32__spi___size__2
 .text.stm32__spi__spi_configurationIP
                0x0000000008003aec       0x14 /home/badr/hackinvent/Ada_Drivers_Library/boards/stm32h743_nucleo/obj/sfp_lib_Debug/libada_drivers_library.a(stm32-spi.o)
                0x0000000008003aec                stm32__spi__spi_configurationIP
 .text.stm32__spi__uint8_bufferIP
                0x0000000008003b00       0x14 /home/badr/hackinvent/Ada_Drivers_Library/boards/stm32h743_nucleo/obj/sfp_lib_Debug/libada_drivers_library.a(stm32-spi.o)
                0x0000000008003b00                stm32__spi__uint8_bufferIP
 .text.stm32__spi__testconfigure
                0x0000000008003b14      0x154 /home/badr/hackinvent/Ada_Drivers_Library/boards/stm32h743_nucleo/obj/sfp_lib_Debug/libada_drivers_library.a(stm32-spi.o)
                0x0000000008003b14                stm32__spi__testconfigure
 .text.stm32__spi__testtrasmit
                0x0000000008003c68      0x1a8 /home/badr/hackinvent/Ada_Drivers_Library/boards/stm32h743_nucleo/obj/sfp_lib_Debug/libada_drivers_library.a(stm32-spi.o)
                0x0000000008003c68                stm32__spi__testtrasmit
 .text.stm32__spi__configure
                0x0000000008003e10      0x2e4 /home/badr/hackinvent/Ada_Drivers_Library/boards/stm32h743_nucleo/obj/sfp_lib_Debug/libada_drivers_library.a(stm32-spi.o)
                0x0000000008003e10                stm32__spi__configure
 .text.stm32__spi__enable
                0x00000000080040f4       0x54 /home/badr/hackinvent/Ada_Drivers_Library/boards/stm32h743_nucleo/obj/sfp_lib_Debug/libada_drivers_library.a(stm32-spi.o)
                0x00000000080040f4                stm32__spi__enable
 .text.stm32__spi__disable
                0x0000000008004148       0x3c /home/badr/hackinvent/Ada_Drivers_Library/boards/stm32h743_nucleo/obj/sfp_lib_Debug/libada_drivers_library.a(stm32-spi.o)
                0x0000000008004148                stm32__spi__disable
 .text.stm32__spi__enabled
                0x0000000008004184       0x40 /home/badr/hackinvent/Ada_Drivers_Library/boards/stm32h743_nucleo/obj/sfp_lib_Debug/libada_drivers_library.a(stm32-spi.o)
                0x0000000008004184                stm32__spi__enabled
 .text.stm32__spi__send
                0x00000000080041c4       0x38 /home/badr/hackinvent/Ada_Drivers_Library/boards/stm32h743_nucleo/obj/sfp_lib_Debug/libada_drivers_library.a(stm32-spi.o)
                0x00000000080041c4                stm32__spi__send
 .text.stm32__spi__data
                0x00000000080041fc       0x1c /home/badr/hackinvent/Ada_Drivers_Library/boards/stm32h743_nucleo/obj/sfp_lib_Debug/libada_drivers_library.a(stm32-spi.o)
                0x00000000080041fc                stm32__spi__data
 .text.stm32__spi__send__2
                0x0000000008004218       0x3c /home/badr/hackinvent/Ada_Drivers_Library/boards/stm32h743_nucleo/obj/sfp_lib_Debug/libada_drivers_library.a(stm32-spi.o)
                0x0000000008004218                stm32__spi__send__2
 .text.stm32__spi__data__2
                0x0000000008004254       0x30 /home/badr/hackinvent/Ada_Drivers_Library/boards/stm32h743_nucleo/obj/sfp_lib_Debug/libada_drivers_library.a(stm32-spi.o)
                0x0000000008004254                stm32__spi__data__2
 .text.stm32__spi__send__3
                0x0000000008004284       0x40 /home/badr/hackinvent/Ada_Drivers_Library/boards/stm32h743_nucleo/obj/sfp_lib_Debug/libada_drivers_library.a(stm32-spi.o)
                0x0000000008004284                stm32__spi__send__3
 .text.stm32__spi__data__3
                0x00000000080042c4       0x30 /home/badr/hackinvent/Ada_Drivers_Library/boards/stm32h743_nucleo/obj/sfp_lib_Debug/libada_drivers_library.a(stm32-spi.o)
                0x00000000080042c4                stm32__spi__data__3
 .text.stm32__spi__is_busy
                0x00000000080042f4       0x44 /home/badr/hackinvent/Ada_Drivers_Library/boards/stm32h743_nucleo/obj/sfp_lib_Debug/libada_drivers_library.a(stm32-spi.o)
                0x00000000080042f4                stm32__spi__is_busy
 .text.stm32__spi__tx_is_empty
                0x0000000008004338       0x24 /home/badr/hackinvent/Ada_Drivers_Library/boards/stm32h743_nucleo/obj/sfp_lib_Debug/libada_drivers_library.a(stm32-spi.o)
                0x0000000008004338                stm32__spi__tx_is_empty
 .text.stm32__spi__rx_is_empty
                0x000000000800435c       0x30 /home/badr/hackinvent/Ada_Drivers_Library/boards/stm32h743_nucleo/obj/sfp_lib_Debug/libada_drivers_library.a(stm32-spi.o)
                0x000000000800435c                stm32__spi__rx_is_empty
 .text.stm32__spi__busy
                0x000000000800438c       0x30 /home/badr/hackinvent/Ada_Drivers_Library/boards/stm32h743_nucleo/obj/sfp_lib_Debug/libada_drivers_library.a(stm32-spi.o)
                0x000000000800438c                stm32__spi__busy
 .text.stm32__spi__current_mode
                0x00000000080043bc       0x50 /home/badr/hackinvent/Ada_Drivers_Library/boards/stm32h743_nucleo/obj/sfp_lib_Debug/libada_drivers_library.a(stm32-spi.o)
                0x00000000080043bc                stm32__spi__current_mode
 .text.stm32__spi__current_data_direction
                0x000000000800440c       0xa4 /home/badr/hackinvent/Ada_Drivers_Library/boards/stm32h743_nucleo/obj/sfp_lib_Debug/libada_drivers_library.a(stm32-spi.o)
                0x000000000800440c                stm32__spi__current_data_direction
 .text.stm32__spi__crc_enabled
                0x00000000080044b0       0x24 /home/badr/hackinvent/Ada_Drivers_Library/boards/stm32h743_nucleo/obj/sfp_lib_Debug/libada_drivers_library.a(stm32-spi.o)
                0x00000000080044b0                stm32__spi__crc_enabled
 .text.stm32__spi__channel_side_indicated
                0x00000000080044d4       0x18 /home/badr/hackinvent/Ada_Drivers_Library/boards/stm32h743_nucleo/obj/sfp_lib_Debug/libada_drivers_library.a(stm32-spi.o)
                0x00000000080044d4                stm32__spi__channel_side_indicated
 .text.stm32__spi__underrun_indicated
                0x00000000080044ec       0x24 /home/badr/hackinvent/Ada_Drivers_Library/boards/stm32h743_nucleo/obj/sfp_lib_Debug/libada_drivers_library.a(stm32-spi.o)
                0x00000000080044ec                stm32__spi__underrun_indicated
 .text.stm32__spi__crc_error_indicated
                0x0000000008004510       0x24 /home/badr/hackinvent/Ada_Drivers_Library/boards/stm32h743_nucleo/obj/sfp_lib_Debug/libada_drivers_library.a(stm32-spi.o)
                0x0000000008004510                stm32__spi__crc_error_indicated
 .text.stm32__spi__mode_fault_indicated
                0x0000000008004534       0x24 /home/badr/hackinvent/Ada_Drivers_Library/boards/stm32h743_nucleo/obj/sfp_lib_Debug/libada_drivers_library.a(stm32-spi.o)
                0x0000000008004534                stm32__spi__mode_fault_indicated
 .text.stm32__spi__overrun_indicated
                0x0000000008004558       0x24 /home/badr/hackinvent/Ada_Drivers_Library/boards/stm32h743_nucleo/obj/sfp_lib_Debug/libada_drivers_library.a(stm32-spi.o)
                0x0000000008004558                stm32__spi__overrun_indicated
 .text.stm32__spi__frame_fmt_error_indicated
                0x000000000800457c       0x24 /home/badr/hackinvent/Ada_Drivers_Library/boards/stm32h743_nucleo/obj/sfp_lib_Debug/libada_drivers_library.a(stm32-spi.o)
                0x000000000800457c                stm32__spi__frame_fmt_error_indicated
 .text.stm32__spi__clear_overrun
                0x00000000080045a0       0x40 /home/badr/hackinvent/Ada_Drivers_Library/boards/stm32h743_nucleo/obj/sfp_lib_Debug/libada_drivers_library.a(stm32-spi.o)
                0x00000000080045a0                stm32__spi__clear_overrun
 .text.stm32__spi__reset_crc
                0x00000000080045e0       0x5c /home/badr/hackinvent/Ada_Drivers_Library/boards/stm32h743_nucleo/obj/sfp_lib_Debug/libada_drivers_library.a(stm32-spi.o)
                0x00000000080045e0                stm32__spi__reset_crc
 .text.stm32__spi__is_data_frame_16bit
                0x000000000800463c       0x4c /home/badr/hackinvent/Ada_Drivers_Library/boards/stm32h743_nucleo/obj/sfp_lib_Debug/libada_drivers_library.a(stm32-spi.o)
                0x000000000800463c                stm32__spi__is_data_frame_16bit
 .text.stm32__spi__data_size
                0x0000000008004688       0x4c /home/badr/hackinvent/Ada_Drivers_Library/boards/stm32h743_nucleo/obj/sfp_lib_Debug/libada_drivers_library.a(stm32-spi.o)
                0x0000000008004688                stm32__spi__data_size
 .text.stm32__spi__transmit
                0x00000000080046d4       0xd4 /home/badr/hackinvent/Ada_Drivers_Library/boards/stm32h743_nucleo/obj/sfp_lib_Debug/libada_drivers_library.a(stm32-spi.o)
                0x00000000080046d4                stm32__spi__transmit
 .text.stm32__spi__transmit__2
                0x00000000080047a8       0xd8 /home/badr/hackinvent/Ada_Drivers_Library/boards/stm32h743_nucleo/obj/sfp_lib_Debug/libada_drivers_library.a(stm32-spi.o)
                0x00000000080047a8                stm32__spi__transmit__2
 .text.stm32__spi__transmit__3
                0x0000000008004880       0xa0 /home/badr/hackinvent/Ada_Drivers_Library/boards/stm32h743_nucleo/obj/sfp_lib_Debug/libada_drivers_library.a(stm32-spi.o)
                0x0000000008004880                stm32__spi__transmit__3
 .text.stm32__spi__receive
                0x0000000008004920       0xcc /home/badr/hackinvent/Ada_Drivers_Library/boards/stm32h743_nucleo/obj/sfp_lib_Debug/libada_drivers_library.a(stm32-spi.o)
                0x0000000008004920                stm32__spi(long double,...)(char,...)(int, void,...)
 .text.stm32__spi__receive__2
                0x00000000080049ec       0xcc /home/badr/hackinvent/Ada_Drivers_Library/boards/stm32h743_nucleo/obj/sfp_lib_Debug/libada_drivers_library.a(stm32-spi.o)
                0x00000000080049ec                stm32__spi__receive__2
 .text.stm32__spi__receive__3
                0x0000000008004ab8       0xf4 /home/badr/hackinvent/Ada_Drivers_Library/boards/stm32h743_nucleo/obj/sfp_lib_Debug/libada_drivers_library.a(stm32-spi.o)
                0x0000000008004ab8                stm32__spi__receive__3
 .text.stm32__spi__transmit_receive
                0x0000000008004bac      0x144 /home/badr/hackinvent/Ada_Drivers_Library/boards/stm32h743_nucleo/obj/sfp_lib_Debug/libada_drivers_library.a(stm32-spi.o)
                0x0000000008004bac                stm32__spi__transmit_receive
 .text.stm32__spi__transmit_receive__2
                0x0000000008004cf0      0x110 /home/badr/hackinvent/Ada_Drivers_Library/boards/stm32h743_nucleo/obj/sfp_lib_Debug/libada_drivers_library.a(stm32-spi.o)
                0x0000000008004cf0                stm32__spi__transmit_receive__2
 .text.stm32__spi__data_rx_register_address
                0x0000000008004e00       0x38 /home/badr/hackinvent/Ada_Drivers_Library/boards/stm32h743_nucleo/obj/sfp_lib_Debug/libada_drivers_library.a(stm32-spi.o)
                0x0000000008004e00                stm32__spi__data_rx_register_address
 .text.stm32__spi__data_tx_register_address
                0x0000000008004e38       0x38 /home/badr/hackinvent/Ada_Drivers_Library/boards/stm32h743_nucleo/obj/sfp_lib_Debug/libada_drivers_library.a(stm32-spi.o)
                0x0000000008004e38                stm32__spi__data_tx_register_address
 .text.stm32__spi__send_receive_16bit_mode
                0x0000000008004e70      0x320 /home/badr/hackinvent/Ada_Drivers_Library/boards/stm32h743_nucleo/obj/sfp_lib_Debug/libada_drivers_library.a(stm32-spi.o)
                0x0000000008004e70                stm32__spi__send_receive_16bit_mode
 .text.stm32__spi__send_receive_8bit_mode
                0x0000000008005190      0x2dc /home/badr/hackinvent/Ada_Drivers_Library/boards/stm32h743_nucleo/obj/sfp_lib_Debug/libada_drivers_library.a(stm32-spi.o)
                0x0000000008005190                stm32__spi__send_receive_8bit_mode
 .text.stm32__spi__send_16bit_mode
                0x000000000800546c      0x1c8 /home/badr/hackinvent/Ada_Drivers_Library/boards/stm32h743_nucleo/obj/sfp_lib_Debug/libada_drivers_library.a(stm32-spi.o)
                0x000000000800546c                stm32__spi__send_16bit_mode
 .text.stm32__spi__send_8bit_mode
                0x0000000008005634      0x1b8 /home/badr/hackinvent/Ada_Drivers_Library/boards/stm32h743_nucleo/obj/sfp_lib_Debug/libada_drivers_library.a(stm32-spi.o)
                0x0000000008005634                stm32__spi__send_8bit_mode
 .text.stm32__spi__receive_16bit_mode
                0x00000000080057ec       0xb8 /home/badr/hackinvent/Ada_Drivers_Library/boards/stm32h743_nucleo/obj/sfp_lib_Debug/libada_drivers_library.a(stm32-spi.o)
                0x00000000080057ec                stm32__spi__receive_16bit_mode
 .text.stm32__spi__receive_8bit_mode
                0x00000000080058a4       0xb0 /home/badr/hackinvent/Ada_Drivers_Library/boards/stm32h743_nucleo/obj/sfp_lib_Debug/libada_drivers_library.a(stm32-spi.o)
                0x00000000080058a4                stm32__spi__receive_8bit_mode
 .text.stm32__spi___elabb
                0x0000000008005954      0x144 /home/badr/hackinvent/Ada_Drivers_Library/boards/stm32h743_nucleo/obj/sfp_lib_Debug/libada_drivers_library.a(stm32-spi.o)
                0x0000000008005954                stm32__spi___elabb
 .text          0x0000000008005a98        0x0 /home/badr/hackinvent/Ada_Drivers_Library/boards/stm32h743_nucleo/obj/sfp_lib_Debug/libada_drivers_library.a(stm32-syscfg.o)
 .text.stm32__syscfg__connect_external_interrupt__4
                0x0000000008005a98      0x214 /home/badr/hackinvent/Ada_Drivers_Library/boards/stm32h743_nucleo/obj/sfp_lib_Debug/libada_drivers_library.a(stm32-syscfg.o)
                0x0000000008005a98                stm32__syscfg__connect_external_interrupt__4
 .text.stm32__syscfg__connect_external_interrupt
                0x0000000008005cac       0x3c /home/badr/hackinvent/Ada_Drivers_Library/boards/stm32h743_nucleo/obj/sfp_lib_Debug/libada_drivers_library.a(stm32-syscfg.o)
                0x0000000008005cac                stm32__syscfg__connect_external_interrupt
 .text.stm32__syscfg__connect_external_interrupt__2
                0x0000000008005ce8       0x34 /home/badr/hackinvent/Ada_Drivers_Library/boards/stm32h743_nucleo/obj/sfp_lib_Debug/libada_drivers_library.a(stm32-syscfg.o)
                0x0000000008005ce8                stm32__syscfg__connect_external_interrupt__2
 .text.stm32__syscfg__connect_external_interrupt__3
                0x0000000008005d1c       0x44 /home/badr/hackinvent/Ada_Drivers_Library/boards/stm32h743_nucleo/obj/sfp_lib_Debug/libada_drivers_library.a(stm32-syscfg.o)
                0x0000000008005d1c                stm32__syscfg__connect_external_interrupt__3
 .text.stm32__syscfg__clear_external_interrupt
                0x0000000008005d60       0x44 /home/badr/hackinvent/Ada_Drivers_Library/boards/stm32h743_nucleo/obj/sfp_lib_Debug/libada_drivers_library.a(stm32-syscfg.o)
                0x0000000008005d60                stm32__syscfg__clear_external_interrupt
 .text          0x0000000008005da4        0x0 /home/badr/hackinvent/Ada_Drivers_Library/boards/stm32h743_nucleo/obj/sfp_lib_Debug/libada_drivers_library.a(hal-gpio.o)
 .text          0x0000000008005da4        0x0 /home/badr/hackinvent/Ada_Drivers_Library/boards/stm32h743_nucleo/obj/sfp_lib_Debug/libada_drivers_library.a(hal-spi.o)
 .text.hal__spi__spi_data_8bIP
                0x0000000008005da4       0x14 /home/badr/hackinvent/Ada_Drivers_Library/boards/stm32h743_nucleo/obj/sfp_lib_Debug/libada_drivers_library.a(hal-spi.o)
                0x0000000008005da4                hal__spi__spi_data_8bIP
 .text.hal__spi__spi_data_16bIP
                0x0000000008005db8       0x14 /home/badr/hackinvent/Ada_Drivers_Library/boards/stm32h743_nucleo/obj/sfp_lib_Debug/libada_drivers_library.a(hal-spi.o)
                0x0000000008005db8                hal__spi__spi_data_16bIP
 .text          0x0000000008005dcc        0x0 /home/badr/GNAT/2018-arm-elf/arm-eabi/lib/gnat/ravenscar-sfp-stm32h743nucleo/adalib/libgnarl.a(a-reatim.o)
 .text.ada__real_time__Oadd__2
                0x0000000008005dcc       0x2c /home/badr/GNAT/2018-arm-elf/arm-eabi/lib/gnat/ravenscar-sfp-stm32h743nucleo/adalib/libgnarl.a(a-reatim.o)
                0x0000000008005dcc                ada__real_time__Oadd__2
 .text.ada__real_time__Omultiply
                0x0000000008005df8      0x100 /home/badr/GNAT/2018-arm-elf/arm-eabi/lib/gnat/ravenscar-sfp-stm32h743nucleo/adalib/libgnarl.a(a-reatim.o)
                0x0000000008005df8                ada__real_time__Omultiply
 .text.ada__real_time__Omultiply__2
                0x0000000008005ef8       0x28 /home/badr/GNAT/2018-arm-elf/arm-eabi/lib/gnat/ravenscar-sfp-stm32h743nucleo/adalib/libgnarl.a(a-reatim.o)
                0x0000000008005ef8                ada__real_time__Omultiply__2
 .text.ada__real_time__Oadd
                0x0000000008005f20       0xec /home/badr/GNAT/2018-arm-elf/arm-eabi/lib/gnat/ravenscar-sfp-stm32h743nucleo/adalib/libgnarl.a(a-reatim.o)
                0x0000000008005f20                ada__real_time__Oadd
 .text.ada__real_time__Oadd__3
                0x000000000800600c       0x5c /home/badr/GNAT/2018-arm-elf/arm-eabi/lib/gnat/ravenscar-sfp-stm32h743nucleo/adalib/libgnarl.a(a-reatim.o)
                0x000000000800600c                ada__real_time__Oadd__3
 .text.ada__real_time__Osubtract
                0x0000000008006068       0xe8 /home/badr/GNAT/2018-arm-elf/arm-eabi/lib/gnat/ravenscar-sfp-stm32h743nucleo/adalib/libgnarl.a(a-reatim.o)
                0x0000000008006068                ada__real_time__Osubtract
 .text.ada__real_time__Osubtract__2
                0x0000000008006150      0x104 /home/badr/GNAT/2018-arm-elf/arm-eabi/lib/gnat/ravenscar-sfp-stm32h743nucleo/adalib/libgnarl.a(a-reatim.o)
                0x0000000008006150                ada__real_time__Osubtract__2
 .text.ada__real_time__Osubtract__3
                0x0000000008006254       0x60 /home/badr/GNAT/2018-arm-elf/arm-eabi/lib/gnat/ravenscar-sfp-stm32h743nucleo/adalib/libgnarl.a(a-reatim.o)
                0x0000000008006254                ada__real_time__Osubtract__3
 .text.ada__real_time__Osubtract__4
                0x00000000080062b4       0x3c /home/badr/GNAT/2018-arm-elf/arm-eabi/lib/gnat/ravenscar-sfp-stm32h743nucleo/adalib/libgnarl.a(a-reatim.o)
                0x00000000080062b4                ada__real_time__Osubtract__4
 .text.ada__real_time__Odivide
                0x00000000080062f0       0x84 /home/badr/GNAT/2018-arm-elf/arm-eabi/lib/gnat/ravenscar-sfp-stm32h743nucleo/adalib/libgnarl.a(a-reatim.o)
                0x00000000080062f0                ada__real_time(double &&, int, void, int, double,...)
 .text.ada__real_time__Odivide__2
                0x0000000008006374       0x64 /home/badr/GNAT/2018-arm-elf/arm-eabi/lib/gnat/ravenscar-sfp-stm32h743nucleo/adalib/libgnarl.a(a-reatim.o)
                0x0000000008006374                ada__real_time__Odivide__2
 .text.ada__real_time__clock
                0x00000000080063d8       0x14 /home/badr/GNAT/2018-arm-elf/arm-eabi/lib/gnat/ravenscar-sfp-stm32h743nucleo/adalib/libgnarl.a(a-reatim.o)
                0x00000000080063d8                ada__real_time__clock
 .text.ada__real_time__microseconds
                0x00000000080063ec       0x48 /home/badr/GNAT/2018-arm-elf/arm-eabi/lib/gnat/ravenscar-sfp-stm32h743nucleo/adalib/libgnarl.a(a-reatim.o)
                0x00000000080063ec                ada__real_time__microseconds
 .text.ada__real_time__milliseconds
                0x0000000008006434       0x48 /home/badr/GNAT/2018-arm-elf/arm-eabi/lib/gnat/ravenscar-sfp-stm32h743nucleo/adalib/libgnarl.a(a-reatim.o)
                0x0000000008006434                ada__real_time__milliseconds
 *fill*         0x000000000800647c        0x4 
 .text.ada__real_time__minutes
                0x0000000008006480       0xd0 /home/badr/GNAT/2018-arm-elf/arm-eabi/lib/gnat/ravenscar-sfp-stm32h743nucleo/adalib/libgnarl.a(a-reatim.o)
                0x0000000008006480                ada__real_time__minutes
 .text.ada__real_time__mul_div
                0x0000000008006550      0x22c /home/badr/GNAT/2018-arm-elf/arm-eabi/lib/gnat/ravenscar-sfp-stm32h743nucleo/adalib/libgnarl.a(a-reatim.o)
 *fill*         0x000000000800677c        0x4 
 .text.ada__real_time__nanoseconds
                0x0000000008006780       0x4c /home/badr/GNAT/2018-arm-elf/arm-eabi/lib/gnat/ravenscar-sfp-stm32h743nucleo/adalib/libgnarl.a(a-reatim.o)
                0x0000000008006780                ada__real_time__nanoseconds
 .text.ada__real_time__rounded_div
                0x00000000080067cc       0xb0 /home/badr/GNAT/2018-arm-elf/arm-eabi/lib/gnat/ravenscar-sfp-stm32h743nucleo/adalib/libgnarl.a(a-reatim.o)
                0x00000000080067cc                ada__real_time__rounded_div
 .text.ada__real_time__seconds
                0x000000000800687c       0x38 /home/badr/GNAT/2018-arm-elf/arm-eabi/lib/gnat/ravenscar-sfp-stm32h743nucleo/adalib/libgnarl.a(a-reatim.o)
                0x000000000800687c                ada__real_time__seconds
 *fill*         0x00000000080068b4        0x4 
 .text.ada__real_time__split
                0x00000000080068b8       0x84 /home/badr/GNAT/2018-arm-elf/arm-eabi/lib/gnat/ravenscar-sfp-stm32h743nucleo/adalib/libgnarl.a(a-reatim.o)
                0x00000000080068b8                ada__real_time__split
 *fill*         0x000000000800693c        0x4 
 .text.ada__real_time__time_of
                0x0000000008006940      0x1c0 /home/badr/GNAT/2018-arm-elf/arm-eabi/lib/gnat/ravenscar-sfp-stm32h743nucleo/adalib/libgnarl.a(a-reatim.o)
                0x0000000008006940                ada__real_time__time_of
 .text.ada__real_time__to_duration
                0x0000000008006b00       0x30 /home/badr/GNAT/2018-arm-elf/arm-eabi/lib/gnat/ravenscar-sfp-stm32h743nucleo/adalib/libgnarl.a(a-reatim.o)
                0x0000000008006b00                ada__real_time__to_duration
 .text.ada__real_time__to_time_span
                0x0000000008006b30       0x30 /home/badr/GNAT/2018-arm-elf/arm-eabi/lib/gnat/ravenscar-sfp-stm32h743nucleo/adalib/libgnarl.a(a-reatim.o)
                0x0000000008006b30                ada__real_time__to_time_span
 .text.ada__real_time___elabb
                0x0000000008006b60        0xc /home/badr/GNAT/2018-arm-elf/arm-eabi/lib/gnat/ravenscar-sfp-stm32h743nucleo/adalib/libgnarl.a(a-reatim.o)
                0x0000000008006b60                ada__real_time___elabb
 .text          0x0000000008006b6c        0x0 /home/badr/GNAT/2018-arm-elf/arm-eabi/lib/gnat/ravenscar-sfp-stm32h743nucleo/adalib/libgnarl.a(a-retide.o)
 .text.ada__real_time__delays__delay_until
                0x0000000008006b6c       0x40 /home/badr/GNAT/2018-arm-elf/arm-eabi/lib/gnat/ravenscar-sfp-stm32h743nucleo/adalib/libgnarl.a(a-retide.o)
                0x0000000008006b6c                ada__real_time__delays__delay_until
 .text.ada__real_time__delays__to_duration
                0x0000000008006bac       0x20 /home/badr/GNAT/2018-arm-elf/arm-eabi/lib/gnat/ravenscar-sfp-stm32h743nucleo/adalib/libgnarl.a(a-retide.o)
                0x0000000008006bac                ada__real_time__delays__to_duration
 .text          0x0000000008006bcc        0x0 /home/badr/GNAT/2018-arm-elf/arm-eabi/lib/gnat/ravenscar-sfp-stm32h743nucleo/adalib/libgnarl.a(s-bbtiev.o)
 .text.system__bb__timing_events__timing_eventIP
                0x0000000008006bcc       0x44 /home/badr/GNAT/2018-arm-elf/arm-eabi/lib/gnat/ravenscar-sfp-stm32h743nucleo/adalib/libgnarl.a(s-bbtiev.o)
                0x0000000008006bcc                system__bb__timing_events__timing_eventIP
 .text.system__bb__timing_events___size
                0x0000000008006c10       0x1c /home/badr/GNAT/2018-arm-elf/arm-eabi/lib/gnat/ravenscar-sfp-stm32h743nucleo/adalib/libgnarl.a(s-bbtiev.o)
                0x0000000008006c10                system__bb__timing_events___size
 .text.system__bb__timing_events__set_handler
                0x0000000008006c2c       0x9c /home/badr/GNAT/2018-arm-elf/arm-eabi/lib/gnat/ravenscar-sfp-stm32h743nucleo/adalib/libgnarl.a(s-bbtiev.o)
                0x0000000008006c2c                system__bb__timing_events__set_handler
 .text.system__bb__timing_events__cancel_handler
                0x0000000008006cc8       0x78 /home/badr/GNAT/2018-arm-elf/arm-eabi/lib/gnat/ravenscar-sfp-stm32h743nucleo/adalib/libgnarl.a(s-bbtiev.o)
                0x0000000008006cc8                system__bb__timing_events__cancel_handler
 .text.system__bb__timing_events__execute_expired_timing_events
                0x0000000008006d40       0xcc /home/badr/GNAT/2018-arm-elf/arm-eabi/lib/gnat/ravenscar-sfp-stm32h743nucleo/adalib/libgnarl.a(s-bbtiev.o)
                0x0000000008006d40                system__bb__timing_events__execute_expired_timing_events
 .text.system__bb__timing_events__get_next_timeout
                0x0000000008006e0c       0x44 /home/badr/GNAT/2018-arm-elf/arm-eabi/lib/gnat/ravenscar-sfp-stm32h743nucleo/adalib/libgnarl.a(s-bbtiev.o)
                0x0000000008006e0c                system__bb__timing_events__get_next_timeout
 .text.system__bb__timing_events__time_of_event
                0x0000000008006e50       0x4c /home/badr/GNAT/2018-arm-elf/arm-eabi/lib/gnat/ravenscar-sfp-stm32h743nucleo/adalib/libgnarl.a(s-bbtiev.o)
                0x0000000008006e50                system__bb__timing_events__time_of_event
 .text.system__bb__timing_events__extract
                0x0000000008006e9c       0xb8 /home/badr/GNAT/2018-arm-elf/arm-eabi/lib/gnat/ravenscar-sfp-stm32h743nucleo/adalib/libgnarl.a(s-bbtiev.o)
 .text.system__bb__timing_events__insert
                0x0000000008006f54      0x214 /home/badr/GNAT/2018-arm-elf/arm-eabi/lib/gnat/ravenscar-sfp-stm32h743nucleo/adalib/libgnarl.a(s-bbtiev.o)
 .text.system__bb__timing_events___elabb
                0x0000000008007168       0x2c /home/badr/GNAT/2018-arm-elf/arm-eabi/lib/gnat/ravenscar-sfp-stm32h743nucleo/adalib/libgnarl.a(s-bbtiev.o)
                0x0000000008007168                system__bb__timing_events___elabb
 .text          0x0000000008007194        0x0 /home/badr/GNAT/2018-arm-elf/arm-eabi/lib/gnat/ravenscar-sfp-stm32h743nucleo/adalib/libgnarl.a(s-bbtime.o)
 .text.system__bb__time__composite_execution_timeIP
                0x0000000008007194       0x14 /home/badr/GNAT/2018-arm-elf/arm-eabi/lib/gnat/ravenscar-sfp-stm32h743nucleo/adalib/libgnarl.a(s-bbtime.o)
                0x0000000008007194                system__bb__time__composite_execution_timeIP
 .text.system__bb__time__composite_timeIP
                0x00000000080071a8       0x20 /home/badr/GNAT/2018-arm-elf/arm-eabi/lib/gnat/ravenscar-sfp-stm32h743nucleo/adalib/libgnarl.a(s-bbtime.o)
                0x00000000080071a8                system__bb__time__composite_timeIP
 .text.system__bb__time__alarm_handler
                0x00000000080071c8       0x90 /home/badr/GNAT/2018-arm-elf/arm-eabi/lib/gnat/ravenscar-sfp-stm32h743nucleo/adalib/libgnarl.a(s-bbtime.o)
 .text.system__bb__time__clock
                0x0000000008007258       0xac /home/badr/GNAT/2018-arm-elf/arm-eabi/lib/gnat/ravenscar-sfp-stm32h743nucleo/adalib/libgnarl.a(s-bbtime.o)
                0x0000000008007258                system__bb__time__clock
 .text.system__bb__time__delay_until
                0x0000000008007304       0x90 /home/badr/GNAT/2018-arm-elf/arm-eabi/lib/gnat/ravenscar-sfp-stm32h743nucleo/adalib/libgnarl.a(s-bbtime.o)
                0x0000000008007304                system__bb__time__delay_until
 .text.system__bb__time__epoch
                0x0000000008007394       0x18 /home/badr/GNAT/2018-arm-elf/arm-eabi/lib/gnat/ravenscar-sfp-stm32h743nucleo/adalib/libgnarl.a(s-bbtime.o)
                0x0000000008007394                system__bb__time__epoch
 .text.system__bb__time__get_next_timeout
                0x00000000080073ac       0x48 /home/badr/GNAT/2018-arm-elf/arm-eabi/lib/gnat/ravenscar-sfp-stm32h743nucleo/adalib/libgnarl.a(s-bbtime.o)
                0x00000000080073ac                system__bb__time__get_next_timeout
 .text.system__bb__time__initialize_timers
                0x00000000080073f4       0x9c /home/badr/GNAT/2018-arm-elf/arm-eabi/lib/gnat/ravenscar-sfp-stm32h743nucleo/adalib/libgnarl.a(s-bbtime.o)
                0x00000000080073f4                system__bb__time__initialize_timers
 .text.system__bb__time__update_alarm
                0x0000000008007490       0xb0 /home/badr/GNAT/2018-arm-elf/arm-eabi/lib/gnat/ravenscar-sfp-stm32h743nucleo/adalib/libgnarl.a(s-bbtime.o)
                0x0000000008007490                system__bb__time__update_alarm
 .text.system__bb__time__update_clock
                0x0000000008007540       0x88 /home/badr/GNAT/2018-arm-elf/arm-eabi/lib/gnat/ravenscar-sfp-stm32h743nucleo/adalib/libgnarl.a(s-bbtime.o)
 .text.system__bb__time__Oconcat
                0x00000000080075c8       0x54 /home/badr/GNAT/2018-arm-elf/arm-eabi/lib/gnat/ravenscar-sfp-stm32h743nucleo/adalib/libgnarl.a(s-bbtime.o)
                0x00000000080075c8                system__bb__time__Oconcat
 .text          0x000000000800761c        0x0 /home/badr/GNAT/2018-arm-elf/arm-eabi/lib/gnat/ravenscar-sfp-stm32h743nucleo/adalib/libgnarl.a(s-taprop.o)
 .text.system__task_primitives__operations__Tidle_stacksBIP
                0x000000000800761c       0x14 /home/badr/GNAT/2018-arm-elf/arm-eabi/lib/gnat/ravenscar-sfp-stm32h743nucleo/adalib/libgnarl.a(s-taprop.o)
                0x000000000800761c                system__task_primitives__operations__Tidle_stacksBIP
 .text.system__task_primitives__operations__Tidle_stacks_tableBIP
                0x0000000008007630       0x14 /home/badr/GNAT/2018-arm-elf/arm-eabi/lib/gnat/ravenscar-sfp-stm32h743nucleo/adalib/libgnarl.a(s-taprop.o)
                0x0000000008007630                system__task_primitives__operations__Tidle_stacks_tableBIP
 .text.system__task_primitives__operations__Tidle_tasksBIP
                0x0000000008007644       0x14 /home/badr/GNAT/2018-arm-elf/arm-eabi/lib/gnat/ravenscar-sfp-stm32h743nucleo/adalib/libgnarl.a(s-taprop.o)
                0x0000000008007644                system__task_primitives__operations__Tidle_tasksBIP
 .text.system__task_primitives__operations__self
                0x0000000008007658       0x10 /home/badr/GNAT/2018-arm-elf/arm-eabi/lib/gnat/ravenscar-sfp-stm32h743nucleo/adalib/libgnarl.a(s-taprop.o)
                0x0000000008007658                system__task_primitives__operations(short,...)(long, float)
 .text.system__task_primitives__operations__sleep
                0x0000000008007668       0x18 /home/badr/GNAT/2018-arm-elf/arm-eabi/lib/gnat/ravenscar-sfp-stm32h743nucleo/adalib/libgnarl.a(s-taprop.o)
                0x0000000008007668                system__task_primitives__operations(short, long,...)(...)( *)
 .text.system__task_primitives__operations__delay_until
                0x0000000008007680       0x40 /home/badr/GNAT/2018-arm-elf/arm-eabi/lib/gnat/ravenscar-sfp-stm32h743nucleo/adalib/libgnarl.a(s-taprop.o)
                0x0000000008007680                system__task_primitives__operations__delay_until
 .text.system__task_primitives__operations__monotonic_clock
                0x00000000080076c0       0x14 /home/badr/GNAT/2018-arm-elf/arm-eabi/lib/gnat/ravenscar-sfp-stm32h743nucleo/adalib/libgnarl.a(s-taprop.o)
                0x00000000080076c0                system__task_primitives__operations__monotonic_clock
 .text.system__task_primitives__operations__wakeup
                0x00000000080076d4       0x30 /home/badr/GNAT/2018-arm-elf/arm-eabi/lib/gnat/ravenscar-sfp-stm32h743nucleo/adalib/libgnarl.a(s-taprop.o)
                0x00000000080076d4                system__task_primitives__operations__wakeup
 .text.system__task_primitives__operations__set_priority
                0x0000000008007704       0x18 /home/badr/GNAT/2018-arm-elf/arm-eabi/lib/gnat/ravenscar-sfp-stm32h743nucleo/adalib/libgnarl.a(s-taprop.o)
                0x0000000008007704                system__task_primitives__operations__set_priority
 .text.system__task_primitives__operations__get_priority
                0x000000000800771c       0x44 /home/badr/GNAT/2018-arm-elf/arm-eabi/lib/gnat/ravenscar-sfp-stm32h743nucleo/adalib/libgnarl.a(s-taprop.o)
                0x000000000800771c                system__task_primitives__operations__get_priority
 .text.system__task_primitives__operations__get_affinity
                0x0000000008007760       0x34 /home/badr/GNAT/2018-arm-elf/arm-eabi/lib/gnat/ravenscar-sfp-stm32h743nucleo/adalib/libgnarl.a(s-taprop.o)
                0x0000000008007760                system__task_primitives__operations__get_affinity
 .text.system__task_primitives__operations__get_cpu
                0x0000000008007794       0x34 /home/badr/GNAT/2018-arm-elf/arm-eabi/lib/gnat/ravenscar-sfp-stm32h743nucleo/adalib/libgnarl.a(s-taprop.o)
                0x0000000008007794                system__task_primitives__operations__get_cpu
 .text.system__task_primitives__operations__get_thread_id
                0x00000000080077c8       0x2c /home/badr/GNAT/2018-arm-elf/arm-eabi/lib/gnat/ravenscar-sfp-stm32h743nucleo/adalib/libgnarl.a(s-taprop.o)
                0x00000000080077c8                system__task_primitives__operations__get_thread_id
 .text.system__task_primitives__operations__enter_task
                0x00000000080077f4       0x48 /home/badr/GNAT/2018-arm-elf/arm-eabi/lib/gnat/ravenscar-sfp-stm32h743nucleo/adalib/libgnarl.a(s-taprop.o)
                0x00000000080077f4                system__task_primitives__operations__enter_task
 .text.system__task_primitives__operations__idle
                0x000000000800783c       0x1c /home/badr/GNAT/2018-arm-elf/arm-eabi/lib/gnat/ravenscar-sfp-stm32h743nucleo/adalib/libgnarl.a(s-taprop.o)
                0x000000000800783c                system__task_primitives__operations(int, double, long,...)
 .text.system__task_primitives__operations__initialize_tcb
                0x0000000008007858       0x1c /home/badr/GNAT/2018-arm-elf/arm-eabi/lib/gnat/ravenscar-sfp-stm32h743nucleo/adalib/libgnarl.a(s-taprop.o)
                0x0000000008007858                system__task_primitives__operations__initialize_tcb
 .text.__gnat_initialize_slave
                0x0000000008007874       0xb4 /home/badr/GNAT/2018-arm-elf/arm-eabi/lib/gnat/ravenscar-sfp-stm32h743nucleo/adalib/libgnarl.a(s-taprop.o)
                0x0000000008007874                __gnat_initialize_slave
 .text.system__task_primitives__operations__create_task
                0x0000000008007928       0x98 /home/badr/GNAT/2018-arm-elf/arm-eabi/lib/gnat/ravenscar-sfp-stm32h743nucleo/adalib/libgnarl.a(s-taprop.o)
                0x0000000008007928                system__task_primitives__operations__create_task
 .text.system__task_primitives__operations__initialize
                0x00000000080079c0      0x134 /home/badr/GNAT/2018-arm-elf/arm-eabi/lib/gnat/ravenscar-sfp-stm32h743nucleo/adalib/libgnarl.a(s-taprop.o)
                0x00000000080079c0                system__task_primitives__operations__initialize
 .text.system__task_primitives__operations__initialize_idle
                0x0000000008007af4       0xd0 /home/badr/GNAT/2018-arm-elf/arm-eabi/lib/gnat/ravenscar-sfp-stm32h743nucleo/adalib/libgnarl.a(s-taprop.o)
                0x0000000008007af4                system__task_primitives__operations__initialize_idle
 .text.system__task_primitives__operations__is_task_context
                0x0000000008007bc4       0x1c /home/badr/GNAT/2018-arm-elf/arm-eabi/lib/gnat/ravenscar-sfp-stm32h743nucleo/adalib/libgnarl.a(s-taprop.o)
                0x0000000008007bc4                system__task_primitives__operations__is_task_context
 .text          0x0000000008007be0        0x0 /home/badr/GNAT/2018-arm-elf/arm-eabi/lib/gnat/ravenscar-sfp-stm32h743nucleo/adalib/libgnarl.a(s-tasdeb.o)
 .text.system__tasking__debug__add_task_id
                0x0000000008007be0       0x4c /home/badr/GNAT/2018-arm-elf/arm-eabi/lib/gnat/ravenscar-sfp-stm32h743nucleo/adalib/libgnarl.a(s-tasdeb.o)
                0x0000000008007be0                system__tasking__debug__add_task_id
 .text          0x0000000008007c2c        0x0 /home/badr/GNAT/2018-arm-elf/arm-eabi/lib/gnat/ravenscar-sfp-stm32h743nucleo/adalib/libgnarl.a(s-taskin.o)
 .text.system__tasking__E5sIP
                0x0000000008007c2c       0x18 /home/badr/GNAT/2018-arm-elf/arm-eabi/lib/gnat/ravenscar-sfp-stm32h743nucleo/adalib/libgnarl.a(s-taskin.o)
                0x0000000008007c2c                system__tasking__E5sIP
 .text.system__tasking__activation_chainIP
                0x0000000008007c44       0x18 /home/badr/GNAT/2018-arm-elf/arm-eabi/lib/gnat/ravenscar-sfp-stm32h743nucleo/adalib/libgnarl.a(s-taskin.o)
                0x0000000008007c44                system__tasking__activation_chainIP
 .text.__gnat_get_secondary_stack
                0x0000000008007c5c       0x24 /home/badr/GNAT/2018-arm-elf/arm-eabi/lib/gnat/ravenscar-sfp-stm32h743nucleo/adalib/libgnarl.a(s-taskin.o)
                0x0000000008007c5c                __gnat_get_secondary_stack
 .text.system__tasking__initialize_atcb
                0x0000000008007c80      0x104 /home/badr/GNAT/2018-arm-elf/arm-eabi/lib/gnat/ravenscar-sfp-stm32h743nucleo/adalib/libgnarl.a(s-taskin.o)
                0x0000000008007c80                system__tasking__initialize_atcb
 .text.system__tasking__initialize
                0x0000000008007d84      0x234 /home/badr/GNAT/2018-arm-elf/arm-eabi/lib/gnat/ravenscar-sfp-stm32h743nucleo/adalib/libgnarl.a(s-taskin.o)
                0x0000000008007d84                system__tasking__initialize
 .text.system__tasking__self
                0x0000000008007fb8       0x10 /home/badr/GNAT/2018-arm-elf/arm-eabi/lib/gnat/ravenscar-sfp-stm32h743nucleo/adalib/libgnarl.a(s-taskin.o)
                0x0000000008007fb8                system__tasking(short,...)(long, float)
 .text.system__tasking__storage_size
                0x0000000008007fc8       0x2c /home/badr/GNAT/2018-arm-elf/arm-eabi/lib/gnat/ravenscar-sfp-stm32h743nucleo/adalib/libgnarl.a(s-taskin.o)
                0x0000000008007fc8                system__tasking__storage_size
 .text          0x0000000008007ff4        0x0 /home/badr/GNAT/2018-arm-elf/arm-eabi/lib/gnat/ravenscar-sfp-stm32h743nucleo/adalib/libgnarl.a(s-bbbosu.o)
 .text.system__bb__board_support__time__max_timer_interval
                0x0000000008007ff4       0x14 /home/badr/GNAT/2018-arm-elf/arm-eabi/lib/gnat/ravenscar-sfp-stm32h743nucleo/adalib/libgnarl.a(s-bbbosu.o)
                0x0000000008007ff4                system__bb__board_support__time__max_timer_interval
 .text.system__bb__board_support__time__read_clock
                0x0000000008008008       0x74 /home/badr/GNAT/2018-arm-elf/arm-eabi/lib/gnat/ravenscar-sfp-stm32h743nucleo/adalib/libgnarl.a(s-bbbosu.o)
                0x0000000008008008                system__bb__board_support__time__read_clock
 .text.system__bb__board_support__time__clear_alarm_interrupt
                0x000000000800807c       0x18 /home/badr/GNAT/2018-arm-elf/arm-eabi/lib/gnat/ravenscar-sfp-stm32h743nucleo/adalib/libgnarl.a(s-bbbosu.o)
                0x000000000800807c                system__bb__board_support__time__clear_alarm_interrupt
 .text.system__bb__board_support__time__set_alarm
                0x0000000008008094       0x58 /home/badr/GNAT/2018-arm-elf/arm-eabi/lib/gnat/ravenscar-sfp-stm32h743nucleo/adalib/libgnarl.a(s-bbbosu.o)
                0x0000000008008094                system__bb__board_support__time__set_alarm
 .text.system__bb__board_support__time__install_alarm_handler
                0x00000000080080ec       0x30 /home/badr/GNAT/2018-arm-elf/arm-eabi/lib/gnat/ravenscar-sfp-stm32h743nucleo/adalib/libgnarl.a(s-bbbosu.o)
                0x00000000080080ec                system__bb__board_support__time__install_alarm_handler
 .text.system__bb__board_support__multiprocessors__number_of_cpus
                0x000000000800811c       0x14 /home/badr/GNAT/2018-arm-elf/arm-eabi/lib/gnat/ravenscar-sfp-stm32h743nucleo/adalib/libgnarl.a(s-bbbosu.o)
                0x000000000800811c                system__bb__board_support__multiprocessors__number_of_cpus
 .text.system__bb__board_support__multiprocessors__current_cpu
                0x0000000008008130       0x14 /home/badr/GNAT/2018-arm-elf/arm-eabi/lib/gnat/ravenscar-sfp-stm32h743nucleo/adalib/libgnarl.a(s-bbbosu.o)
                0x0000000008008130                system__bb__board_support__multiprocessors__current_cpu
 .text.system__bb__board_support__multiprocessors__poke_cpu
                0x0000000008008144       0x18 /home/badr/GNAT/2018-arm-elf/arm-eabi/lib/gnat/ravenscar-sfp-stm32h743nucleo/adalib/libgnarl.a(s-bbbosu.o)
                0x0000000008008144                system__bb__board_support__multiprocessors__poke_cpu
 .text.system__bb__board_support__multiprocessors__start_all_cpus
                0x000000000800815c       0x10 /home/badr/GNAT/2018-arm-elf/arm-eabi/lib/gnat/ravenscar-sfp-stm32h743nucleo/adalib/libgnarl.a(s-bbbosu.o)
                0x000000000800815c                system__bb__board_support__multiprocessors__start_all_cpus
 .text.system__bb__board_support__interrupts__install_interrupt_handler
                0x000000000800816c       0x64 /home/badr/GNAT/2018-arm-elf/arm-eabi/lib/gnat/ravenscar-sfp-stm32h743nucleo/adalib/libgnarl.a(s-bbbosu.o)
                0x000000000800816c                system__bb__board_support__interrupts__install_interrupt_handler
 .text.system__bb__board_support__interrupts__priority_of_interrupt
                0x00000000080081d0       0x4c /home/badr/GNAT/2018-arm-elf/arm-eabi/lib/gnat/ravenscar-sfp-stm32h743nucleo/adalib/libgnarl.a(s-bbbosu.o)
                0x00000000080081d0                system__bb__board_support__interrupts__priority_of_interrupt
 .text.system__bb__board_support__interrupts__power_down
                0x000000000800821c       0x10 /home/badr/GNAT/2018-arm-elf/arm-eabi/lib/gnat/ravenscar-sfp-stm32h743nucleo/adalib/libgnarl.a(s-bbbosu.o)
                0x000000000800821c                system__bb__board_support__interrupts__power_down
 .text.system__bb__board_support__interrupts__set_current_priority
                0x000000000800822c       0x1c /home/badr/GNAT/2018-arm-elf/arm-eabi/lib/gnat/ravenscar-sfp-stm32h743nucleo/adalib/libgnarl.a(s-bbbosu.o)
                0x000000000800822c                system__bb__board_support__interrupts__set_current_priority
 .text.system__bb__board_support__sys_tick_registersIP
                0x0000000008008248       0x14 /home/badr/GNAT/2018-arm-elf/arm-eabi/lib/gnat/ravenscar-sfp-stm32h743nucleo/adalib/libgnarl.a(s-bbbosu.o)
                0x0000000008008248                system__bb__board_support__sys_tick_registersIP
 .text.system__bb__board_support__TipBIP
                0x000000000800825c       0x14 /home/badr/GNAT/2018-arm-elf/arm-eabi/lib/gnat/ravenscar-sfp-stm32h743nucleo/adalib/libgnarl.a(s-bbbosu.o)
                0x000000000800825c                system__bb__board_support__TipBIP
 .text.system__bb__board_support__initialize_board
                0x0000000008008270       0x6c /home/badr/GNAT/2018-arm-elf/arm-eabi/lib/gnat/ravenscar-sfp-stm32h743nucleo/adalib/libgnarl.a(s-bbbosu.o)
                0x0000000008008270                system__bb__board_support__initialize_board
 .text.system__bb__board_support__timer_interrupt_handler
                0x00000000080082dc       0x10 /home/badr/GNAT/2018-arm-elf/arm-eabi/lib/gnat/ravenscar-sfp-stm32h743nucleo/adalib/libgnarl.a(s-bbbosu.o)
                0x00000000080082dc                system__bb__board_support__timer_interrupt_handler
 .text.system__bb__board_support__interrupt_handler
                0x00000000080082ec       0x4c /home/badr/GNAT/2018-arm-elf/arm-eabi/lib/gnat/ravenscar-sfp-stm32h743nucleo/adalib/libgnarl.a(s-bbbosu.o)
                0x00000000080082ec                system__bb__board_support__interrupt_handler
 .text.system__bb__board_support__enable_interrupt_request
                0x0000000008008338       0xa4 /home/badr/GNAT/2018-arm-elf/arm-eabi/lib/gnat/ravenscar-sfp-stm32h743nucleo/adalib/libgnarl.a(s-bbbosu.o)
                0x0000000008008338                system__bb__board_support__enable_interrupt_request
 .text.system__bb__board_support__to_pri
                0x00000000080083dc       0x44 /home/badr/GNAT/2018-arm-elf/arm-eabi/lib/gnat/ravenscar-sfp-stm32h743nucleo/adalib/libgnarl.a(s-bbbosu.o)
                0x00000000080083dc                system__bb__board_support__to_pri
 .text.system__bb__board_support__to_priority
                0x0000000008008420       0x38 /home/badr/GNAT/2018-arm-elf/arm-eabi/lib/gnat/ravenscar-sfp-stm32h743nucleo/adalib/libgnarl.a(s-bbbosu.o)
                0x0000000008008420                system__bb__board_support__to_priority
 .text          0x0000000008008458        0x0 /home/badr/GNAT/2018-arm-elf/arm-eabi/lib/gnat/ravenscar-sfp-stm32h743nucleo/adalib/libgnarl.a(s-bbcppr.o)
 .text.system__bb__cpu_primitives__Tcontext_bufferBIP
                0x0000000008008458       0x14 /home/badr/GNAT/2018-arm-elf/arm-eabi/lib/gnat/ravenscar-sfp-stm32h743nucleo/adalib/libgnarl.a(s-bbcppr.o)
                0x0000000008008458                system__bb__cpu_primitives__Tcontext_bufferBIP
 .text.system__bb__cpu_primitives__hardware_contextIP
                0x000000000800846c       0x14 /home/badr/GNAT/2018-arm-elf/arm-eabi/lib/gnat/ravenscar-sfp-stm32h743nucleo/adalib/libgnarl.a(s-bbcppr.o)
                0x000000000800846c                system__bb__cpu_primitives__hardware_contextIP
 .text.primask  0x0000000008008480       0x1c /home/badr/GNAT/2018-arm-elf/arm-eabi/lib/gnat/ravenscar-sfp-stm32h743nucleo/adalib/libgnarl.a(s-bbcppr.o)
                0x0000000008008480                primask
 .text.system__bb__cpu_primitives__initialize_cpu
                0x000000000800849c       0x90 /home/badr/GNAT/2018-arm-elf/arm-eabi/lib/gnat/ravenscar-sfp-stm32h743nucleo/adalib/libgnarl.a(s-bbcppr.o)
                0x000000000800849c                system__bb__cpu_primitives__initialize_cpu
 .text.system__bb__cpu_primitives__context_switch
                0x000000000800852c        0xc /home/badr/GNAT/2018-arm-elf/arm-eabi/lib/gnat/ravenscar-sfp-stm32h743nucleo/adalib/libgnarl.a(s-bbcppr.o)
                0x000000000800852c                system__bb__cpu_primitives__context_switch
 .text.system__bb__cpu_primitives__get_context
                0x0000000008008538       0x24 /home/badr/GNAT/2018-arm-elf/arm-eabi/lib/gnat/ravenscar-sfp-stm32h743nucleo/adalib/libgnarl.a(s-bbcppr.o)
                0x0000000008008538                system__bb__cpu_primitives__get_context
 .text.system__bb__cpu_primitives__gnat_error_handler
                0x000000000800855c      0xc2c /home/badr/GNAT/2018-arm-elf/arm-eabi/lib/gnat/ravenscar-sfp-stm32h743nucleo/adalib/libgnarl.a(s-bbcppr.o)
                0x000000000800855c                system__bb__cpu_primitives__gnat_error_handler
 .text.__gnat_irq_trap
                0x0000000008009188       0x54 /home/badr/GNAT/2018-arm-elf/arm-eabi/lib/gnat/ravenscar-sfp-stm32h743nucleo/adalib/libgnarl.a(s-bbcppr.o)
                0x0000000008009188                __gnat_irq_trap
 .text.__gnat_sv_call_trap
                0x00000000080091dc        0xc /home/badr/GNAT/2018-arm-elf/arm-eabi/lib/gnat/ravenscar-sfp-stm32h743nucleo/adalib/libgnarl.a(s-bbcppr.o)
                0x00000000080091dc                __gnat_sv_call_trap
 .text.system__bb__cpu_primitives__set_context
                0x00000000080091e8       0x38 /home/badr/GNAT/2018-arm-elf/arm-eabi/lib/gnat/ravenscar-sfp-stm32h743nucleo/adalib/libgnarl.a(s-bbcppr.o)
                0x00000000080091e8                system__bb__cpu_primitives__set_context
 .text.__gnat_sys_tick_trap
                0x0000000008009220       0x9c /home/badr/GNAT/2018-arm-elf/arm-eabi/lib/gnat/ravenscar-sfp-stm32h743nucleo/adalib/libgnarl.a(s-bbcppr.o)
                0x0000000008009220                __gnat_sys_tick_trap
 .text.system__bb__cpu_primitives__initialize_context
                0x00000000080092bc       0x7c /home/badr/GNAT/2018-arm-elf/arm-eabi/lib/gnat/ravenscar-sfp-stm32h743nucleo/adalib/libgnarl.a(s-bbcppr.o)
                0x00000000080092bc                system__bb__cpu_primitives__initialize_context
 .text.system__bb__cpu_primitives__install_error_handlers
                0x0000000008009338       0x68 /home/badr/GNAT/2018-arm-elf/arm-eabi/lib/gnat/ravenscar-sfp-stm32h743nucleo/adalib/libgnarl.a(s-bbcppr.o)
                0x0000000008009338                system__bb__cpu_primitives__install_error_handlers
 .text.system__bb__cpu_primitives__install_trap_handler
                0x00000000080093a0       0x3c /home/badr/GNAT/2018-arm-elf/arm-eabi/lib/gnat/ravenscar-sfp-stm32h743nucleo/adalib/libgnarl.a(s-bbcppr.o)
                0x00000000080093a0                system__bb__cpu_primitives__install_trap_handler
 .text.system__bb__cpu_primitives__disable_interrupts
                0x00000000080093dc       0x10 /home/badr/GNAT/2018-arm-elf/arm-eabi/lib/gnat/ravenscar-sfp-stm32h743nucleo/adalib/libgnarl.a(s-bbcppr.o)
                0x00000000080093dc                system__bb__cpu_primitives__disable_interrupts
 .text.system__bb__cpu_primitives__enable_interrupts
                0x00000000080093ec       0x20 /home/badr/GNAT/2018-arm-elf/arm-eabi/lib/gnat/ravenscar-sfp-stm32h743nucleo/adalib/libgnarl.a(s-bbcppr.o)
                0x00000000080093ec                system__bb__cpu_primitives__enable_interrupts
 .text          0x000000000800940c        0x0 /home/badr/GNAT/2018-arm-elf/arm-eabi/lib/gnat/ravenscar-sfp-stm32h743nucleo/adalib/libgnarl.a(s-bbinte.o)
 .text.system__bb__interrupts__Tinterrupt_stacksBIP
                0x000000000800940c       0x14 /home/badr/GNAT/2018-arm-elf/arm-eabi/lib/gnat/ravenscar-sfp-stm32h743nucleo/adalib/libgnarl.a(s-bbinte.o)
                0x000000000800940c                system__bb__interrupts__Tinterrupt_stacksBIP
 .text.system__bb__interrupts__Tinterrupt_stack_tableBIP
                0x0000000008009420       0x14 /home/badr/GNAT/2018-arm-elf/arm-eabi/lib/gnat/ravenscar-sfp-stm32h743nucleo/adalib/libgnarl.a(s-bbinte.o)
                0x0000000008009420                system__bb__interrupts__Tinterrupt_stack_tableBIP
 .text.system__bb__interrupts__attach_handler
                0x0000000008009434       0x5c /home/badr/GNAT/2018-arm-elf/arm-eabi/lib/gnat/ravenscar-sfp-stm32h743nucleo/adalib/libgnarl.a(s-bbinte.o)
                0x0000000008009434                system__bb__interrupts__attach_handler
 .text.system__bb__interrupts__current_interrupt
                0x0000000008009490       0x50 /home/badr/GNAT/2018-arm-elf/arm-eabi/lib/gnat/ravenscar-sfp-stm32h743nucleo/adalib/libgnarl.a(s-bbinte.o)
                0x0000000008009490                system__bb__interrupts__current_interrupt
 .text.system__bb__interrupts__interrupt_wrapper
                0x00000000080094e0      0x13c /home/badr/GNAT/2018-arm-elf/arm-eabi/lib/gnat/ravenscar-sfp-stm32h743nucleo/adalib/libgnarl.a(s-bbinte.o)
                0x00000000080094e0                system__bb__interrupts__interrupt_wrapper
 .text.system__bb__interrupts__within_interrupt_stack
                0x000000000800961c       0x48 /home/badr/GNAT/2018-arm-elf/arm-eabi/lib/gnat/ravenscar-sfp-stm32h743nucleo/adalib/libgnarl.a(s-bbinte.o)
                0x000000000800961c                system__bb__interrupts__within_interrupt_stack
 .text.system__bb__interrupts__initialize_interrupts
                0x0000000008009664       0x54 /home/badr/GNAT/2018-arm-elf/arm-eabi/lib/gnat/ravenscar-sfp-stm32h743nucleo/adalib/libgnarl.a(s-bbinte.o)
                0x0000000008009664                system__bb__interrupts__initialize_interrupts
 .text          0x00000000080096b8        0x0 /home/badr/GNAT/2018-arm-elf/arm-eabi/lib/gnat/ravenscar-sfp-stm32h743nucleo/adalib/libgnarl.a(s-bbprot.o)
 .text.system__bb__protection__enter_kernel
                0x00000000080096b8        0xc /home/badr/GNAT/2018-arm-elf/arm-eabi/lib/gnat/ravenscar-sfp-stm32h743nucleo/adalib/libgnarl.a(s-bbprot.o)
                0x00000000080096b8                system__bb__protection__enter_kernel
 .text.system__bb__protection__leave_kernel
                0x00000000080096c4       0x54 /home/badr/GNAT/2018-arm-elf/arm-eabi/lib/gnat/ravenscar-sfp-stm32h743nucleo/adalib/libgnarl.a(s-bbprot.o)
                0x00000000080096c4                system__bb__protection__leave_kernel
 .text          0x0000000008009718        0x0 /home/badr/GNAT/2018-arm-elf/arm-eabi/lib/gnat/ravenscar-sfp-stm32h743nucleo/adalib/libgnarl.a(s-bbthqu.o)
 .text.system__bb__threads__queues__change_priority
                0x0000000008009718      0x244 /home/badr/GNAT/2018-arm-elf/arm-eabi/lib/gnat/ravenscar-sfp-stm32h743nucleo/adalib/libgnarl.a(s-bbthqu.o)
                0x0000000008009718                system__bb__threads__queues__change_priority
 .text.__gnat_context_switch_needed
                0x000000000800995c       0x20 /home/badr/GNAT/2018-arm-elf/arm-eabi/lib/gnat/ravenscar-sfp-stm32h743nucleo/adalib/libgnarl.a(s-bbthqu.o)
                0x000000000800995c                __gnat_context_switch_needed
 .text.system__bb__threads__queues__current_priority
                0x000000000800997c       0x54 /home/badr/GNAT/2018-arm-elf/arm-eabi/lib/gnat/ravenscar-sfp-stm32h743nucleo/adalib/libgnarl.a(s-bbthqu.o)
                0x000000000800997c                system__bb__threads__queues__current_priority
 .text.system__bb__threads__queues__extract
                0x00000000080099d0       0x68 /home/badr/GNAT/2018-arm-elf/arm-eabi/lib/gnat/ravenscar-sfp-stm32h743nucleo/adalib/libgnarl.a(s-bbthqu.o)
                0x00000000080099d0                system__bb__threads__queues__extract
 .text.system__bb__threads__queues__extract_first_alarm
                0x0000000008009a38       0x7c /home/badr/GNAT/2018-arm-elf/arm-eabi/lib/gnat/ravenscar-sfp-stm32h743nucleo/adalib/libgnarl.a(s-bbthqu.o)
                0x0000000008009a38                system__bb__threads__queues__extract_first_alarm
 .text.system__bb__threads__queues__first_thread
                0x0000000008009ab4       0x24 /home/badr/GNAT/2018-arm-elf/arm-eabi/lib/gnat/ravenscar-sfp-stm32h743nucleo/adalib/libgnarl.a(s-bbthqu.o)
                0x0000000008009ab4                system__bb__threads__queues__first_thread
 .text.system__bb__threads__queues__get_next_alarm_time
                0x0000000008009ad8       0x48 /home/badr/GNAT/2018-arm-elf/arm-eabi/lib/gnat/ravenscar-sfp-stm32h743nucleo/adalib/libgnarl.a(s-bbthqu.o)
                0x0000000008009ad8                system__bb__threads__queues__get_next_alarm_time
 .text.system__bb__threads__queues__insert
                0x0000000008009b20      0x2a0 /home/badr/GNAT/2018-arm-elf/arm-eabi/lib/gnat/ravenscar-sfp-stm32h743nucleo/adalib/libgnarl.a(s-bbthqu.o)
                0x0000000008009b20                system__bb__threads__queues__insert
 .text.system__bb__threads__queues__insert_alarm
                0x0000000008009dc0      0x1b0 /home/badr/GNAT/2018-arm-elf/arm-eabi/lib/gnat/ravenscar-sfp-stm32h743nucleo/adalib/libgnarl.a(s-bbthqu.o)
                0x0000000008009dc0                system__bb__threads__queues__insert_alarm
 .text.system__bb__threads__queues__running_thread
                0x0000000008009f70       0x24 /home/badr/GNAT/2018-arm-elf/arm-eabi/lib/gnat/ravenscar-sfp-stm32h743nucleo/adalib/libgnarl.a(s-bbthqu.o)
                0x0000000008009f70                system__bb__threads__queues__running_thread
 .text.system__bb__threads__queues__wakeup_expired_alarms
                0x0000000008009f94       0x60 /home/badr/GNAT/2018-arm-elf/arm-eabi/lib/gnat/ravenscar-sfp-stm32h743nucleo/adalib/libgnarl.a(s-bbthqu.o)
                0x0000000008009f94                system__bb__threads__queues__wakeup_expired_alarms
 .text.system__bb__threads__queues__yield
                0x0000000008009ff4      0x190 /home/badr/GNAT/2018-arm-elf/arm-eabi/lib/gnat/ravenscar-sfp-stm32h743nucleo/adalib/libgnarl.a(s-bbthqu.o)
                0x0000000008009ff4                system__bb__threads__queues__yield
 .text          0x000000000800a184        0x0 /home/badr/GNAT/2018-arm-elf/arm-eabi/lib/gnat/ravenscar-sfp-stm32h743nucleo/adalib/libgnarl.a(s-bbthre.o)
 .text.system__bb__threads__thread_descriptorIP
                0x000000000800a184       0x24 /home/badr/GNAT/2018-arm-elf/arm-eabi/lib/gnat/ravenscar-sfp-stm32h743nucleo/adalib/libgnarl.a(s-bbthre.o)
                0x000000000800a184                system__bb__threads__thread_descriptorIP
 .text.system__bb__threads__get_affinity
                0x000000000800a1a8       0x2c /home/badr/GNAT/2018-arm-elf/arm-eabi/lib/gnat/ravenscar-sfp-stm32h743nucleo/adalib/libgnarl.a(s-bbthre.o)
                0x000000000800a1a8                system__bb__threads__get_affinity
 .text.system__bb__threads__get_cpu
                0x000000000800a1d4       0x54 /home/badr/GNAT/2018-arm-elf/arm-eabi/lib/gnat/ravenscar-sfp-stm32h743nucleo/adalib/libgnarl.a(s-bbthre.o)
                0x000000000800a1d4                system__bb__threads__get_cpu
 .text.system__bb__threads__get_atcb
                0x000000000800a228       0x24 /home/badr/GNAT/2018-arm-elf/arm-eabi/lib/gnat/ravenscar-sfp-stm32h743nucleo/adalib/libgnarl.a(s-bbthre.o)
                0x000000000800a228                system__bb__threads__get_atcb
 .text.system__bb__threads__get_priority
                0x000000000800a24c       0x28 /home/badr/GNAT/2018-arm-elf/arm-eabi/lib/gnat/ravenscar-sfp-stm32h743nucleo/adalib/libgnarl.a(s-bbthre.o)
                0x000000000800a24c                system__bb__threads__get_priority
 .text.system__bb__threads__initialize_thread
                0x000000000800a274      0x164 /home/badr/GNAT/2018-arm-elf/arm-eabi/lib/gnat/ravenscar-sfp-stm32h743nucleo/adalib/libgnarl.a(s-bbthre.o)
 .text.system__bb__threads__initialize
                0x000000000800a3d8       0x88 /home/badr/GNAT/2018-arm-elf/arm-eabi/lib/gnat/ravenscar-sfp-stm32h743nucleo/adalib/libgnarl.a(s-bbthre.o)
                0x000000000800a3d8                system__bb__threads__initialize
 .text.system__bb__threads__initialize_slave
                0x000000000800a460       0x78 /home/badr/GNAT/2018-arm-elf/arm-eabi/lib/gnat/ravenscar-sfp-stm32h743nucleo/adalib/libgnarl.a(s-bbthre.o)
                0x000000000800a460                system__bb__threads__initialize_slave
 .text.system__bb__threads__set_atcb
                0x000000000800a4d8       0x2c /home/badr/GNAT/2018-arm-elf/arm-eabi/lib/gnat/ravenscar-sfp-stm32h743nucleo/adalib/libgnarl.a(s-bbthre.o)
                0x000000000800a4d8                system__bb__threads__set_atcb
 .text.system__bb__threads__set_priority
                0x000000000800a504       0x24 /home/badr/GNAT/2018-arm-elf/arm-eabi/lib/gnat/ravenscar-sfp-stm32h743nucleo/adalib/libgnarl.a(s-bbthre.o)
                0x000000000800a504                system__bb__threads__set_priority
 .text.system__bb__threads__sleep
                0x000000000800a528       0x70 /home/badr/GNAT/2018-arm-elf/arm-eabi/lib/gnat/ravenscar-sfp-stm32h743nucleo/adalib/libgnarl.a(s-bbthre.o)
                0x000000000800a528                system__bb__threads(short, long,...)(...)( *)
 .text.system__bb__threads__thread_create
                0x000000000800a598       0x50 /home/badr/GNAT/2018-arm-elf/arm-eabi/lib/gnat/ravenscar-sfp-stm32h743nucleo/adalib/libgnarl.a(s-bbthre.o)
                0x000000000800a598                system__bb__threads__thread_create
 .text.system__bb__threads__thread_self
                0x000000000800a5e8       0x10 /home/badr/GNAT/2018-arm-elf/arm-eabi/lib/gnat/ravenscar-sfp-stm32h743nucleo/adalib/libgnarl.a(s-bbthre.o)
                0x000000000800a5e8                system__bb__threads__thread_self
 .text.system__bb__threads__wakeup
                0x000000000800a5f8       0x6c /home/badr/GNAT/2018-arm-elf/arm-eabi/lib/gnat/ravenscar-sfp-stm32h743nucleo/adalib/libgnarl.a(s-bbthre.o)
                0x000000000800a5f8                system__bb__threads__wakeup
 .text          0x000000000800a664        0x0 /home/badr/GNAT/2018-arm-elf/arm-eabi/lib/gnat/ravenscar-sfp-stm32h743nucleo/adalib/libgnarl.a(s-bcpcst.o)
 .text.system__bb__cpu_primitives__context_switch_trigger__initialize_context_switch
                0x000000000800a664       0x10 /home/badr/GNAT/2018-arm-elf/arm-eabi/lib/gnat/ravenscar-sfp-stm32h743nucleo/adalib/libgnarl.a(s-bcpcst.o)
                0x000000000800a664                system__bb__cpu_primitives__context_switch_trigger__initialize_context_switch
 .text.system__bb__cpu_primitives__context_switch_trigger__trigger_context_switch
                0x000000000800a674       0x18 /home/badr/GNAT/2018-arm-elf/arm-eabi/lib/gnat/ravenscar-sfp-stm32h743nucleo/adalib/libgnarl.a(s-bcpcst.o)
                0x000000000800a674                system__bb__cpu_primitives__context_switch_trigger__trigger_context_switch
 .text.__gnat_pend_sv_trap
                0x000000000800a68c       0x48 /home/badr/GNAT/2018-arm-elf/arm-eabi/lib/gnat/ravenscar-sfp-stm32h743nucleo/adalib/libgnarl.a(s-bcpcst.o)
                0x000000000800a68c                __gnat_pend_sv_trap
 *fill*         0x000000000800a6d4      0x12c 
 .text          0x000000000800a800      0x264 /home/badr/GNAT/2018-arm-elf/arm-eabi/lib/gnat/ravenscar-sfp-stm32h743nucleo/adalib/libgnarl.a(handler.o)
                0x000000000800a800                __vectors
 .text          0x000000000800aa64        0x0 /home/badr/GNAT/2018-arm-elf/arm-eabi/lib/gnat/ravenscar-sfp-stm32h743nucleo/adalib/libgnat.a(a-elchha.o)
 .text.ada__exceptions__last_chance_handler__put.5431
                0x000000000800aa64       0x5c /home/badr/GNAT/2018-arm-elf/arm-eabi/lib/gnat/ravenscar-sfp-stm32h743nucleo/adalib/libgnat.a(a-elchha.o)
 .text.__gnat_last_chance_handler
                0x000000000800aac0       0x8c /home/badr/GNAT/2018-arm-elf/arm-eabi/lib/gnat/ravenscar-sfp-stm32h743nucleo/adalib/libgnat.a(a-elchha.o)
                0x000000000800aac0                __gnat_last_chance_handler
 .text          0x000000000800ab4c        0x0 /home/badr/GNAT/2018-arm-elf/arm-eabi/lib/gnat/ravenscar-sfp-stm32h743nucleo/adalib/libgnat.a(a-except.o)
 .text          0x000000000800ab4c       0x20 /home/badr/GNAT/2018-arm-elf/arm-eabi/lib/gnat/ravenscar-sfp-stm32h743nucleo/adalib/libgnat.a(breakpoint_handler-cortexm.o)
                0x000000000800ab4c                __gnat_bkpt_trap
 .text          0x000000000800ab6c        0x0 /home/badr/GNAT/2018-arm-elf/arm-eabi/lib/gnat/ravenscar-sfp-stm32h743nucleo/adalib/libgnat.a(g-io.o)
 .text.gnat__io__put__2
                0x000000000800ab6c       0x60 /home/badr/GNAT/2018-arm-elf/arm-eabi/lib/gnat/ravenscar-sfp-stm32h743nucleo/adalib/libgnat.a(g-io.o)
                0x000000000800ab6c                gnat__io__put__2
 .text.gnat__io__new_line
                0x000000000800abcc       0x2c /home/badr/GNAT/2018-arm-elf/arm-eabi/lib/gnat/ravenscar-sfp-stm32h743nucleo/adalib/libgnat.a(g-io.o)
                0x000000000800abcc                gnat__io__new_line
 .text.gnat__io__put
                0x000000000800abf8      0x134 /home/badr/GNAT/2018-arm-elf/arm-eabi/lib/gnat/ravenscar-sfp-stm32h743nucleo/adalib/libgnat.a(g-io.o)
                0x000000000800abf8                gnat__io__put
 .text.gnat__io__put__3
                0x000000000800ad2c       0x48 /home/badr/GNAT/2018-arm-elf/arm-eabi/lib/gnat/ravenscar-sfp-stm32h743nucleo/adalib/libgnat.a(g-io.o)
                0x000000000800ad2c                gnat__io__put__3
 .text.gnat__io__put_line
                0x000000000800ad74       0x20 /home/badr/GNAT/2018-arm-elf/arm-eabi/lib/gnat/ravenscar-sfp-stm32h743nucleo/adalib/libgnat.a(g-io.o)
                0x000000000800ad74                gnat__io__put_line
 .text          0x000000000800ad94        0x0 /home/badr/GNAT/2018-arm-elf/arm-eabi/lib/gnat/ravenscar-sfp-stm32h743nucleo/adalib/libgnat.a(s-assert.o)
 .text.system__assertions__raise_assert_failure
                0x000000000800ad94      0x15c /home/badr/GNAT/2018-arm-elf/arm-eabi/lib/gnat/ravenscar-sfp-stm32h743nucleo/adalib/libgnat.a(s-assert.o)
                0x000000000800ad94                system__assertions__raise_assert_failure
 .text          0x000000000800aef0        0x0 /home/badr/GNAT/2018-arm-elf/arm-eabi/lib/gnat/ravenscar-sfp-stm32h743nucleo/adalib/libgnat.a(s-macres.o)
 .text.abort    0x000000000800aef0        0xc /home/badr/GNAT/2018-arm-elf/arm-eabi/lib/gnat/ravenscar-sfp-stm32h743nucleo/adalib/libgnat.a(s-macres.o)
                0x000000000800aef0                abort
 .text._exit    0x000000000800aefc       0x20 /home/badr/GNAT/2018-arm-elf/arm-eabi/lib/gnat/ravenscar-sfp-stm32h743nucleo/adalib/libgnat.a(s-macres.o)
                0x000000000800aefc                _exit
 .text.system__machine_reset__stop
                0x000000000800af1c        0xc /home/badr/GNAT/2018-arm-elf/arm-eabi/lib/gnat/ravenscar-sfp-stm32h743nucleo/adalib/libgnat.a(s-macres.o)
                0x000000000800af1c                system__machine_reset__stop
 .text          0x000000000800af28        0x0 /home/badr/GNAT/2018-arm-elf/arm-eabi/lib/gnat/ravenscar-sfp-stm32h743nucleo/adalib/libgnat.a(s-memcop.o)
 .text.memcpy   0x000000000800af28       0xb4 /home/badr/GNAT/2018-arm-elf/arm-eabi/lib/gnat/ravenscar-sfp-stm32h743nucleo/adalib/libgnat.a(s-memcop.o)
                0x000000000800af28                memcpy
 .text          0x000000000800afdc        0x0 /home/badr/GNAT/2018-arm-elf/arm-eabi/lib/gnat/ravenscar-sfp-stm32h743nucleo/adalib/libgnat.a(s-memset.o)
 .text.memset   0x000000000800afdc       0x9c /home/badr/GNAT/2018-arm-elf/arm-eabi/lib/gnat/ravenscar-sfp-stm32h743nucleo/adalib/libgnat.a(s-memset.o)
                0x000000000800afdc                memset
 .text          0x000000000800b078        0x0 /home/badr/GNAT/2018-arm-elf/arm-eabi/lib/gnat/ravenscar-sfp-stm32h743nucleo/adalib/libgnat.a(s-parame.o)
 .text.system__parameters__adjust_storage_size
                0x000000000800b078       0x28 /home/badr/GNAT/2018-arm-elf/arm-eabi/lib/gnat/ravenscar-sfp-stm32h743nucleo/adalib/libgnat.a(s-parame.o)
                0x000000000800b078                system__parameters__adjust_storage_size
 .text          0x000000000800b0a0        0x0 /home/badr/GNAT/2018-arm-elf/arm-eabi/lib/gnat/ravenscar-sfp-stm32h743nucleo/adalib/libgnat.a(s-secsta.o)
 .text.system__secondary_stack__memoryIP
                0x000000000800b0a0       0x14 /home/badr/GNAT/2018-arm-elf/arm-eabi/lib/gnat/ravenscar-sfp-stm32h743nucleo/adalib/libgnat.a(s-secsta.o)
                0x000000000800b0a0                system__secondary_stack__memoryIP
 .text.system__secondary_stack__ss_stackIP
                0x000000000800b0b4       0x1c /home/badr/GNAT/2018-arm-elf/arm-eabi/lib/gnat/ravenscar-sfp-stm32h743nucleo/adalib/libgnat.a(s-secsta.o)
                0x000000000800b0b4                system__secondary_stack__ss_stackIP
 .text.system__secondary_stack__ss_allocate
                0x000000000800b0d0       0xe4 /home/badr/GNAT/2018-arm-elf/arm-eabi/lib/gnat/ravenscar-sfp-stm32h743nucleo/adalib/libgnat.a(s-secsta.o)
                0x000000000800b0d0                system__secondary_stack__ss_allocate
 .text.system__secondary_stack__ss_get_max
                0x000000000800b1b4       0x2c /home/badr/GNAT/2018-arm-elf/arm-eabi/lib/gnat/ravenscar-sfp-stm32h743nucleo/adalib/libgnat.a(s-secsta.o)
                0x000000000800b1b4                system__secondary_stack__ss_get_max
 .text.system__secondary_stack__ss_init
                0x000000000800b1e0      0x1a0 /home/badr/GNAT/2018-arm-elf/arm-eabi/lib/gnat/ravenscar-sfp-stm32h743nucleo/adalib/libgnat.a(s-secsta.o)
                0x000000000800b1e0                system__secondary_stack__ss_init
 .text.system__secondary_stack__ss_mark
                0x000000000800b380       0x24 /home/badr/GNAT/2018-arm-elf/arm-eabi/lib/gnat/ravenscar-sfp-stm32h743nucleo/adalib/libgnat.a(s-secsta.o)
                0x000000000800b380                system__secondary_stack__ss_mark
 .text.system__secondary_stack__ss_release
                0x000000000800b3a4       0x2c /home/badr/GNAT/2018-arm-elf/arm-eabi/lib/gnat/ravenscar-sfp-stm32h743nucleo/adalib/libgnat.a(s-secsta.o)
                0x000000000800b3a4                system__secondary_stack__ss_release
 .text          0x000000000800b3d0        0x0 /home/badr/GNAT/2018-arm-elf/arm-eabi/lib/gnat/ravenscar-sfp-stm32h743nucleo/adalib/libgnat.a(s-textio.o)
 .text.system__text_io__initialize
                0x000000000800b3d0       0x18 /home/badr/GNAT/2018-arm-elf/arm-eabi/lib/gnat/ravenscar-sfp-stm32h743nucleo/adalib/libgnat.a(s-textio.o)
                0x000000000800b3d0                system__text_io__initialize
 .text.system__text_io__is_tx_ready
                0x000000000800b3e8       0x14 /home/badr/GNAT/2018-arm-elf/arm-eabi/lib/gnat/ravenscar-sfp-stm32h743nucleo/adalib/libgnat.a(s-textio.o)
                0x000000000800b3e8                system__text_io__is_tx_ready
 .text.system__text_io__is_rx_ready
                0x000000000800b3fc       0x14 /home/badr/GNAT/2018-arm-elf/arm-eabi/lib/gnat/ravenscar-sfp-stm32h743nucleo/adalib/libgnat.a(s-textio.o)
                0x000000000800b3fc                system__text_io__is_rx_ready
 .text.system__text_io__get
                0x000000000800b410       0x1c /home/badr/GNAT/2018-arm-elf/arm-eabi/lib/gnat/ravenscar-sfp-stm32h743nucleo/adalib/libgnat.a(s-textio.o)
                0x000000000800b410                system__text_io__get
 .text.system__text_io__put
                0x000000000800b42c       0x18 /home/badr/GNAT/2018-arm-elf/arm-eabi/lib/gnat/ravenscar-sfp-stm32h743nucleo/adalib/libgnat.a(s-textio.o)
                0x000000000800b42c                system__text_io__put
 .text.system__text_io__use_cr_lf_for_new_line
                0x000000000800b444       0x14 /home/badr/GNAT/2018-arm-elf/arm-eabi/lib/gnat/ravenscar-sfp-stm32h743nucleo/adalib/libgnat.a(s-textio.o)
                0x000000000800b444                system__text_io__use_cr_lf_for_new_line
 .text          0x000000000800b458       0x6c /home/badr/GNAT/2018-arm-elf/arm-eabi/lib/gnat/ravenscar-sfp-stm32h743nucleo/adalib/libgnat.a(start-rom.o)
                0x000000000800b458                _start_rom
 .text          0x000000000800b4c4        0x0 /home/badr/GNAT/2018-arm-elf/arm-eabi/lib/gnat/ravenscar-sfp-stm32h743nucleo/adalib/libgnat.a(s-semiho.o)
 .text.system__semihosting__TbufferBIP
                0x000000000800b4c4       0x14 /home/badr/GNAT/2018-arm-elf/arm-eabi/lib/gnat/ravenscar-sfp-stm32h743nucleo/adalib/libgnat.a(s-semiho.o)
                0x000000000800b4c4                system__semihosting__TbufferBIP
 .text.system__semihosting__generic_sh_call
                0x000000000800b4d8       0x28 /home/badr/GNAT/2018-arm-elf/arm-eabi/lib/gnat/ravenscar-sfp-stm32h743nucleo/adalib/libgnat.a(s-semiho.o)
 .text.system__semihosting__flush
                0x000000000800b500       0x44 /home/badr/GNAT/2018-arm-elf/arm-eabi/lib/gnat/ravenscar-sfp-stm32h743nucleo/adalib/libgnat.a(s-semiho.o)
 .text.system__semihosting__put
                0x000000000800b544       0x90 /home/badr/GNAT/2018-arm-elf/arm-eabi/lib/gnat/ravenscar-sfp-stm32h743nucleo/adalib/libgnat.a(s-semiho.o)
                0x000000000800b544                system__semihosting__put
 .text.system__semihosting__put__2
                0x000000000800b5d4       0x48 /home/badr/GNAT/2018-arm-elf/arm-eabi/lib/gnat/ravenscar-sfp-stm32h743nucleo/adalib/libgnat.a(s-semiho.o)
                0x000000000800b5d4                system__semihosting__put__2
 .text.system__semihosting__get
                0x000000000800b61c       0x34 /home/badr/GNAT/2018-arm-elf/arm-eabi/lib/gnat/ravenscar-sfp-stm32h743nucleo/adalib/libgnat.a(s-semiho.o)
                0x000000000800b61c                system__semihosting__get
 .text          0x000000000800b650      0x104 /home/badr/GNAT/2018-arm-elf/arm-eabi/lib/gnat/ravenscar-sfp-stm32h743nucleo/adalib/libgnat.a(start-common.o)
                0x000000000800b650                _stm32_start_common
 .text          0x000000000800b754       0xa0 /home/badr/GNAT/2018-arm-elf/bin/../lib/gcc/arm-eabi/7.3.1/thumb/v7e-m/fpv5/hard/libgcc.a(_aeabi_ldivmod.o)
                0x000000000800b754                __aeabi_ldivmod
 .text          0x000000000800b7f4       0x30 /home/badr/GNAT/2018-arm-elf/bin/../lib/gcc/arm-eabi/7.3.1/thumb/v7e-m/fpv5/hard/libgcc.a(_aeabi_uldivmod.o)
                0x000000000800b7f4                __aeabi_uldivmod
 .text          0x000000000800b824      0x2cc /home/badr/GNAT/2018-arm-elf/bin/../lib/gcc/arm-eabi/7.3.1/thumb/v7e-m/fpv5/hard/libgcc.a(_udivmoddi4.o)
                0x000000000800b824                __udivmoddi4
 .text          0x000000000800baf0        0x4 /home/badr/GNAT/2018-arm-elf/bin/../lib/gcc/arm-eabi/7.3.1/thumb/v7e-m/fpv5/hard/libgcc.a(_dvmd_tls.o)
                0x000000000800baf0                __aeabi_ldiv0
                0x000000000800baf0                __aeabi_idiv0
 *(.gnu.warning)

.glue_7         0x000000000800baf4        0x0
 .glue_7        0x000000000800baf4        0x0 linker stubs

.glue_7t        0x000000000800baf4        0x0
 .glue_7t       0x000000000800baf4        0x0 linker stubs

.vfp11_veneer   0x000000000800baf4        0x0
 .vfp11_veneer  0x000000000800baf4        0x0 linker stubs

.v4_bx          0x000000000800baf4        0x0
 .v4_bx         0x000000000800baf4        0x0 linker stubs

.iplt           0x000000000800baf4        0x0
 .iplt          0x000000000800baf4        0x0 spi.o

.ARM.extab      0x000000000800baf4        0x0
 *(.ARM.extab* .gnu.linkonce.armextab.*)
 .ARM.extab     0x000000000800baf4        0x0 /home/badr/GNAT/2018-arm-elf/bin/../lib/gcc/arm-eabi/7.3.1/thumb/v7e-m/fpv5/hard/libgcc.a(_udivmoddi4.o)

.ARM.exidx      0x000000000800baf4        0x8
                [!provide]                        PROVIDE (__exidx_start, .)
 *(.ARM.exidx* .gnu.linkonce.armexidx.*)
 .ARM.exidx     0x000000000800baf4        0x8 /home/badr/GNAT/2018-arm-elf/bin/../lib/gcc/arm-eabi/7.3.1/thumb/v7e-m/fpv5/hard/libgcc.a(_udivmoddi4.o)
                [!provide]                        PROVIDE (__exidx_end, .)

.rodata         0x000000000800bb00     0x11d0
 *(.lit)
 *(.rodata .rodata.* .gnu.linkonce.r*)
 .rodata        0x000000000800bb00        0x4 spi.o
 .rodata        0x000000000800bb04       0x3d b__spi.o
                0x000000000800bb0c                __gnat_version
                0x000000000800bb38                __gnat_ada_main_program_name
 *fill*         0x000000000800bb41        0x3 
 .rodata        0x000000000800bb44       0x29 /home/badr/hackinvent/Ada_Drivers_Library/boards/stm32h743_nucleo/obj/sfp_lib_Debug/libada_drivers_library.a(stm32-board.o)
 *fill*         0x000000000800bb6d        0x3 
 .rodata.stm32__board__red_led
                0x000000000800bb70        0x4 /home/badr/hackinvent/Ada_Drivers_Library/boards/stm32h743_nucleo/obj/sfp_lib_Debug/libada_drivers_library.a(stm32-board.o)
                0x000000000800bb70                stm32__board__red_led
 .rodata.stm32__board__green_led
                0x000000000800bb74        0x4 /home/badr/hackinvent/Ada_Drivers_Library/boards/stm32h743_nucleo/obj/sfp_lib_Debug/libada_drivers_library.a(stm32-board.o)
                0x000000000800bb74                stm32__board__green_led
 .rodata.stm32__board__green2_led
                0x000000000800bb78        0x4 /home/badr/hackinvent/Ada_Drivers_Library/boards/stm32h743_nucleo/obj/sfp_lib_Debug/libada_drivers_library.a(stm32-board.o)
                0x000000000800bb78                stm32__board__green2_led
 .rodata.stm32__board__led1
                0x000000000800bb7c        0x4 /home/badr/hackinvent/Ada_Drivers_Library/boards/stm32h743_nucleo/obj/sfp_lib_Debug/libada_drivers_library.a(stm32-board.o)
                0x000000000800bb7c                stm32__board__led1
 .rodata.stm32__board__led2
                0x000000000800bb80        0x4 /home/badr/hackinvent/Ada_Drivers_Library/boards/stm32h743_nucleo/obj/sfp_lib_Debug/libada_drivers_library.a(stm32-board.o)
                0x000000000800bb80                stm32__board__led2
 .rodata.stm32__board__led3
                0x000000000800bb84        0x4 /home/badr/hackinvent/Ada_Drivers_Library/boards/stm32h743_nucleo/obj/sfp_lib_Debug/libada_drivers_library.a(stm32-board.o)
                0x000000000800bb84                stm32__board__led3
 .rodata.stm32__board__lch_led
                0x000000000800bb88        0x4 /home/badr/hackinvent/Ada_Drivers_Library/boards/stm32h743_nucleo/obj/sfp_lib_Debug/libada_drivers_library.a(stm32-board.o)
                0x000000000800bb88                stm32__board__lch_led
 .rodata.stm32__board__ext_spi
                0x000000000800bb8c        0x4 /home/badr/hackinvent/Ada_Drivers_Library/boards/stm32h743_nucleo/obj/sfp_lib_Debug/libada_drivers_library.a(stm32-board.o)
                0x000000000800bb8c                stm32__board__ext_spi
 .rodata.stm32__board__ext_sck
                0x000000000800bb90        0x4 /home/badr/hackinvent/Ada_Drivers_Library/boards/stm32h743_nucleo/obj/sfp_lib_Debug/libada_drivers_library.a(stm32-board.o)
                0x000000000800bb90                stm32__board__ext_sck
 .rodata.stm32__board__ext_miso
                0x000000000800bb94        0x4 /home/badr/hackinvent/Ada_Drivers_Library/boards/stm32h743_nucleo/obj/sfp_lib_Debug/libada_drivers_library.a(stm32-board.o)
                0x000000000800bb94                stm32__board__ext_miso
 .rodata.stm32__board__ext_mosi
                0x000000000800bb98        0x4 /home/badr/hackinvent/Ada_Drivers_Library/boards/stm32h743_nucleo/obj/sfp_lib_Debug/libada_drivers_library.a(stm32-board.o)
                0x000000000800bb98                stm32__board__ext_mosi
 .rodata        0x000000000800bb9c       0x89 /home/badr/hackinvent/Ada_Drivers_Library/boards/stm32h743_nucleo/obj/sfp_lib_Debug/libada_drivers_library.a(stm32-device.o)
 *fill*         0x000000000800bc25        0x3 
 .rodata.stm32__device__unknown_deviceE
                0x000000000800bc28       0x1c /home/badr/hackinvent/Ada_Drivers_Library/boards/stm32h743_nucleo/obj/sfp_lib_Debug/libada_drivers_library.a(stm32-device.o)
                0x000000000800bc28                stm32__device__unknown_deviceE
 .rodata.stm32__device__R4s
                0x000000000800bc44        0x4 /home/badr/hackinvent/Ada_Drivers_Library/boards/stm32h743_nucleo/obj/sfp_lib_Debug/libada_drivers_library.a(stm32-device.o)
                0x000000000800bc44                stm32__device__R4s
 .rodata.stm32__device__gpio_a
                0x000000000800bc48        0x4 /home/badr/hackinvent/Ada_Drivers_Library/boards/stm32h743_nucleo/obj/sfp_lib_Debug/libada_drivers_library.a(stm32-device.o)
                0x000000000800bc48                stm32__device__gpio_a
 .rodata.stm32__device__gpio_b
                0x000000000800bc4c        0x4 /home/badr/hackinvent/Ada_Drivers_Library/boards/stm32h743_nucleo/obj/sfp_lib_Debug/libada_drivers_library.a(stm32-device.o)
                0x000000000800bc4c                stm32__device__gpio_b
 .rodata.stm32__device__gpio_c
                0x000000000800bc50        0x4 /home/badr/hackinvent/Ada_Drivers_Library/boards/stm32h743_nucleo/obj/sfp_lib_Debug/libada_drivers_library.a(stm32-device.o)
                0x000000000800bc50                stm32__device__gpio_c
 .rodata.stm32__device__gpio_d
                0x000000000800bc54        0x4 /home/badr/hackinvent/Ada_Drivers_Library/boards/stm32h743_nucleo/obj/sfp_lib_Debug/libada_drivers_library.a(stm32-device.o)
                0x000000000800bc54                stm32__device__gpio_d
 .rodata.stm32__device__gpio_e
                0x000000000800bc58        0x4 /home/badr/hackinvent/Ada_Drivers_Library/boards/stm32h743_nucleo/obj/sfp_lib_Debug/libada_drivers_library.a(stm32-device.o)
                0x000000000800bc58                stm32__device__gpio_e
 .rodata.stm32__device__gpio_f
                0x000000000800bc5c        0x4 /home/badr/hackinvent/Ada_Drivers_Library/boards/stm32h743_nucleo/obj/sfp_lib_Debug/libada_drivers_library.a(stm32-device.o)
                0x000000000800bc5c                stm32__device__gpio_f
 .rodata.stm32__device__gpio_g
                0x000000000800bc60        0x4 /home/badr/hackinvent/Ada_Drivers_Library/boards/stm32h743_nucleo/obj/sfp_lib_Debug/libada_drivers_library.a(stm32-device.o)
                0x000000000800bc60                stm32__device__gpio_g
 .rodata.stm32__device__gpio_h
                0x000000000800bc64        0x4 /home/badr/hackinvent/Ada_Drivers_Library/boards/stm32h743_nucleo/obj/sfp_lib_Debug/libada_drivers_library.a(stm32-device.o)
                0x000000000800bc64                stm32__device__gpio_h
 .rodata.stm32__device__gpio_i
                0x000000000800bc68        0x4 /home/badr/hackinvent/Ada_Drivers_Library/boards/stm32h743_nucleo/obj/sfp_lib_Debug/libada_drivers_library.a(stm32-device.o)
                0x000000000800bc68                stm32__device__gpio_i
 .rodata.stm32__device__gpio_j
                0x000000000800bc6c        0x4 /home/badr/hackinvent/Ada_Drivers_Library/boards/stm32h743_nucleo/obj/sfp_lib_Debug/libada_drivers_library.a(stm32-device.o)
                0x000000000800bc6c                stm32__device__gpio_j
 .rodata.stm32__device__gpio_k
                0x000000000800bc70        0x4 /home/badr/hackinvent/Ada_Drivers_Library/boards/stm32h743_nucleo/obj/sfp_lib_Debug/libada_drivers_library.a(stm32-device.o)
                0x000000000800bc70                stm32__device__gpio_k
 .rodata.stm32__device__internal_spi_1
                0x000000000800bc74        0x4 /home/badr/hackinvent/Ada_Drivers_Library/boards/stm32h743_nucleo/obj/sfp_lib_Debug/libada_drivers_library.a(stm32-device.o)
                0x000000000800bc74                stm32__device__internal_spi_1
 .rodata.stm32__device__internal_spi_2
                0x000000000800bc78        0x4 /home/badr/hackinvent/Ada_Drivers_Library/boards/stm32h743_nucleo/obj/sfp_lib_Debug/libada_drivers_library.a(stm32-device.o)
                0x000000000800bc78                stm32__device__internal_spi_2
 .rodata.stm32__device__internal_spi_3
                0x000000000800bc7c        0x4 /home/badr/hackinvent/Ada_Drivers_Library/boards/stm32h743_nucleo/obj/sfp_lib_Debug/libada_drivers_library.a(stm32-device.o)
                0x000000000800bc7c                stm32__device__internal_spi_3
 .rodata.stm32__device__internal_spi_4
                0x000000000800bc80        0x4 /home/badr/hackinvent/Ada_Drivers_Library/boards/stm32h743_nucleo/obj/sfp_lib_Debug/libada_drivers_library.a(stm32-device.o)
                0x000000000800bc80                stm32__device__internal_spi_4
 .rodata.stm32__device__internal_spi_5
                0x000000000800bc84        0x4 /home/badr/hackinvent/Ada_Drivers_Library/boards/stm32h743_nucleo/obj/sfp_lib_Debug/libada_drivers_library.a(stm32-device.o)
                0x000000000800bc84                stm32__device__internal_spi_5
 .rodata.stm32__device__internal_spi_6
                0x000000000800bc88        0x4 /home/badr/hackinvent/Ada_Drivers_Library/boards/stm32h743_nucleo/obj/sfp_lib_Debug/libada_drivers_library.a(stm32-device.o)
                0x000000000800bc88                stm32__device__internal_spi_6
 .rodata.stm32__device__pllsai_div2
                0x000000000800bc8c        0x1 /home/badr/hackinvent/Ada_Drivers_Library/boards/stm32h743_nucleo/obj/sfp_lib_Debug/libada_drivers_library.a(stm32-device.o)
                0x000000000800bc8c                stm32__device__pllsai_div2
 .rodata.stm32__device__pllsai_div4
                0x000000000800bc8d        0x1 /home/badr/hackinvent/Ada_Drivers_Library/boards/stm32h743_nucleo/obj/sfp_lib_Debug/libada_drivers_library.a(stm32-device.o)
                0x000000000800bc8d                stm32__device__pllsai_div4
 .rodata.stm32__device__pllsai_div8
                0x000000000800bc8e        0x1 /home/badr/hackinvent/Ada_Drivers_Library/boards/stm32h743_nucleo/obj/sfp_lib_Debug/libada_drivers_library.a(stm32-device.o)
                0x000000000800bc8e                stm32__device__pllsai_div8
 .rodata.stm32__device__pllsai_div16
                0x000000000800bc8f        0x1 /home/badr/hackinvent/Ada_Drivers_Library/boards/stm32h743_nucleo/obj/sfp_lib_Debug/libada_drivers_library.a(stm32-device.o)
                0x000000000800bc8f                stm32__device__pllsai_div16
 .rodata.stm32__device__hse_value
                0x000000000800bc90        0x4 /home/badr/hackinvent/Ada_Drivers_Library/boards/stm32h743_nucleo/obj/sfp_lib_Debug/libada_drivers_library.a(stm32-device.o)
                0x000000000800bc90                stm32__device__hse_value
 .rodata.stm32__device__gpio_af_rtc_50hz_0
                0x000000000800bc94        0x1 /home/badr/hackinvent/Ada_Drivers_Library/boards/stm32h743_nucleo/obj/sfp_lib_Debug/libada_drivers_library.a(stm32-device.o)
                0x000000000800bc94                stm32__device__gpio_af_rtc_50hz_0
 .rodata.stm32__device__gpio_af_mco_0
                0x000000000800bc95        0x1 /home/badr/hackinvent/Ada_Drivers_Library/boards/stm32h743_nucleo/obj/sfp_lib_Debug/libada_drivers_library.a(stm32-device.o)
                0x000000000800bc95                stm32__device__gpio_af_mco_0
 .rodata.stm32__device__gpio_af_tamper_0
                0x000000000800bc96        0x1 /home/badr/hackinvent/Ada_Drivers_Library/boards/stm32h743_nucleo/obj/sfp_lib_Debug/libada_drivers_library.a(stm32-device.o)
                0x000000000800bc96                stm32__device__gpio_af_tamper_0
 .rodata.stm32__device__gpio_af_swj_0
                0x000000000800bc97        0x1 /home/badr/hackinvent/Ada_Drivers_Library/boards/stm32h743_nucleo/obj/sfp_lib_Debug/libada_drivers_library.a(stm32-device.o)
                0x000000000800bc97                stm32__device__gpio_af_swj_0
 .rodata.stm32__device__gpio_af_trace_0
                0x000000000800bc98        0x1 /home/badr/hackinvent/Ada_Drivers_Library/boards/stm32h743_nucleo/obj/sfp_lib_Debug/libada_drivers_library.a(stm32-device.o)
                0x000000000800bc98                stm32__device__gpio_af_trace_0
 .rodata.stm32__device__gpio_af_tim1_1
                0x000000000800bc99        0x1 /home/badr/hackinvent/Ada_Drivers_Library/boards/stm32h743_nucleo/obj/sfp_lib_Debug/libada_drivers_library.a(stm32-device.o)
                0x000000000800bc99                stm32__device__gpio_af_tim1_1
 .rodata.stm32__device__gpio_af_tim2_1
                0x000000000800bc9a        0x1 /home/badr/hackinvent/Ada_Drivers_Library/boards/stm32h743_nucleo/obj/sfp_lib_Debug/libada_drivers_library.a(stm32-device.o)
                0x000000000800bc9a                stm32__device__gpio_af_tim2_1
 .rodata.stm32__device__gpio_af_i2c4_1
                0x000000000800bc9b        0x1 /home/badr/hackinvent/Ada_Drivers_Library/boards/stm32h743_nucleo/obj/sfp_lib_Debug/libada_drivers_library.a(stm32-device.o)
                0x000000000800bc9b                stm32__device__gpio_af_i2c4_1
 .rodata.stm32__device__gpio_af_uart5_1
                0x000000000800bc9c        0x1 /home/badr/hackinvent/Ada_Drivers_Library/boards/stm32h743_nucleo/obj/sfp_lib_Debug/libada_drivers_library.a(stm32-device.o)
                0x000000000800bc9c                stm32__device__gpio_af_uart5_1
 .rodata.stm32__device__gpio_af_tim3_2
                0x000000000800bc9d        0x1 /home/badr/hackinvent/Ada_Drivers_Library/boards/stm32h743_nucleo/obj/sfp_lib_Debug/libada_drivers_library.a(stm32-device.o)
                0x000000000800bc9d                stm32__device__gpio_af_tim3_2
 .rodata.stm32__device__gpio_af_tim4_2
                0x000000000800bc9e        0x1 /home/badr/hackinvent/Ada_Drivers_Library/boards/stm32h743_nucleo/obj/sfp_lib_Debug/libada_drivers_library.a(stm32-device.o)
                0x000000000800bc9e                stm32__device__gpio_af_tim4_2
 .rodata.stm32__device__gpio_af_tim5_2
                0x000000000800bc9f        0x1 /home/badr/hackinvent/Ada_Drivers_Library/boards/stm32h743_nucleo/obj/sfp_lib_Debug/libada_drivers_library.a(stm32-device.o)
                0x000000000800bc9f                stm32__device__gpio_af_tim5_2
 .rodata.stm32__device__gpio_af_tim8_3
                0x000000000800bca0        0x1 /home/badr/hackinvent/Ada_Drivers_Library/boards/stm32h743_nucleo/obj/sfp_lib_Debug/libada_drivers_library.a(stm32-device.o)
                0x000000000800bca0                stm32__device__gpio_af_tim8_3
 .rodata.stm32__device__gpio_af_tim9_3
                0x000000000800bca1        0x1 /home/badr/hackinvent/Ada_Drivers_Library/boards/stm32h743_nucleo/obj/sfp_lib_Debug/libada_drivers_library.a(stm32-device.o)
                0x000000000800bca1                stm32__device__gpio_af_tim9_3
 .rodata.stm32__device__gpio_af_tim10_3
                0x000000000800bca2        0x1 /home/badr/hackinvent/Ada_Drivers_Library/boards/stm32h743_nucleo/obj/sfp_lib_Debug/libada_drivers_library.a(stm32-device.o)
                0x000000000800bca2                stm32__device__gpio_af_tim10_3
 .rodata.stm32__device__gpio_af_tim11_3
                0x000000000800bca3        0x1 /home/badr/hackinvent/Ada_Drivers_Library/boards/stm32h743_nucleo/obj/sfp_lib_Debug/libada_drivers_library.a(stm32-device.o)
                0x000000000800bca3                stm32__device__gpio_af_tim11_3
 .rodata.stm32__device__gpio_af_lptim1_3
                0x000000000800bca4        0x1 /home/badr/hackinvent/Ada_Drivers_Library/boards/stm32h743_nucleo/obj/sfp_lib_Debug/libada_drivers_library.a(stm32-device.o)
                0x000000000800bca4                stm32__device__gpio_af_lptim1_3
 .rodata.stm32__device__gpio_af_dfsdm1_3
                0x000000000800bca5        0x1 /home/badr/hackinvent/Ada_Drivers_Library/boards/stm32h743_nucleo/obj/sfp_lib_Debug/libada_drivers_library.a(stm32-device.o)
                0x000000000800bca5                stm32__device__gpio_af_dfsdm1_3
 .rodata.stm32__device__gpio_af_cec_3
                0x000000000800bca6        0x1 /home/badr/hackinvent/Ada_Drivers_Library/boards/stm32h743_nucleo/obj/sfp_lib_Debug/libada_drivers_library.a(stm32-device.o)
                0x000000000800bca6                stm32__device__gpio_af_cec_3
 .rodata.stm32__device__gpio_af_i2c1_4
                0x000000000800bca7        0x1 /home/badr/hackinvent/Ada_Drivers_Library/boards/stm32h743_nucleo/obj/sfp_lib_Debug/libada_drivers_library.a(stm32-device.o)
                0x000000000800bca7                stm32__device__gpio_af_i2c1_4
 .rodata.stm32__device__gpio_af_i2c2_4
                0x000000000800bca8        0x1 /home/badr/hackinvent/Ada_Drivers_Library/boards/stm32h743_nucleo/obj/sfp_lib_Debug/libada_drivers_library.a(stm32-device.o)
                0x000000000800bca8                stm32__device__gpio_af_i2c2_4
 .rodata.stm32__device__gpio_af_i2c3_4
                0x000000000800bca9        0x1 /home/badr/hackinvent/Ada_Drivers_Library/boards/stm32h743_nucleo/obj/sfp_lib_Debug/libada_drivers_library.a(stm32-device.o)
                0x000000000800bca9                stm32__device__gpio_af_i2c3_4
 .rodata.stm32__device__gpio_af_i2c4_4
                0x000000000800bcaa        0x1 /home/badr/hackinvent/Ada_Drivers_Library/boards/stm32h743_nucleo/obj/sfp_lib_Debug/libada_drivers_library.a(stm32-device.o)
                0x000000000800bcaa                stm32__device__gpio_af_i2c4_4
 .rodata.stm32__device__gpio_af_usart1_4
                0x000000000800bcab        0x1 /home/badr/hackinvent/Ada_Drivers_Library/boards/stm32h743_nucleo/obj/sfp_lib_Debug/libada_drivers_library.a(stm32-device.o)
                0x000000000800bcab                stm32__device__gpio_af_usart1_4
 .rodata.stm32__device__gpio_af_cec_4
                0x000000000800bcac        0x1 /home/badr/hackinvent/Ada_Drivers_Library/boards/stm32h743_nucleo/obj/sfp_lib_Debug/libada_drivers_library.a(stm32-device.o)
                0x000000000800bcac                stm32__device__gpio_af_cec_4
 .rodata.stm32__device__gpio_af_spi1_5
                0x000000000800bcad        0x1 /home/badr/hackinvent/Ada_Drivers_Library/boards/stm32h743_nucleo/obj/sfp_lib_Debug/libada_drivers_library.a(stm32-device.o)
                0x000000000800bcad                stm32__device__gpio_af_spi1_5
 .rodata.stm32__device__gpio_af_spi2_5
                0x000000000800bcae        0x1 /home/badr/hackinvent/Ada_Drivers_Library/boards/stm32h743_nucleo/obj/sfp_lib_Debug/libada_drivers_library.a(stm32-device.o)
                0x000000000800bcae                stm32__device__gpio_af_spi2_5
 .rodata.stm32__device__gpio_af_i2s3_5
                0x000000000800bcaf        0x1 /home/badr/hackinvent/Ada_Drivers_Library/boards/stm32h743_nucleo/obj/sfp_lib_Debug/libada_drivers_library.a(stm32-device.o)
                0x000000000800bcaf                stm32__device__gpio_af_i2s3_5
 .rodata.stm32__device__gpio_af_spi4_5
                0x000000000800bcb0        0x1 /home/badr/hackinvent/Ada_Drivers_Library/boards/stm32h743_nucleo/obj/sfp_lib_Debug/libada_drivers_library.a(stm32-device.o)
                0x000000000800bcb0                stm32__device__gpio_af_spi4_5
 .rodata.stm32__device__gpio_af_spi5_5
                0x000000000800bcb1        0x1 /home/badr/hackinvent/Ada_Drivers_Library/boards/stm32h743_nucleo/obj/sfp_lib_Debug/libada_drivers_library.a(stm32-device.o)
                0x000000000800bcb1                stm32__device__gpio_af_spi5_5
 .rodata.stm32__device__gpio_af_spi6_5
                0x000000000800bcb2        0x1 /home/badr/hackinvent/Ada_Drivers_Library/boards/stm32h743_nucleo/obj/sfp_lib_Debug/libada_drivers_library.a(stm32-device.o)
                0x000000000800bcb2                stm32__device__gpio_af_spi6_5
 .rodata.stm32__device__gpio_af_spi2_6
                0x000000000800bcb3        0x1 /home/badr/hackinvent/Ada_Drivers_Library/boards/stm32h743_nucleo/obj/sfp_lib_Debug/libada_drivers_library.a(stm32-device.o)
                0x000000000800bcb3                stm32__device__gpio_af_spi2_6
 .rodata.stm32__device__gpio_af_spi3_6
                0x000000000800bcb4        0x1 /home/badr/hackinvent/Ada_Drivers_Library/boards/stm32h743_nucleo/obj/sfp_lib_Debug/libada_drivers_library.a(stm32-device.o)
                0x000000000800bcb4                stm32__device__gpio_af_spi3_6
 .rodata.stm32__device__gpio_af_i2s2_6
                0x000000000800bcb5        0x1 /home/badr/hackinvent/Ada_Drivers_Library/boards/stm32h743_nucleo/obj/sfp_lib_Debug/libada_drivers_library.a(stm32-device.o)
                0x000000000800bcb5                stm32__device__gpio_af_i2s2_6
 .rodata.stm32__device__gpio_af_i2s3_6
                0x000000000800bcb6        0x1 /home/badr/hackinvent/Ada_Drivers_Library/boards/stm32h743_nucleo/obj/sfp_lib_Debug/libada_drivers_library.a(stm32-device.o)
                0x000000000800bcb6                stm32__device__gpio_af_i2s3_6
 .rodata.stm32__device__gpio_af_sai1_6
                0x000000000800bcb7        0x1 /home/badr/hackinvent/Ada_Drivers_Library/boards/stm32h743_nucleo/obj/sfp_lib_Debug/libada_drivers_library.a(stm32-device.o)
                0x000000000800bcb7                stm32__device__gpio_af_sai1_6
 .rodata.stm32__device__gpio_af_uart4_6
                0x000000000800bcb8        0x1 /home/badr/hackinvent/Ada_Drivers_Library/boards/stm32h743_nucleo/obj/sfp_lib_Debug/libada_drivers_library.a(stm32-device.o)
                0x000000000800bcb8                stm32__device__gpio_af_uart4_6
 .rodata.stm32__device__gpio_af_dfsdm1_6
                0x000000000800bcb9        0x1 /home/badr/hackinvent/Ada_Drivers_Library/boards/stm32h743_nucleo/obj/sfp_lib_Debug/libada_drivers_library.a(stm32-device.o)
                0x000000000800bcb9                stm32__device__gpio_af_dfsdm1_6
 .rodata.stm32__device__gpio_af_spi2_7
                0x000000000800bcba        0x1 /home/badr/hackinvent/Ada_Drivers_Library/boards/stm32h743_nucleo/obj/sfp_lib_Debug/libada_drivers_library.a(stm32-device.o)
                0x000000000800bcba                stm32__device__gpio_af_spi2_7
 .rodata.stm32__device__gpio_af_i2s2_7
                0x000000000800bcbb        0x1 /home/badr/hackinvent/Ada_Drivers_Library/boards/stm32h743_nucleo/obj/sfp_lib_Debug/libada_drivers_library.a(stm32-device.o)
                0x000000000800bcbb                stm32__device__gpio_af_i2s2_7
 .rodata.stm32__device__gpio_af_spi3_7
                0x000000000800bcbc        0x1 /home/badr/hackinvent/Ada_Drivers_Library/boards/stm32h743_nucleo/obj/sfp_lib_Debug/libada_drivers_library.a(stm32-device.o)
                0x000000000800bcbc                stm32__device__gpio_af_spi3_7
 .rodata.stm32__device__gpio_af_i2s3_7
                0x000000000800bcbd        0x1 /home/badr/hackinvent/Ada_Drivers_Library/boards/stm32h743_nucleo/obj/sfp_lib_Debug/libada_drivers_library.a(stm32-device.o)
                0x000000000800bcbd                stm32__device__gpio_af_i2s3_7
 .rodata.stm32__device__gpio_af_spi6_7
                0x000000000800bcbe        0x1 /home/badr/hackinvent/Ada_Drivers_Library/boards/stm32h743_nucleo/obj/sfp_lib_Debug/libada_drivers_library.a(stm32-device.o)
                0x000000000800bcbe                stm32__device__gpio_af_spi6_7
 .rodata.stm32__device__gpio_af_usart1_7
                0x000000000800bcbf        0x1 /home/badr/hackinvent/Ada_Drivers_Library/boards/stm32h743_nucleo/obj/sfp_lib_Debug/libada_drivers_library.a(stm32-device.o)
                0x000000000800bcbf                stm32__device__gpio_af_usart1_7
 .rodata.stm32__device__gpio_af_usart2_7
                0x000000000800bcc0        0x1 /home/badr/hackinvent/Ada_Drivers_Library/boards/stm32h743_nucleo/obj/sfp_lib_Debug/libada_drivers_library.a(stm32-device.o)
                0x000000000800bcc0                stm32__device__gpio_af_usart2_7
 .rodata.stm32__device__gpio_af_usart3_7
                0x000000000800bcc1        0x1 /home/badr/hackinvent/Ada_Drivers_Library/boards/stm32h743_nucleo/obj/sfp_lib_Debug/libada_drivers_library.a(stm32-device.o)
                0x000000000800bcc1                stm32__device__gpio_af_usart3_7
 .rodata.stm32__device__gpio_af_uart5_7
                0x000000000800bcc2        0x1 /home/badr/hackinvent/Ada_Drivers_Library/boards/stm32h743_nucleo/obj/sfp_lib_Debug/libada_drivers_library.a(stm32-device.o)
                0x000000000800bcc2                stm32__device__gpio_af_uart5_7
 .rodata.stm32__device__gpio_af_dfsdm1_7
                0x000000000800bcc3        0x1 /home/badr/hackinvent/Ada_Drivers_Library/boards/stm32h743_nucleo/obj/sfp_lib_Debug/libada_drivers_library.a(stm32-device.o)
                0x000000000800bcc3                stm32__device__gpio_af_dfsdm1_7
 .rodata.stm32__device__gpio_af_spdif_7
                0x000000000800bcc4        0x1 /home/badr/hackinvent/Ada_Drivers_Library/boards/stm32h743_nucleo/obj/sfp_lib_Debug/libada_drivers_library.a(stm32-device.o)
                0x000000000800bcc4                stm32__device__gpio_af_spdif_7
 .rodata.stm32__device__gpio_af_spi6_8
                0x000000000800bcc5        0x1 /home/badr/hackinvent/Ada_Drivers_Library/boards/stm32h743_nucleo/obj/sfp_lib_Debug/libada_drivers_library.a(stm32-device.o)
                0x000000000800bcc5                stm32__device__gpio_af_spi6_8
 .rodata.stm32__device__gpio_af_sai2_8
                0x000000000800bcc6        0x1 /home/badr/hackinvent/Ada_Drivers_Library/boards/stm32h743_nucleo/obj/sfp_lib_Debug/libada_drivers_library.a(stm32-device.o)
                0x000000000800bcc6                stm32__device__gpio_af_sai2_8
 .rodata.stm32__device__gpio_af_uart4_8
                0x000000000800bcc7        0x1 /home/badr/hackinvent/Ada_Drivers_Library/boards/stm32h743_nucleo/obj/sfp_lib_Debug/libada_drivers_library.a(stm32-device.o)
                0x000000000800bcc7                stm32__device__gpio_af_uart4_8
 .rodata.stm32__device__gpio_af_uart5_8
                0x000000000800bcc8        0x1 /home/badr/hackinvent/Ada_Drivers_Library/boards/stm32h743_nucleo/obj/sfp_lib_Debug/libada_drivers_library.a(stm32-device.o)
                0x000000000800bcc8                stm32__device__gpio_af_uart5_8
 .rodata.stm32__device__gpio_af_usart6_8
                0x000000000800bcc9        0x1 /home/badr/hackinvent/Ada_Drivers_Library/boards/stm32h743_nucleo/obj/sfp_lib_Debug/libada_drivers_library.a(stm32-device.o)
                0x000000000800bcc9                stm32__device__gpio_af_usart6_8
 .rodata.stm32__device__gpio_af_uart7_8
                0x000000000800bcca        0x1 /home/badr/hackinvent/Ada_Drivers_Library/boards/stm32h743_nucleo/obj/sfp_lib_Debug/libada_drivers_library.a(stm32-device.o)
                0x000000000800bcca                stm32__device__gpio_af_uart7_8
 .rodata.stm32__device__gpio_af_uart8_8
                0x000000000800bccb        0x1 /home/badr/hackinvent/Ada_Drivers_Library/boards/stm32h743_nucleo/obj/sfp_lib_Debug/libada_drivers_library.a(stm32-device.o)
                0x000000000800bccb                stm32__device__gpio_af_uart8_8
 .rodata.stm32__device__gpio_af_otg_fs_8
                0x000000000800bccc        0x1 /home/badr/hackinvent/Ada_Drivers_Library/boards/stm32h743_nucleo/obj/sfp_lib_Debug/libada_drivers_library.a(stm32-device.o)
                0x000000000800bccc                stm32__device__gpio_af_otg_fs_8
 .rodata.stm32__device__gpio_af_spdif_8
                0x000000000800bccd        0x1 /home/badr/hackinvent/Ada_Drivers_Library/boards/stm32h743_nucleo/obj/sfp_lib_Debug/libada_drivers_library.a(stm32-device.o)
                0x000000000800bccd                stm32__device__gpio_af_spdif_8
 .rodata.stm32__device__gpio_af_can1_9
                0x000000000800bcce        0x1 /home/badr/hackinvent/Ada_Drivers_Library/boards/stm32h743_nucleo/obj/sfp_lib_Debug/libada_drivers_library.a(stm32-device.o)
                0x000000000800bcce                stm32__device__gpio_af_can1_9
 .rodata.stm32__device__gpio_af_can2_9
                0x000000000800bccf        0x1 /home/badr/hackinvent/Ada_Drivers_Library/boards/stm32h743_nucleo/obj/sfp_lib_Debug/libada_drivers_library.a(stm32-device.o)
                0x000000000800bccf                stm32__device__gpio_af_can2_9
 .rodata.stm32__device__gpio_af_tim12_9
                0x000000000800bcd0        0x1 /home/badr/hackinvent/Ada_Drivers_Library/boards/stm32h743_nucleo/obj/sfp_lib_Debug/libada_drivers_library.a(stm32-device.o)
                0x000000000800bcd0                stm32__device__gpio_af_tim12_9
 .rodata.stm32__device__gpio_af_tim13_9
                0x000000000800bcd1        0x1 /home/badr/hackinvent/Ada_Drivers_Library/boards/stm32h743_nucleo/obj/sfp_lib_Debug/libada_drivers_library.a(stm32-device.o)
                0x000000000800bcd1                stm32__device__gpio_af_tim13_9
 .rodata.stm32__device__gpio_af_tim14_9
                0x000000000800bcd2        0x1 /home/badr/hackinvent/Ada_Drivers_Library/boards/stm32h743_nucleo/obj/sfp_lib_Debug/libada_drivers_library.a(stm32-device.o)
                0x000000000800bcd2                stm32__device__gpio_af_tim14_9
 .rodata.stm32__device__gpio_af_quadspi_9
                0x000000000800bcd3        0x1 /home/badr/hackinvent/Ada_Drivers_Library/boards/stm32h743_nucleo/obj/sfp_lib_Debug/libada_drivers_library.a(stm32-device.o)
                0x000000000800bcd3                stm32__device__gpio_af_quadspi_9
 .rodata.stm32__device__gpio_af_fmc_9
                0x000000000800bcd4        0x1 /home/badr/hackinvent/Ada_Drivers_Library/boards/stm32h743_nucleo/obj/sfp_lib_Debug/libada_drivers_library.a(stm32-device.o)
                0x000000000800bcd4                stm32__device__gpio_af_fmc_9
 .rodata.stm32__device__gpio_af_ltdc_9
                0x000000000800bcd5        0x1 /home/badr/hackinvent/Ada_Drivers_Library/boards/stm32h743_nucleo/obj/sfp_lib_Debug/libada_drivers_library.a(stm32-device.o)
                0x000000000800bcd5                stm32__device__gpio_af_ltdc_9
 .rodata.stm32__device__gpio_af_sai2_10
                0x000000000800bcd6        0x1 /home/badr/hackinvent/Ada_Drivers_Library/boards/stm32h743_nucleo/obj/sfp_lib_Debug/libada_drivers_library.a(stm32-device.o)
                0x000000000800bcd6                stm32__device__gpio_af_sai2_10
 .rodata.stm32__device__gpio_af_quadspi_10
                0x000000000800bcd7        0x1 /home/badr/hackinvent/Ada_Drivers_Library/boards/stm32h743_nucleo/obj/sfp_lib_Debug/libada_drivers_library.a(stm32-device.o)
                0x000000000800bcd7                stm32__device__gpio_af_quadspi_10
 .rodata.stm32__device__gpio_af_sdmmc2_10
                0x000000000800bcd8        0x1 /home/badr/hackinvent/Ada_Drivers_Library/boards/stm32h743_nucleo/obj/sfp_lib_Debug/libada_drivers_library.a(stm32-device.o)
                0x000000000800bcd8                stm32__device__gpio_af_sdmmc2_10
 .rodata.stm32__device__gpio_af_dfsdm1_10
                0x000000000800bcd9        0x1 /home/badr/hackinvent/Ada_Drivers_Library/boards/stm32h743_nucleo/obj/sfp_lib_Debug/libada_drivers_library.a(stm32-device.o)
                0x000000000800bcd9                stm32__device__gpio_af_dfsdm1_10
 .rodata.stm32__device__gpio_af_otg1_fs_10
                0x000000000800bcda        0x1 /home/badr/hackinvent/Ada_Drivers_Library/boards/stm32h743_nucleo/obj/sfp_lib_Debug/libada_drivers_library.a(stm32-device.o)
                0x000000000800bcda                stm32__device__gpio_af_otg1_fs_10
 .rodata.stm32__device__gpio_af_otg_hs_10
                0x000000000800bcdb        0x1 /home/badr/hackinvent/Ada_Drivers_Library/boards/stm32h743_nucleo/obj/sfp_lib_Debug/libada_drivers_library.a(stm32-device.o)
                0x000000000800bcdb                stm32__device__gpio_af_otg_hs_10
 .rodata.stm32__device__gpio_af_ltdc_10
                0x000000000800bcdc        0x1 /home/badr/hackinvent/Ada_Drivers_Library/boards/stm32h743_nucleo/obj/sfp_lib_Debug/libada_drivers_library.a(stm32-device.o)
                0x000000000800bcdc                stm32__device__gpio_af_ltdc_10
 .rodata.stm32__device__gpio_af_i2c4_11
                0x000000000800bcdd        0x1 /home/badr/hackinvent/Ada_Drivers_Library/boards/stm32h743_nucleo/obj/sfp_lib_Debug/libada_drivers_library.a(stm32-device.o)
                0x000000000800bcdd                stm32__device__gpio_af_i2c4_11
 .rodata.stm32__device__gpio_af_can3_11
                0x000000000800bcde        0x1 /home/badr/hackinvent/Ada_Drivers_Library/boards/stm32h743_nucleo/obj/sfp_lib_Debug/libada_drivers_library.a(stm32-device.o)
                0x000000000800bcde                stm32__device__gpio_af_can3_11
 .rodata.stm32__device__gpio_af_sdmmc2_11
                0x000000000800bcdf        0x1 /home/badr/hackinvent/Ada_Drivers_Library/boards/stm32h743_nucleo/obj/sfp_lib_Debug/libada_drivers_library.a(stm32-device.o)
                0x000000000800bcdf                stm32__device__gpio_af_sdmmc2_11
 .rodata.stm32__device__gpio_af_eth_11
                0x000000000800bce0        0x1 /home/badr/hackinvent/Ada_Drivers_Library/boards/stm32h743_nucleo/obj/sfp_lib_Debug/libada_drivers_library.a(stm32-device.o)
                0x000000000800bce0                stm32__device__gpio_af_eth_11
 .rodata.stm32__device__gpio_af_uart7_12
                0x000000000800bce1        0x1 /home/badr/hackinvent/Ada_Drivers_Library/boards/stm32h743_nucleo/obj/sfp_lib_Debug/libada_drivers_library.a(stm32-device.o)
                0x000000000800bce1                stm32__device__gpio_af_uart7_12
 .rodata.stm32__device__gpio_af_fmc_12
                0x000000000800bce2        0x1 /home/badr/hackinvent/Ada_Drivers_Library/boards/stm32h743_nucleo/obj/sfp_lib_Debug/libada_drivers_library.a(stm32-device.o)
                0x000000000800bce2                stm32__device__gpio_af_fmc_12
 .rodata.stm32__device__gpio_af_sdmmc1_12
                0x000000000800bce3        0x1 /home/badr/hackinvent/Ada_Drivers_Library/boards/stm32h743_nucleo/obj/sfp_lib_Debug/libada_drivers_library.a(stm32-device.o)
                0x000000000800bce3                stm32__device__gpio_af_sdmmc1_12
 .rodata.stm32__device__gpio_af_mdios_12
                0x000000000800bce4        0x1 /home/badr/hackinvent/Ada_Drivers_Library/boards/stm32h743_nucleo/obj/sfp_lib_Debug/libada_drivers_library.a(stm32-device.o)
                0x000000000800bce4                stm32__device__gpio_af_mdios_12
 .rodata.stm32__device__gpio_af_otg2_fs_12
                0x000000000800bce5        0x1 /home/badr/hackinvent/Ada_Drivers_Library/boards/stm32h743_nucleo/obj/sfp_lib_Debug/libada_drivers_library.a(stm32-device.o)
                0x000000000800bce5                stm32__device__gpio_af_otg2_fs_12
 .rodata.stm32__device__gpio_af_dcmi_13
                0x000000000800bce6        0x1 /home/badr/hackinvent/Ada_Drivers_Library/boards/stm32h743_nucleo/obj/sfp_lib_Debug/libada_drivers_library.a(stm32-device.o)
                0x000000000800bce6                stm32__device__gpio_af_dcmi_13
 .rodata.stm32__device__gpio_af_dsi_13
                0x000000000800bce7        0x1 /home/badr/hackinvent/Ada_Drivers_Library/boards/stm32h743_nucleo/obj/sfp_lib_Debug/libada_drivers_library.a(stm32-device.o)
                0x000000000800bce7                stm32__device__gpio_af_dsi_13
 .rodata.stm32__device__gpio_af_ltdc_13
                0x000000000800bce8        0x1 /home/badr/hackinvent/Ada_Drivers_Library/boards/stm32h743_nucleo/obj/sfp_lib_Debug/libada_drivers_library.a(stm32-device.o)
                0x000000000800bce8                stm32__device__gpio_af_ltdc_13
 .rodata.stm32__device__gpio_af_ltdc_14
                0x000000000800bce9        0x1 /home/badr/hackinvent/Ada_Drivers_Library/boards/stm32h743_nucleo/obj/sfp_lib_Debug/libada_drivers_library.a(stm32-device.o)
                0x000000000800bce9                stm32__device__gpio_af_ltdc_14
 .rodata.stm32__device__gpio_af_eventout_15
                0x000000000800bcea        0x1 /home/badr/hackinvent/Ada_Drivers_Library/boards/stm32h743_nucleo/obj/sfp_lib_Debug/libada_drivers_library.a(stm32-device.o)
                0x000000000800bcea                stm32__device__gpio_af_eventout_15
 *fill*         0x000000000800bceb        0x1 
 .rodata.stm32__exti__external_triggersS
                0x000000000800bcec       0x84 /home/badr/hackinvent/Ada_Drivers_Library/boards/stm32h743_nucleo/obj/sfp_lib_Debug/libada_drivers_library.a(stm32-exti.o)
                0x000000000800bcec                stm32__exti__external_triggersS
 .rodata.stm32__exti__external_triggersN
                0x000000000800bd70        0xe /home/badr/hackinvent/Ada_Drivers_Library/boards/stm32h743_nucleo/obj/sfp_lib_Debug/libada_drivers_library.a(stm32-exti.o)
                0x000000000800bd70                stm32__exti__external_triggersN
 *fill*         0x000000000800bd7e        0x2 
 .rodata.stm32__exti__external_line_numberS
                0x000000000800bd80      0x10a /home/badr/hackinvent/Ada_Drivers_Library/boards/stm32h743_nucleo/obj/sfp_lib_Debug/libada_drivers_library.a(stm32-exti.o)
                0x000000000800bd80                stm32__exti__external_line_numberS
 *fill*         0x000000000800be8a        0x2 
 .rodata.stm32__exti__external_line_numberN
                0x000000000800be8c       0x30 /home/badr/hackinvent/Ada_Drivers_Library/boards/stm32h743_nucleo/obj/sfp_lib_Debug/libada_drivers_library.a(stm32-exti.o)
                0x000000000800be8c                stm32__exti__external_line_numberN
 .rodata        0x000000000800bebc      0x15c /home/badr/hackinvent/Ada_Drivers_Library/boards/stm32h743_nucleo/obj/sfp_lib_Debug/libada_drivers_library.a(stm32-gpio.o)
 .rodata.stm32__gpio__gpio_pinS
                0x000000000800c018       0x56 /home/badr/hackinvent/Ada_Drivers_Library/boards/stm32h743_nucleo/obj/sfp_lib_Debug/libada_drivers_library.a(stm32-gpio.o)
                0x000000000800c018                stm32__gpio__gpio_pinS
 *fill*         0x000000000800c06e        0x2 
 .rodata.stm32__gpio__gpio_pinN
                0x000000000800c070       0x11 /home/badr/hackinvent/Ada_Drivers_Library/boards/stm32h743_nucleo/obj/sfp_lib_Debug/libada_drivers_library.a(stm32-gpio.o)
                0x000000000800c070                stm32__gpio__gpio_pinN
 *fill*         0x000000000800c081        0x3 
 .rodata.stm32__gpio__gpio_pinA
                0x000000000800c084       0x20 /home/badr/hackinvent/Ada_Drivers_Library/boards/stm32h743_nucleo/obj/sfp_lib_Debug/libada_drivers_library.a(stm32-gpio.o)
                0x000000000800c084                stm32__gpio__gpio_pinA
 .rodata.stm32__gpio__all_pins
                0x000000000800c0a4       0x20 /home/badr/hackinvent/Ada_Drivers_Library/boards/stm32h743_nucleo/obj/sfp_lib_Debug/libada_drivers_library.a(stm32-gpio.o)
                0x000000000800c0a4                stm32__gpio__all_pins
 .rodata.stm32__gpio__pin_output_speedsS
                0x000000000800c0c4       0x2c /home/badr/hackinvent/Ada_Drivers_Library/boards/stm32h743_nucleo/obj/sfp_lib_Debug/libada_drivers_library.a(stm32-gpio.o)
                0x000000000800c0c4                stm32__gpio__pin_output_speedsS
 .rodata.stm32__gpio__pin_output_speedsN
                0x000000000800c0f0        0x8 /home/badr/hackinvent/Ada_Drivers_Library/boards/stm32h743_nucleo/obj/sfp_lib_Debug/libada_drivers_library.a(stm32-gpio.o)
                0x000000000800c0f0                stm32__gpio__pin_output_speedsN
 .rodata.stm32__gpio__speed_low
                0x000000000800c0f8        0x1 /home/badr/hackinvent/Ada_Drivers_Library/boards/stm32h743_nucleo/obj/sfp_lib_Debug/libada_drivers_library.a(stm32-gpio.o)
                0x000000000800c0f8                stm32__gpio__speed_low
 .rodata.stm32__gpio__speed_medium
                0x000000000800c0f9        0x1 /home/badr/hackinvent/Ada_Drivers_Library/boards/stm32h743_nucleo/obj/sfp_lib_Debug/libada_drivers_library.a(stm32-gpio.o)
                0x000000000800c0f9                stm32__gpio__speed_medium
 .rodata.stm32__gpio__speed_high
                0x000000000800c0fa        0x1 /home/badr/hackinvent/Ada_Drivers_Library/boards/stm32h743_nucleo/obj/sfp_lib_Debug/libada_drivers_library.a(stm32-gpio.o)
                0x000000000800c0fa                stm32__gpio__speed_high
 .rodata.stm32__gpio__speed_very_high
                0x000000000800c0fb        0x1 /home/badr/hackinvent/Ada_Drivers_Library/boards/stm32h743_nucleo/obj/sfp_lib_Debug/libada_drivers_library.a(stm32-gpio.o)
                0x000000000800c0fb                stm32__gpio__speed_very_high
 .rodata.stm32__gpio__pin_io_modesS
                0x000000000800c0fc       0x21 /home/badr/hackinvent/Ada_Drivers_Library/boards/stm32h743_nucleo/obj/sfp_lib_Debug/libada_drivers_library.a(stm32-gpio.o)
                0x000000000800c0fc                stm32__gpio__pin_io_modesS
 *fill*         0x000000000800c11d        0x3 
 .rodata.stm32__gpio__pin_io_modesN
                0x000000000800c120        0x8 /home/badr/hackinvent/Ada_Drivers_Library/boards/stm32h743_nucleo/obj/sfp_lib_Debug/libada_drivers_library.a(stm32-gpio.o)
                0x000000000800c120                stm32__gpio__pin_io_modesN
 .rodata.stm32__gpio__lcck
                0x000000000800c128        0x4 /home/badr/hackinvent/Ada_Drivers_Library/boards/stm32h743_nucleo/obj/sfp_lib_Debug/libada_drivers_library.a(stm32-gpio.o)
                0x000000000800c128                stm32__gpio__lcck
 .rodata.stm32__gpio__pin_output_typesS
                0x000000000800c12c       0x13 /home/badr/hackinvent/Ada_Drivers_Library/boards/stm32h743_nucleo/obj/sfp_lib_Debug/libada_drivers_library.a(stm32-gpio.o)
                0x000000000800c12c                stm32__gpio__pin_output_typesS
 *fill*         0x000000000800c13f        0x1 
 .rodata.stm32__gpio__pin_output_typesN
                0x000000000800c140        0x4 /home/badr/hackinvent/Ada_Drivers_Library/boards/stm32h743_nucleo/obj/sfp_lib_Debug/libada_drivers_library.a(stm32-gpio.o)
                0x000000000800c140                stm32__gpio__pin_output_typesN
 .rodata.stm32__gpio__internal_pin_resistorsS
                0x000000000800c144       0x18 /home/badr/hackinvent/Ada_Drivers_Library/boards/stm32h743_nucleo/obj/sfp_lib_Debug/libada_drivers_library.a(stm32-gpio.o)
                0x000000000800c144                stm32__gpio__internal_pin_resistorsS
 .rodata.stm32__gpio__internal_pin_resistorsN
                0x000000000800c15c        0x4 /home/badr/hackinvent/Ada_Drivers_Library/boards/stm32h743_nucleo/obj/sfp_lib_Debug/libada_drivers_library.a(stm32-gpio.o)
                0x000000000800c15c                stm32__gpio__internal_pin_resistorsN
 .rodata.stm32__gpio__gpio_pointP
                0x000000000800c160        0x4 /home/badr/hackinvent/Ada_Drivers_Library/boards/stm32h743_nucleo/obj/sfp_lib_Debug/libada_drivers_library.a(stm32-gpio.o)
                0x000000000800c160                stm32__gpio__gpio_pointP
 .rodata.stm32__gpio__gpio_pointY
                0x000000000800c164        0x4 /home/badr/hackinvent/Ada_Drivers_Library/boards/stm32h743_nucleo/obj/sfp_lib_Debug/libada_drivers_library.a(stm32-gpio.o)
                0x000000000800c164                stm32__gpio__gpio_pointY
 .rodata.stm32__gpio__gpio_pointE86s
                0x000000000800c168       0x16 /home/badr/hackinvent/Ada_Drivers_Library/boards/stm32h743_nucleo/obj/sfp_lib_Debug/libada_drivers_library.a(stm32-gpio.o)
                0x000000000800c168                stm32__gpio__gpio_pointE86s
 *fill*         0x000000000800c17e        0x2 
 .rodata.stm32__gpio__gpio_pointB90s
                0x000000000800c180       0x20 /home/badr/hackinvent/Ada_Drivers_Library/boards/stm32h743_nucleo/obj/sfp_lib_Debug/libada_drivers_library.a(stm32-gpio.o)
                0x000000000800c180                stm32__gpio__gpio_pointB90s
 .rodata.stm32__gpio__gpio_pointR88s___UNC
                0x000000000800c1a0       0x24 /home/badr/hackinvent/Ada_Drivers_Library/boards/stm32h743_nucleo/obj/sfp_lib_Debug/libada_drivers_library.a(stm32-gpio.o)
                0x000000000800c1a0                stm32__gpio__gpio_pointR88s___UNC
 .rodata.stm32__gpio__gpio_pointR88s
                0x000000000800c1c4        0x4 /home/badr/hackinvent/Ada_Drivers_Library/boards/stm32h743_nucleo/obj/sfp_lib_Debug/libada_drivers_library.a(stm32-gpio.o)
                0x000000000800c1c4                stm32__gpio__gpio_pointR88s
 .rodata.stm32__gpio__gpio_pointT
                0x000000000800c1c8       0x50 /home/badr/hackinvent/Ada_Drivers_Library/boards/stm32h743_nucleo/obj/sfp_lib_Debug/libada_drivers_library.a(stm32-gpio.o)
                0x000000000800c1c8                stm32__gpio__gpio_pointT
 .rodata.stm32__rcc__unknown_deviceE
                0x000000000800c218       0x19 /home/badr/hackinvent/Ada_Drivers_Library/boards/stm32h743_nucleo/obj/sfp_lib_Debug/libada_drivers_library.a(stm32-rcc.o)
                0x000000000800c218                stm32__rcc__unknown_deviceE
 *fill*         0x000000000800c231        0x3 
 .rodata.stm32__rcc__R2s
                0x000000000800c234        0x4 /home/badr/hackinvent/Ada_Drivers_Library/boards/stm32h743_nucleo/obj/sfp_lib_Debug/libada_drivers_library.a(stm32-rcc.o)
                0x000000000800c234                stm32__rcc__R2s
 .rodata        0x000000000800c238       0xe6 /home/badr/hackinvent/Ada_Drivers_Library/boards/stm32h743_nucleo/obj/sfp_lib_Debug/libada_drivers_library.a(stm32-spi.o)
 *fill*         0x000000000800c31e        0x2 
 .rodata.stm32__spi__spi_portP
                0x000000000800c320        0x4 /home/badr/hackinvent/Ada_Drivers_Library/boards/stm32h743_nucleo/obj/sfp_lib_Debug/libada_drivers_library.a(stm32-spi.o)
                0x000000000800c320                stm32__spi__spi_portP
 .rodata.stm32__spi__spi_portY
                0x000000000800c324        0x4 /home/badr/hackinvent/Ada_Drivers_Library/boards/stm32h743_nucleo/obj/sfp_lib_Debug/libada_drivers_library.a(stm32-spi.o)
                0x000000000800c324                stm32__spi__spi_portY
 .rodata.stm32__spi__spi_data_directionS
                0x000000000800c328       0x32 /home/badr/hackinvent/Ada_Drivers_Library/boards/stm32h743_nucleo/obj/sfp_lib_Debug/libada_drivers_library.a(stm32-spi.o)
                0x000000000800c328                stm32__spi__spi_data_directionS
 *fill*         0x000000000800c35a        0x2 
 .rodata.stm32__spi__spi_data_directionN
                0x000000000800c35c        0x8 /home/badr/hackinvent/Ada_Drivers_Library/boards/stm32h743_nucleo/obj/sfp_lib_Debug/libada_drivers_library.a(stm32-spi.o)
                0x000000000800c35c                stm32__spi__spi_data_directionN
 .rodata.stm32__spi__spi_modeS
                0x000000000800c364        0xb /home/badr/hackinvent/Ada_Drivers_Library/boards/stm32h743_nucleo/obj/sfp_lib_Debug/libada_drivers_library.a(stm32-spi.o)
                0x000000000800c364                stm32__spi__spi_modeS
 *fill*         0x000000000800c36f        0x1 
 .rodata.stm32__spi__spi_modeN
                0x000000000800c370        0x4 /home/badr/hackinvent/Ada_Drivers_Library/boards/stm32h743_nucleo/obj/sfp_lib_Debug/libada_drivers_library.a(stm32-spi.o)
                0x000000000800c370                stm32__spi__spi_modeN
 .rodata.stm32__spi__spi_clock_polarityS
                0x000000000800c374        0x8 /home/badr/hackinvent/Ada_Drivers_Library/boards/stm32h743_nucleo/obj/sfp_lib_Debug/libada_drivers_library.a(stm32-spi.o)
                0x000000000800c374                stm32__spi__spi_clock_polarityS
 .rodata.stm32__spi__spi_clock_polarityN
                0x000000000800c37c        0x4 /home/badr/hackinvent/Ada_Drivers_Library/boards/stm32h743_nucleo/obj/sfp_lib_Debug/libada_drivers_library.a(stm32-spi.o)
                0x000000000800c37c                stm32__spi__spi_clock_polarityN
 .rodata.stm32__spi__spi_clock_phaseS
                0x000000000800c380        0xc /home/badr/hackinvent/Ada_Drivers_Library/boards/stm32h743_nucleo/obj/sfp_lib_Debug/libada_drivers_library.a(stm32-spi.o)
                0x000000000800c380                stm32__spi__spi_clock_phaseS
 .rodata.stm32__spi__spi_clock_phaseN
                0x000000000800c38c        0x4 /home/badr/hackinvent/Ada_Drivers_Library/boards/stm32h743_nucleo/obj/sfp_lib_Debug/libada_drivers_library.a(stm32-spi.o)
                0x000000000800c38c                stm32__spi__spi_clock_phaseN
 .rodata.stm32__spi__spi_slave_managementS
                0x000000000800c390       0x20 /home/badr/hackinvent/Ada_Drivers_Library/boards/stm32h743_nucleo/obj/sfp_lib_Debug/libada_drivers_library.a(stm32-spi.o)
                0x000000000800c390                stm32__spi__spi_slave_managementS
 .rodata.stm32__spi__spi_slave_managementN
                0x000000000800c3b0        0x4 /home/badr/hackinvent/Ada_Drivers_Library/boards/stm32h743_nucleo/obj/sfp_lib_Debug/libada_drivers_library.a(stm32-spi.o)
                0x000000000800c3b0                stm32__spi__spi_slave_managementN
 .rodata.stm32__spi__spi_baud_rate_prescalerS
                0x000000000800c3b4       0x2f /home/badr/hackinvent/Ada_Drivers_Library/boards/stm32h743_nucleo/obj/sfp_lib_Debug/libada_drivers_library.a(stm32-spi.o)
                0x000000000800c3b4                stm32__spi__spi_baud_rate_prescalerS
 *fill*         0x000000000800c3e3        0x1 
 .rodata.stm32__spi__spi_baud_rate_prescalerN
                0x000000000800c3e4        0x9 /home/badr/hackinvent/Ada_Drivers_Library/boards/stm32h743_nucleo/obj/sfp_lib_Debug/libada_drivers_library.a(stm32-spi.o)
                0x000000000800c3e4                stm32__spi__spi_baud_rate_prescalerN
 *fill*         0x000000000800c3ed        0x3 
 .rodata.stm32__spi__spi_first_bitS
                0x000000000800c3f0        0x8 /home/badr/hackinvent/Ada_Drivers_Library/boards/stm32h743_nucleo/obj/sfp_lib_Debug/libada_drivers_library.a(stm32-spi.o)
                0x000000000800c3f0                stm32__spi__spi_first_bitS
 .rodata.stm32__spi__spi_first_bitN
                0x000000000800c3f8        0x4 /home/badr/hackinvent/Ada_Drivers_Library/boards/stm32h743_nucleo/obj/sfp_lib_Debug/libada_drivers_library.a(stm32-spi.o)
                0x000000000800c3f8                stm32__spi__spi_first_bitN
 .rodata.stm32__spi__spi_portE51s
                0x000000000800c3fc       0x13 /home/badr/hackinvent/Ada_Drivers_Library/boards/stm32h743_nucleo/obj/sfp_lib_Debug/libada_drivers_library.a(stm32-spi.o)
                0x000000000800c3fc                stm32__spi__spi_portE51s
 *fill*         0x000000000800c40f        0x1 
 .rodata.stm32__spi__spi_portB55s
                0x000000000800c410       0x20 /home/badr/hackinvent/Ada_Drivers_Library/boards/stm32h743_nucleo/obj/sfp_lib_Debug/libada_drivers_library.a(stm32-spi.o)
                0x000000000800c410                stm32__spi__spi_portB55s
 .rodata.stm32__spi__spi_portR53s___UNC
                0x000000000800c430        0xc /home/badr/hackinvent/Ada_Drivers_Library/boards/stm32h743_nucleo/obj/sfp_lib_Debug/libada_drivers_library.a(stm32-spi.o)
                0x000000000800c430                stm32__spi__spi_portR53s___UNC
 .rodata.stm32__spi__spi_portR53s
                0x000000000800c43c        0x4 /home/badr/hackinvent/Ada_Drivers_Library/boards/stm32h743_nucleo/obj/sfp_lib_Debug/libada_drivers_library.a(stm32-spi.o)
                0x000000000800c43c                stm32__spi__spi_portR53s
 .rodata.stm32__spi__spi_portT
                0x000000000800c440       0xc4 /home/badr/hackinvent/Ada_Drivers_Library/boards/stm32h743_nucleo/obj/sfp_lib_Debug/libada_drivers_library.a(stm32-spi.o)
                0x000000000800c440                stm32__spi__spi_portT
 .rodata        0x000000000800c504       0x11 /home/badr/hackinvent/Ada_Drivers_Library/boards/stm32h743_nucleo/obj/sfp_lib_Debug/libada_drivers_library.a(stm32-syscfg.o)
 *fill*         0x000000000800c515        0x3 
 .rodata.hal__gpio__capabilityS
                0x000000000800c518       0x2f /home/badr/hackinvent/Ada_Drivers_Library/boards/stm32h743_nucleo/obj/sfp_lib_Debug/libada_drivers_library.a(hal-gpio.o)
                0x000000000800c518                hal__gpio__capabilityS
 *fill*         0x000000000800c547        0x1 
 .rodata.hal__gpio__capabilityN
                0x000000000800c548        0x8 /home/badr/hackinvent/Ada_Drivers_Library/boards/stm32h743_nucleo/obj/sfp_lib_Debug/libada_drivers_library.a(hal-gpio.o)
                0x000000000800c548                hal__gpio__capabilityN
 .rodata.hal__gpio__gpio_pointP
                0x000000000800c550        0x4 /home/badr/hackinvent/Ada_Drivers_Library/boards/stm32h743_nucleo/obj/sfp_lib_Debug/libada_drivers_library.a(hal-gpio.o)
                0x000000000800c550                hal__gpio__gpio_pointP
 .rodata.hal__gpio__gpio_pointE12s
                0x000000000800c554       0x14 /home/badr/hackinvent/Ada_Drivers_Library/boards/stm32h743_nucleo/obj/sfp_lib_Debug/libada_drivers_library.a(hal-gpio.o)
                0x000000000800c554                hal__gpio__gpio_pointE12s
 .rodata.hal__gpio__gpio_pointB16s
                0x000000000800c568       0x1c /home/badr/hackinvent/Ada_Drivers_Library/boards/stm32h743_nucleo/obj/sfp_lib_Debug/libada_drivers_library.a(hal-gpio.o)
                0x000000000800c568                hal__gpio__gpio_pointB16s
 .rodata.hal__gpio__gpio_pointT
                0x000000000800c584        0x8 /home/badr/hackinvent/Ada_Drivers_Library/boards/stm32h743_nucleo/obj/sfp_lib_Debug/libada_drivers_library.a(hal-gpio.o)
                0x000000000800c584                hal__gpio__gpio_pointT
 .rodata.hal__spi__spi_statusS
                0x000000000800c58c       0x1a /home/badr/hackinvent/Ada_Drivers_Library/boards/stm32h743_nucleo/obj/sfp_lib_Debug/libada_drivers_library.a(hal-spi.o)
                0x000000000800c58c                hal__spi__spi_statusS
 *fill*         0x000000000800c5a6        0x2 
 .rodata.hal__spi__spi_statusN
                0x000000000800c5a8        0x8 /home/badr/hackinvent/Ada_Drivers_Library/boards/stm32h743_nucleo/obj/sfp_lib_Debug/libada_drivers_library.a(hal-spi.o)
                0x000000000800c5a8                hal__spi__spi_statusN
 .rodata.hal__spi__spi_data_sizeS
                0x000000000800c5b0       0x26 /home/badr/hackinvent/Ada_Drivers_Library/boards/stm32h743_nucleo/obj/sfp_lib_Debug/libada_drivers_library.a(hal-spi.o)
                0x000000000800c5b0                hal__spi__spi_data_sizeS
 *fill*         0x000000000800c5d6        0x2 
 .rodata.hal__spi__spi_data_sizeN
                0x000000000800c5d8        0x4 /home/badr/hackinvent/Ada_Drivers_Library/boards/stm32h743_nucleo/obj/sfp_lib_Debug/libada_drivers_library.a(hal-spi.o)
                0x000000000800c5d8                hal__spi__spi_data_sizeN
 .rodata.hal__spi__spi_portP
                0x000000000800c5dc        0x4 /home/badr/hackinvent/Ada_Drivers_Library/boards/stm32h743_nucleo/obj/sfp_lib_Debug/libada_drivers_library.a(hal-spi.o)
                0x000000000800c5dc                hal__spi__spi_portP
 .rodata.hal__spi__spi_portE22s
                0x000000000800c5e0       0x11 /home/badr/hackinvent/Ada_Drivers_Library/boards/stm32h743_nucleo/obj/sfp_lib_Debug/libada_drivers_library.a(hal-spi.o)
                0x000000000800c5e0                hal__spi__spi_portE22s
 *fill*         0x000000000800c5f1        0x3 
 .rodata.hal__spi__spi_portB26s
                0x000000000800c5f4       0x1c /home/badr/hackinvent/Ada_Drivers_Library/boards/stm32h743_nucleo/obj/sfp_lib_Debug/libada_drivers_library.a(hal-spi.o)
                0x000000000800c5f4                hal__spi__spi_portB26s
 .rodata.hal__spi__spi_portT
                0x000000000800c610        0x8 /home/badr/hackinvent/Ada_Drivers_Library/boards/stm32h743_nucleo/obj/sfp_lib_Debug/libada_drivers_library.a(hal-spi.o)
                0x000000000800c610                hal__spi__spi_portT
 .rodata        0x000000000800c618        0xd /home/badr/GNAT/2018-arm-elf/arm-eabi/lib/gnat/ravenscar-sfp-stm32h743nucleo/adalib/libgnarl.a(a-reatim.o)
 *fill*         0x000000000800c625        0x3 
 .rodata.ada__real_time__time_first
                0x000000000800c628        0x8 /home/badr/GNAT/2018-arm-elf/arm-eabi/lib/gnat/ravenscar-sfp-stm32h743nucleo/adalib/libgnarl.a(a-reatim.o)
                0x000000000800c628                ada__real_time__time_first
 .rodata.ada__real_time__time_last
                0x000000000800c630        0x8 /home/badr/GNAT/2018-arm-elf/arm-eabi/lib/gnat/ravenscar-sfp-stm32h743nucleo/adalib/libgnarl.a(a-reatim.o)
                0x000000000800c630                ada__real_time__time_last
 .rodata.ada__real_time__time_span_first
                0x000000000800c638        0x8 /home/badr/GNAT/2018-arm-elf/arm-eabi/lib/gnat/ravenscar-sfp-stm32h743nucleo/adalib/libgnarl.a(a-reatim.o)
                0x000000000800c638                ada__real_time__time_span_first
 .rodata.ada__real_time__time_span_last
                0x000000000800c640        0x8 /home/badr/GNAT/2018-arm-elf/arm-eabi/lib/gnat/ravenscar-sfp-stm32h743nucleo/adalib/libgnarl.a(a-reatim.o)
                0x000000000800c640                ada__real_time__time_span_last
 .rodata.ada__real_time__time_span_zero
                0x000000000800c648        0x8 /home/badr/GNAT/2018-arm-elf/arm-eabi/lib/gnat/ravenscar-sfp-stm32h743nucleo/adalib/libgnarl.a(a-reatim.o)
                0x000000000800c648                ada__real_time__time_span_zero
 .rodata.ada__real_time__time_span_unit
                0x000000000800c650        0x8 /home/badr/GNAT/2018-arm-elf/arm-eabi/lib/gnat/ravenscar-sfp-stm32h743nucleo/adalib/libgnarl.a(a-reatim.o)
                0x000000000800c650                ada__real_time__time_span_unit
 .rodata.ada__real_time__tick
                0x000000000800c658        0x8 /home/badr/GNAT/2018-arm-elf/arm-eabi/lib/gnat/ravenscar-sfp-stm32h743nucleo/adalib/libgnarl.a(a-reatim.o)
                0x000000000800c658                ada__real_time__tick
 .rodata.ada__real_time__duration_units
                0x000000000800c660        0x4 /home/badr/GNAT/2018-arm-elf/arm-eabi/lib/gnat/ravenscar-sfp-stm32h743nucleo/adalib/libgnarl.a(a-reatim.o)
                0x000000000800c660                ada__real_time__duration_units
 .rodata        0x000000000800c664        0xd /home/badr/GNAT/2018-arm-elf/arm-eabi/lib/gnat/ravenscar-sfp-stm32h743nucleo/adalib/libgnarl.a(a-retide.o)
 *fill*         0x000000000800c671        0x3 
 .rodata        0x000000000800c674        0xd /home/badr/GNAT/2018-arm-elf/arm-eabi/lib/gnat/ravenscar-sfp-stm32h743nucleo/adalib/libgnarl.a(s-bbtiev.o)
 *fill*         0x000000000800c681        0x3 
 .rodata.system__bb__timing_events__timing_eventP
                0x000000000800c684        0x4 /home/badr/GNAT/2018-arm-elf/arm-eabi/lib/gnat/ravenscar-sfp-stm32h743nucleo/adalib/libgnarl.a(s-bbtiev.o)
                0x000000000800c684                system__bb__timing_events__timing_eventP
 .rodata.system__bb__timing_events__timing_eventY
                0x000000000800c688        0x4 /home/badr/GNAT/2018-arm-elf/arm-eabi/lib/gnat/ravenscar-sfp-stm32h743nucleo/adalib/libgnarl.a(s-bbtiev.o)
                0x000000000800c688                system__bb__timing_events__timing_eventY
 .rodata.system__bb__timing_events__timing_eventE8s
                0x000000000800c68c       0x25 /home/badr/GNAT/2018-arm-elf/arm-eabi/lib/gnat/ravenscar-sfp-stm32h743nucleo/adalib/libgnarl.a(s-bbtiev.o)
                0x000000000800c68c                system__bb__timing_events__timing_eventE8s
 *fill*         0x000000000800c6b1        0x3 
 .rodata.system__bb__timing_events__timing_eventB12s
                0x000000000800c6b4       0x1c /home/badr/GNAT/2018-arm-elf/arm-eabi/lib/gnat/ravenscar-sfp-stm32h743nucleo/adalib/libgnarl.a(s-bbtiev.o)
                0x000000000800c6b4                system__bb__timing_events__timing_eventB12s
 .rodata.system__bb__timing_events__timing_eventR10s___UNC
                0x000000000800c6d0        0xc /home/badr/GNAT/2018-arm-elf/arm-eabi/lib/gnat/ravenscar-sfp-stm32h743nucleo/adalib/libgnarl.a(s-bbtiev.o)
                0x000000000800c6d0                system__bb__timing_events__timing_eventR10s___UNC
 .rodata.system__bb__timing_events__timing_eventR10s
                0x000000000800c6dc        0x4 /home/badr/GNAT/2018-arm-elf/arm-eabi/lib/gnat/ravenscar-sfp-stm32h743nucleo/adalib/libgnarl.a(s-bbtiev.o)
                0x000000000800c6dc                system__bb__timing_events__timing_eventR10s
 .rodata.system__bb__timing_events__timing_eventT
                0x000000000800c6e0       0x1c /home/badr/GNAT/2018-arm-elf/arm-eabi/lib/gnat/ravenscar-sfp-stm32h743nucleo/adalib/libgnarl.a(s-bbtiev.o)
                0x000000000800c6e0                system__bb__timing_events__timing_eventT
 .rodata        0x000000000800c6fc        0xd /home/badr/GNAT/2018-arm-elf/arm-eabi/lib/gnat/ravenscar-sfp-stm32h743nucleo/adalib/libgnarl.a(s-bbtime.o)
 *fill*         0x000000000800c709        0x3 
 .rodata.system__bb__time__initial_composite_execution_time
                0x000000000800c70c        0x8 /home/badr/GNAT/2018-arm-elf/arm-eabi/lib/gnat/ravenscar-sfp-stm32h743nucleo/adalib/libgnarl.a(s-bbtime.o)
                0x000000000800c70c                system__bb__time__initial_composite_execution_time
 .rodata.system__bb__time__update_in_progress
                0x000000000800c714        0x4 /home/badr/GNAT/2018-arm-elf/arm-eabi/lib/gnat/ravenscar-sfp-stm32h743nucleo/adalib/libgnarl.a(s-bbtime.o)
                0x000000000800c714                system__bb__time__update_in_progress
 .rodata.system__bb__time__periods_in_epoch
                0x000000000800c718        0x4 /home/badr/GNAT/2018-arm-elf/arm-eabi/lib/gnat/ravenscar-sfp-stm32h743nucleo/adalib/libgnarl.a(s-bbtime.o)
                0x000000000800c718                system__bb__time__periods_in_epoch
 .rodata        0x000000000800c71c        0xd /home/badr/GNAT/2018-arm-elf/arm-eabi/lib/gnat/ravenscar-sfp-stm32h743nucleo/adalib/libgnarl.a(s-taprop.o)
 *fill*         0x000000000800c729        0x3 
 .rodata.system__task_primitives__operations__idle_stack_size
                0x000000000800c72c        0x4 /home/badr/GNAT/2018-arm-elf/arm-eabi/lib/gnat/ravenscar-sfp-stm32h743nucleo/adalib/libgnarl.a(s-taprop.o)
                0x000000000800c72c                system__task_primitives__operations__idle_stack_size
 .rodata        0x000000000800c730        0xd /home/badr/GNAT/2018-arm-elf/arm-eabi/lib/gnat/ravenscar-sfp-stm32h743nucleo/adalib/libgnarl.a(s-tasdeb.o)
 *fill*         0x000000000800c73d        0x3 
 .rodata        0x000000000800c740       0x64 /home/badr/GNAT/2018-arm-elf/arm-eabi/lib/gnat/ravenscar-sfp-stm32h743nucleo/adalib/libgnarl.a(s-taskin.o)
 .rodata.system__tasking__null_task
                0x000000000800c7a4        0x4 /home/badr/GNAT/2018-arm-elf/arm-eabi/lib/gnat/ravenscar-sfp-stm32h743nucleo/adalib/libgnarl.a(s-taskin.o)
                0x000000000800c7a4                system__tasking__null_task
 .rodata.system__tasking__idle_priority
                0x000000000800c7a8        0x4 /home/badr/GNAT/2018-arm-elf/arm-eabi/lib/gnat/ravenscar-sfp-stm32h743nucleo/adalib/libgnarl.a(s-taskin.o)
                0x000000000800c7a8                system__tasking__idle_priority
 .rodata.system__tasking__library_task_level
                0x000000000800c7ac        0x4 /home/badr/GNAT/2018-arm-elf/arm-eabi/lib/gnat/ravenscar-sfp-stm32h743nucleo/adalib/libgnarl.a(s-taskin.o)
                0x000000000800c7ac                system__tasking__library_task_level
 .rodata.system__tasking__task_statesS
                0x000000000800c7b0      0x130 /home/badr/GNAT/2018-arm-elf/arm-eabi/lib/gnat/ravenscar-sfp-stm32h743nucleo/adalib/libgnarl.a(s-taskin.o)
                0x000000000800c7b0                system__tasking__task_statesS
 .rodata.system__tasking__task_statesN
                0x000000000800c8e0       0x22 /home/badr/GNAT/2018-arm-elf/arm-eabi/lib/gnat/ravenscar-sfp-stm32h743nucleo/adalib/libgnarl.a(s-taskin.o)
                0x000000000800c8e0                system__tasking__task_statesN
 *fill*         0x000000000800c902        0x2 
 .rodata        0x000000000800c904        0xd /home/badr/GNAT/2018-arm-elf/arm-eabi/lib/gnat/ravenscar-sfp-stm32h743nucleo/adalib/libgnarl.a(s-bbbosu.o)
 .rodata.system__bb__board_support__sys_tick_vector
                0x000000000800c911        0x1 /home/badr/GNAT/2018-arm-elf/arm-eabi/lib/gnat/ravenscar-sfp-stm32h743nucleo/adalib/libgnarl.a(s-bbbosu.o)
                0x000000000800c911                system__bb__board_support__sys_tick_vector
 .rodata.system__bb__board_support__interrupt_request_vector
                0x000000000800c912        0x1 /home/badr/GNAT/2018-arm-elf/arm-eabi/lib/gnat/ravenscar-sfp-stm32h743nucleo/adalib/libgnarl.a(s-bbbosu.o)
                0x000000000800c912                system__bb__board_support__interrupt_request_vector
 *fill*         0x000000000800c913        0x1 
 .rodata.system__bb__board_support__alarm_interrupt_id
                0x000000000800c914        0x4 /home/badr/GNAT/2018-arm-elf/arm-eabi/lib/gnat/ravenscar-sfp-stm32h743nucleo/adalib/libgnarl.a(s-bbbosu.o)
                0x000000000800c914                system__bb__board_support__alarm_interrupt_id
 .rodata.system__bb__board_support__tick_period
                0x000000000800c918        0x4 /home/badr/GNAT/2018-arm-elf/arm-eabi/lib/gnat/ravenscar-sfp-stm32h743nucleo/adalib/libgnarl.a(s-bbbosu.o)
                0x000000000800c918                system__bb__board_support__tick_period
 .rodata.system__bb__board_support__nvic_iser0
                0x000000000800c91c        0x4 /home/badr/GNAT/2018-arm-elf/arm-eabi/lib/gnat/ravenscar-sfp-stm32h743nucleo/adalib/libgnarl.a(s-bbbosu.o)
                0x000000000800c91c                system__bb__board_support__nvic_iser0
 .rodata.system__bb__board_support__ip
                0x000000000800c920        0x4 /home/badr/GNAT/2018-arm-elf/arm-eabi/lib/gnat/ravenscar-sfp-stm32h743nucleo/adalib/libgnarl.a(s-bbbosu.o)
                0x000000000800c920                system__bb__board_support(int,  *)
 .rodata.system__bb__board_support__icsr
                0x000000000800c924        0x4 /home/badr/GNAT/2018-arm-elf/arm-eabi/lib/gnat/ravenscar-sfp-stm32h743nucleo/adalib/libgnarl.a(s-bbbosu.o)
                0x000000000800c924                system__bb__board_support(int, char, short, long double)
 .rodata.system__bb__board_support__syst
                0x000000000800c928        0x4 /home/badr/GNAT/2018-arm-elf/arm-eabi/lib/gnat/ravenscar-sfp-stm32h743nucleo/adalib/libgnarl.a(s-bbbosu.o)
                0x000000000800c928                system__bb__board_support__syst
 .rodata        0x000000000800c92c      0x1bc /home/badr/GNAT/2018-arm-elf/arm-eabi/lib/gnat/ravenscar-sfp-stm32h743nucleo/adalib/libgnarl.a(s-bbcppr.o)
 .rodata.system__bb__cpu_primitives__nl
                0x000000000800cae8        0x2 /home/badr/GNAT/2018-arm-elf/arm-eabi/lib/gnat/ravenscar-sfp-stm32h743nucleo/adalib/libgnarl.a(s-bbcppr.o)
                0x000000000800cae8                system__bb__cpu_primitives__nl
 .rodata.system__bb__cpu_primitives__has_vtor
                0x000000000800caea        0x1 /home/badr/GNAT/2018-arm-elf/arm-eabi/lib/gnat/ravenscar-sfp-stm32h743nucleo/adalib/libgnarl.a(s-bbcppr.o)
                0x000000000800caea                system__bb__cpu_primitives__has_vtor
 .rodata.system__bb__cpu_primitives__has_os_extensions
                0x000000000800caeb        0x1 /home/badr/GNAT/2018-arm-elf/arm-eabi/lib/gnat/ravenscar-sfp-stm32h743nucleo/adalib/libgnarl.a(s-bbcppr.o)
                0x000000000800caeb                system__bb__cpu_primitives__has_os_extensions
 .rodata.system__bb__cpu_primitives__is_armv6m
                0x000000000800caec        0x1 /home/badr/GNAT/2018-arm-elf/arm-eabi/lib/gnat/ravenscar-sfp-stm32h743nucleo/adalib/libgnarl.a(s-bbcppr.o)
                0x000000000800caec                system__bb__cpu_primitives__is_armv6m
 .rodata.system__bb__cpu_primitives__reset_vector
                0x000000000800caed        0x1 /home/badr/GNAT/2018-arm-elf/arm-eabi/lib/gnat/ravenscar-sfp-stm32h743nucleo/adalib/libgnarl.a(s-bbcppr.o)
                0x000000000800caed                system__bb__cpu_primitives__reset_vector
 .rodata.system__bb__cpu_primitives__nmi_vector
                0x000000000800caee        0x1 /home/badr/GNAT/2018-arm-elf/arm-eabi/lib/gnat/ravenscar-sfp-stm32h743nucleo/adalib/libgnarl.a(s-bbcppr.o)
                0x000000000800caee                system__bb__cpu_primitives__nmi_vector
 .rodata.system__bb__cpu_primitives__hard_fault_vector
                0x000000000800caef        0x1 /home/badr/GNAT/2018-arm-elf/arm-eabi/lib/gnat/ravenscar-sfp-stm32h743nucleo/adalib/libgnarl.a(s-bbcppr.o)
                0x000000000800caef                system__bb__cpu_primitives__hard_fault_vector
 .rodata.system__bb__cpu_primitives__bus_fault_vector
                0x000000000800caf0        0x1 /home/badr/GNAT/2018-arm-elf/arm-eabi/lib/gnat/ravenscar-sfp-stm32h743nucleo/adalib/libgnarl.a(s-bbcppr.o)
                0x000000000800caf0                system__bb__cpu_primitives__bus_fault_vector
 .rodata.system__bb__cpu_primitives__usage_fault_vector
                0x000000000800caf1        0x1 /home/badr/GNAT/2018-arm-elf/arm-eabi/lib/gnat/ravenscar-sfp-stm32h743nucleo/adalib/libgnarl.a(s-bbcppr.o)
                0x000000000800caf1                system__bb__cpu_primitives__usage_fault_vector
 .rodata.system__bb__cpu_primitives__sv_call_vector
                0x000000000800caf2        0x1 /home/badr/GNAT/2018-arm-elf/arm-eabi/lib/gnat/ravenscar-sfp-stm32h743nucleo/adalib/libgnarl.a(s-bbcppr.o)
                0x000000000800caf2                system__bb__cpu_primitives__sv_call_vector
 .rodata.system__bb__cpu_primitives__pend_sv_vector
                0x000000000800caf3        0x1 /home/badr/GNAT/2018-arm-elf/arm-eabi/lib/gnat/ravenscar-sfp-stm32h743nucleo/adalib/libgnarl.a(s-bbcppr.o)
                0x000000000800caf3                system__bb__cpu_primitives__pend_sv_vector
 .rodata.system__bb__cpu_primitives__sys_tick_vector
                0x000000000800caf4        0x1 /home/badr/GNAT/2018-arm-elf/arm-eabi/lib/gnat/ravenscar-sfp-stm32h743nucleo/adalib/libgnarl.a(s-bbcppr.o)
                0x000000000800caf4                system__bb__cpu_primitives__sys_tick_vector
 .rodata.system__bb__cpu_primitives__interrupt_request_vector
                0x000000000800caf5        0x1 /home/badr/GNAT/2018-arm-elf/arm-eabi/lib/gnat/ravenscar-sfp-stm32h743nucleo/adalib/libgnarl.a(s-bbcppr.o)
                0x000000000800caf5                system__bb__cpu_primitives__interrupt_request_vector
 .rodata.system__bb__cpu_primitives__sp_process
                0x000000000800caf6        0x1 /home/badr/GNAT/2018-arm-elf/arm-eabi/lib/gnat/ravenscar-sfp-stm32h743nucleo/adalib/libgnarl.a(s-bbcppr.o)
                0x000000000800caf6                system__bb__cpu_primitives__sp_process
 *fill*         0x000000000800caf7        0x1 
 .rodata.system__bb__cpu_primitives__vtor
                0x000000000800caf8        0x4 /home/badr/GNAT/2018-arm-elf/arm-eabi/lib/gnat/ravenscar-sfp-stm32h743nucleo/adalib/libgnarl.a(s-bbcppr.o)
                0x000000000800caf8                system__bb__cpu_primitives__vtor
 .rodata.system__bb__cpu_primitives__aircr
                0x000000000800cafc        0x4 /home/badr/GNAT/2018-arm-elf/arm-eabi/lib/gnat/ravenscar-sfp-stm32h743nucleo/adalib/libgnarl.a(s-bbcppr.o)
                0x000000000800cafc                system__bb__cpu_primitives__aircr
 .rodata.system__bb__cpu_primitives__ccr
                0x000000000800cb00        0x4 /home/badr/GNAT/2018-arm-elf/arm-eabi/lib/gnat/ravenscar-sfp-stm32h743nucleo/adalib/libgnarl.a(s-bbcppr.o)
                0x000000000800cb00                system__bb__cpu_primitives(char, char, long double)
 .rodata.system__bb__cpu_primitives__shpr1
                0x000000000800cb04        0x4 /home/badr/GNAT/2018-arm-elf/arm-eabi/lib/gnat/ravenscar-sfp-stm32h743nucleo/adalib/libgnarl.a(s-bbcppr.o)
                0x000000000800cb04                system__bb__cpu_primitives__shpr1
 .rodata.system__bb__cpu_primitives__shpr2
                0x000000000800cb08        0x4 /home/badr/GNAT/2018-arm-elf/arm-eabi/lib/gnat/ravenscar-sfp-stm32h743nucleo/adalib/libgnarl.a(s-bbcppr.o)
                0x000000000800cb08                system__bb__cpu_primitives__shpr2
 .rodata.system__bb__cpu_primitives__shpr3
                0x000000000800cb0c        0x4 /home/badr/GNAT/2018-arm-elf/arm-eabi/lib/gnat/ravenscar-sfp-stm32h743nucleo/adalib/libgnarl.a(s-bbcppr.o)
                0x000000000800cb0c                system__bb__cpu_primitives__shpr3
 .rodata.system__bb__cpu_primitives__shcsr
                0x000000000800cb10        0x4 /home/badr/GNAT/2018-arm-elf/arm-eabi/lib/gnat/ravenscar-sfp-stm32h743nucleo/adalib/libgnarl.a(s-bbcppr.o)
                0x000000000800cb10                system__bb__cpu_primitives__shcsr
 .rodata        0x000000000800cb14        0xd /home/badr/GNAT/2018-arm-elf/arm-eabi/lib/gnat/ravenscar-sfp-stm32h743nucleo/adalib/libgnarl.a(s-bbinte.o)
 *fill*         0x000000000800cb21        0x3 
 .rodata.system__bb__interrupts__no_interrupt
                0x000000000800cb24        0x4 /home/badr/GNAT/2018-arm-elf/arm-eabi/lib/gnat/ravenscar-sfp-stm32h743nucleo/adalib/libgnarl.a(s-bbinte.o)
                0x000000000800cb24                system__bb__interrupts__no_interrupt
 .rodata        0x000000000800cb28        0xd /home/badr/GNAT/2018-arm-elf/arm-eabi/lib/gnat/ravenscar-sfp-stm32h743nucleo/adalib/libgnarl.a(s-bbprot.o)
 *fill*         0x000000000800cb35        0x3 
 .rodata        0x000000000800cb38        0xd /home/badr/GNAT/2018-arm-elf/arm-eabi/lib/gnat/ravenscar-sfp-stm32h743nucleo/adalib/libgnarl.a(s-bbthqu.o)
 *fill*         0x000000000800cb45        0x3 
 .rodata        0x000000000800cb48        0xd /home/badr/GNAT/2018-arm-elf/arm-eabi/lib/gnat/ravenscar-sfp-stm32h743nucleo/adalib/libgnarl.a(s-bbthre.o)
 *fill*         0x000000000800cb55        0x3 
 .rodata.system__bb__threads__null_thread_id
                0x000000000800cb58        0x4 /home/badr/GNAT/2018-arm-elf/arm-eabi/lib/gnat/ravenscar-sfp-stm32h743nucleo/adalib/libgnarl.a(s-bbthre.o)
                0x000000000800cb58                system__bb__threads__null_thread_id
 .rodata.system__bb__threads__thread_statesS
                0x000000000800cb5c       0x18 /home/badr/GNAT/2018-arm-elf/arm-eabi/lib/gnat/ravenscar-sfp-stm32h743nucleo/adalib/libgnarl.a(s-bbthre.o)
                0x000000000800cb5c                system__bb__threads__thread_statesS
 .rodata.system__bb__threads__thread_statesN
                0x000000000800cb74        0x4 /home/badr/GNAT/2018-arm-elf/arm-eabi/lib/gnat/ravenscar-sfp-stm32h743nucleo/adalib/libgnarl.a(s-bbthre.o)
                0x000000000800cb74                system__bb__threads__thread_statesN
 .rodata.system__bb__cpu_primitives__context_switch_trigger__nl
                0x000000000800cb78        0x2 /home/badr/GNAT/2018-arm-elf/arm-eabi/lib/gnat/ravenscar-sfp-stm32h743nucleo/adalib/libgnarl.a(s-bcpcst.o)
 .rodata.system__bb__cpu_primitives__context_switch_trigger__no_floating_point
                0x000000000800cb7a        0x1 /home/badr/GNAT/2018-arm-elf/arm-eabi/lib/gnat/ravenscar-sfp-stm32h743nucleo/adalib/libgnarl.a(s-bcpcst.o)
 .rodata.system__bb__cpu_primitives__context_switch_trigger__is_armv6m
                0x000000000800cb7b        0x1 /home/badr/GNAT/2018-arm-elf/arm-eabi/lib/gnat/ravenscar-sfp-stm32h743nucleo/adalib/libgnarl.a(s-bcpcst.o)
 .rodata.system__bb__cpu_primitives__context_switch_trigger__icsr_pend_sv_set
                0x000000000800cb7c        0x4 /home/badr/GNAT/2018-arm-elf/arm-eabi/lib/gnat/ravenscar-sfp-stm32h743nucleo/adalib/libgnarl.a(s-bcpcst.o)
 .rodata.system__bb__cpu_primitives__context_switch_trigger__icsr
                0x000000000800cb80        0x4 /home/badr/GNAT/2018-arm-elf/arm-eabi/lib/gnat/ravenscar-sfp-stm32h743nucleo/adalib/libgnarl.a(s-bcpcst.o)
 .rodata        0x000000000800cb84       0x84 /home/badr/GNAT/2018-arm-elf/arm-eabi/lib/gnat/ravenscar-sfp-stm32h743nucleo/adalib/libgnat.a(a-elchha.o)
 .rodata.ada__exceptions__null_id
                0x000000000800cc08        0x4 /home/badr/GNAT/2018-arm-elf/arm-eabi/lib/gnat/ravenscar-sfp-stm32h743nucleo/adalib/libgnat.a(a-except.o)
                0x000000000800cc08                ada__exceptions__null_id
 .rodata.ada__exceptions__empty_c_string___UNC
                0x000000000800cc0c        0xc /home/badr/GNAT/2018-arm-elf/arm-eabi/lib/gnat/ravenscar-sfp-stm32h743nucleo/adalib/libgnat.a(a-except.o)
                0x000000000800cc0c                ada__exceptions__empty_c_string___UNC
 .rodata.ada__exceptions__empty_c_string
                0x000000000800cc18        0x4 /home/badr/GNAT/2018-arm-elf/arm-eabi/lib/gnat/ravenscar-sfp-stm32h743nucleo/adalib/libgnat.a(a-except.o)
                0x000000000800cc18                ada__exceptions__empty_c_string
 .rodata        0x000000000800cc1c        0x9 /home/badr/GNAT/2018-arm-elf/arm-eabi/lib/gnat/ravenscar-sfp-stm32h743nucleo/adalib/libgnat.a(g-io.o)
 *fill*         0x000000000800cc25        0x3 
 .rodata        0x000000000800cc28        0xd /home/badr/GNAT/2018-arm-elf/arm-eabi/lib/gnat/ravenscar-sfp-stm32h743nucleo/adalib/libgnat.a(s-assert.o)
 *fill*         0x000000000800cc35        0x3 
 .rodata.system__assertions__assert_failureE
                0x000000000800cc38       0x21 /home/badr/GNAT/2018-arm-elf/arm-eabi/lib/gnat/ravenscar-sfp-stm32h743nucleo/adalib/libgnat.a(s-assert.o)
                0x000000000800cc38                system__assertions__assert_failureE
 *fill*         0x000000000800cc59        0x3 
 .rodata.system__assertions__R2s
                0x000000000800cc5c        0x4 /home/badr/GNAT/2018-arm-elf/arm-eabi/lib/gnat/ravenscar-sfp-stm32h743nucleo/adalib/libgnat.a(s-assert.o)
                0x000000000800cc5c                system__assertions__R2s
 .rodata        0x000000000800cc60        0xd /home/badr/GNAT/2018-arm-elf/arm-eabi/lib/gnat/ravenscar-sfp-stm32h743nucleo/adalib/libgnat.a(s-memcop.o)
 *fill*         0x000000000800cc6d        0x3 
 .rodata        0x000000000800cc70        0xd /home/badr/GNAT/2018-arm-elf/arm-eabi/lib/gnat/ravenscar-sfp-stm32h743nucleo/adalib/libgnat.a(s-memset.o)
 *fill*         0x000000000800cc7d        0x3 
 .rodata.system__parameters__unspecified_size
                0x000000000800cc80        0x4 /home/badr/GNAT/2018-arm-elf/arm-eabi/lib/gnat/ravenscar-sfp-stm32h743nucleo/adalib/libgnat.a(s-parame.o)
                0x000000000800cc80                system__parameters__unspecified_size
 .rodata.system__parameters__default_stack_size
                0x000000000800cc84        0x4 /home/badr/GNAT/2018-arm-elf/arm-eabi/lib/gnat/ravenscar-sfp-stm32h743nucleo/adalib/libgnat.a(s-parame.o)
                0x000000000800cc84                system__parameters__default_stack_size
 .rodata.system__parameters__minimum_stack_size
                0x000000000800cc88        0x4 /home/badr/GNAT/2018-arm-elf/arm-eabi/lib/gnat/ravenscar-sfp-stm32h743nucleo/adalib/libgnat.a(s-parame.o)
                0x000000000800cc88                system__parameters__minimum_stack_size
 .rodata.system__parameters__stack_grows_down
                0x000000000800cc8c        0x1 /home/badr/GNAT/2018-arm-elf/arm-eabi/lib/gnat/ravenscar-sfp-stm32h743nucleo/adalib/libgnat.a(s-parame.o)
                0x000000000800cc8c                system__parameters__stack_grows_down
 *fill*         0x000000000800cc8d        0x3 
 .rodata.system__parameters__runtime_default_sec_stack_size
                0x000000000800cc90        0x4 /home/badr/GNAT/2018-arm-elf/arm-eabi/lib/gnat/ravenscar-sfp-stm32h743nucleo/adalib/libgnat.a(s-parame.o)
                0x000000000800cc90                system__parameters__runtime_default_sec_stack_size
 .rodata.system__parameters__c_malloc_linkname
                0x000000000800cc94        0xd /home/badr/GNAT/2018-arm-elf/arm-eabi/lib/gnat/ravenscar-sfp-stm32h743nucleo/adalib/libgnat.a(s-parame.o)
                0x000000000800cc94                system__parameters__c_malloc_linkname
 .rodata.system__parameters__garbage_collected
                0x000000000800cca1        0x1 /home/badr/GNAT/2018-arm-elf/arm-eabi/lib/gnat/ravenscar-sfp-stm32h743nucleo/adalib/libgnat.a(s-parame.o)
                0x000000000800cca1                system__parameters__garbage_collected
 .rodata.system__parameters__single_lock
                0x000000000800cca2        0x1 /home/badr/GNAT/2018-arm-elf/arm-eabi/lib/gnat/ravenscar-sfp-stm32h743nucleo/adalib/libgnat.a(s-parame.o)
                0x000000000800cca2                system__parameters__single_lock
 .rodata.system__parameters__no_abort
                0x000000000800cca3        0x1 /home/badr/GNAT/2018-arm-elf/arm-eabi/lib/gnat/ravenscar-sfp-stm32h743nucleo/adalib/libgnat.a(s-parame.o)
                0x000000000800cca3                system__parameters__no_abort
 .rodata        0x000000000800cca4        0xd /home/badr/GNAT/2018-arm-elf/arm-eabi/lib/gnat/ravenscar-sfp-stm32h743nucleo/adalib/libgnat.a(s-secsta.o)
 *fill*         0x000000000800ccb1        0x3 
 .rodata        0x000000000800ccb4        0xd /home/badr/GNAT/2018-arm-elf/arm-eabi/lib/gnat/ravenscar-sfp-stm32h743nucleo/adalib/libgnat.a(s-semiho.o)
 *fill*         0x000000000800ccc1        0x3 
 .rodata.system__semihosting__sys_writec
                0x000000000800ccc4        0x4 /home/badr/GNAT/2018-arm-elf/arm-eabi/lib/gnat/ravenscar-sfp-stm32h743nucleo/adalib/libgnat.a(s-semiho.o)
 .rodata.system__semihosting__sys_write0
                0x000000000800ccc8        0x4 /home/badr/GNAT/2018-arm-elf/arm-eabi/lib/gnat/ravenscar-sfp-stm32h743nucleo/adalib/libgnat.a(s-semiho.o)
 .rodata.system__semihosting__sys_readc
                0x000000000800cccc        0x4 /home/badr/GNAT/2018-arm-elf/arm-eabi/lib/gnat/ravenscar-sfp-stm32h743nucleo/adalib/libgnat.a(s-semiho.o)
                0x000000000800ccd0                . = ALIGN (0x4)
                0x000000000800ccd0                __rom_end = .
                0x000000000800ccd0                __data_load = __rom_end

.rel.dyn        0x000000000800ccd0        0x0
 .rel.iplt      0x000000000800ccd0        0x0 spi.o

.data           0x0000000024000000      0x118 load address 0x000000000800ccd0
                0x0000000024000000                __data_start = .
 *(.data .data.* .gnu.linkonce.d*)
 .data          0x0000000024000000        0x0 spi.o
 .data          0x0000000024000000        0x2 b__spi.o
                0x0000000024000000                ada_main_E
 .data          0x0000000024000002        0x0 /home/badr/hackinvent/Ada_Drivers_Library/boards/stm32h743_nucleo/obj/sfp_lib_Debug/libada_drivers_library.a(stm32-board.o)
 .data.stm32__board_E
                0x0000000024000002        0x2 /home/badr/hackinvent/Ada_Drivers_Library/boards/stm32h743_nucleo/obj/sfp_lib_Debug/libada_drivers_library.a(stm32-board.o)
                0x0000000024000002                stm32__board_E
 .data          0x0000000024000004        0x0 /home/badr/hackinvent/Ada_Drivers_Library/boards/stm32h743_nucleo/obj/sfp_lib_Debug/libada_drivers_library.a(stm32-device.o)
 .data.stm32__device_E
                0x0000000024000004        0x2 /home/badr/hackinvent/Ada_Drivers_Library/boards/stm32h743_nucleo/obj/sfp_lib_Debug/libada_drivers_library.a(stm32-device.o)
                0x0000000024000004                stm32__device_E
 *fill*         0x0000000024000006        0x2 
 .data.stm32__device__unknown_device
                0x0000000024000008       0x18 /home/badr/hackinvent/Ada_Drivers_Library/boards/stm32h743_nucleo/obj/sfp_lib_Debug/libada_drivers_library.a(stm32-device.o)
                0x0000000024000008                stm32__device__unknown_device
 .data          0x0000000024000020        0x0 /home/badr/hackinvent/Ada_Drivers_Library/boards/stm32h743_nucleo/obj/sfp_lib_Debug/libada_drivers_library.a(stm32-exti.o)
 .data.stm32__exti_E
                0x0000000024000020        0x2 /home/badr/hackinvent/Ada_Drivers_Library/boards/stm32h743_nucleo/obj/sfp_lib_Debug/libada_drivers_library.a(stm32-exti.o)
                0x0000000024000020                stm32__exti_E
 .data          0x0000000024000022        0x0 /home/badr/hackinvent/Ada_Drivers_Library/boards/stm32h743_nucleo/obj/sfp_lib_Debug/libada_drivers_library.a(stm32-gpio.o)
 .data.stm32__gpio_E
                0x0000000024000022        0x2 /home/badr/hackinvent/Ada_Drivers_Library/boards/stm32h743_nucleo/obj/sfp_lib_Debug/libada_drivers_library.a(stm32-gpio.o)
                0x0000000024000022                stm32__gpio_E
 .data.stm32__gpio__modeE10b
                0x0000000024000024        0x1 /home/badr/hackinvent/Ada_Drivers_Library/boards/stm32h743_nucleo/obj/sfp_lib_Debug/libada_drivers_library.a(stm32-gpio.o)
                0x0000000024000024                stm32__gpio__modeE10b
 .data.stm32__gpio__set_modeE23b
                0x0000000024000025        0x1 /home/badr/hackinvent/Ada_Drivers_Library/boards/stm32h743_nucleo/obj/sfp_lib_Debug/libada_drivers_library.a(stm32-gpio.o)
                0x0000000024000025                stm32__gpio__set_modeE23b
 .data.stm32__gpio__pull_resistorE28b
                0x0000000024000026        0x1 /home/badr/hackinvent/Ada_Drivers_Library/boards/stm32h743_nucleo/obj/sfp_lib_Debug/libada_drivers_library.a(stm32-gpio.o)
                0x0000000024000026                stm32__gpio__pull_resistorE28b
 .data.stm32__gpio__set_pull_resistorE42b
                0x0000000024000027        0x1 /home/badr/hackinvent/Ada_Drivers_Library/boards/stm32h743_nucleo/obj/sfp_lib_Debug/libada_drivers_library.a(stm32-gpio.o)
                0x0000000024000027                stm32__gpio__set_pull_resistorE42b
 .data.stm32__gpio__lockE78b
                0x0000000024000028        0x1 /home/badr/hackinvent/Ada_Drivers_Library/boards/stm32h743_nucleo/obj/sfp_lib_Debug/libada_drivers_library.a(stm32-gpio.o)
                0x0000000024000028                stm32__gpio__lockE78b
 .data.stm32__gpio__configure_ioE100b
                0x0000000024000029        0x1 /home/badr/hackinvent/Ada_Drivers_Library/boards/stm32h743_nucleo/obj/sfp_lib_Debug/libada_drivers_library.a(stm32-gpio.o)
                0x0000000024000029                stm32__gpio__configure_ioE100b
 .data.stm32__gpio__interrupt_line_numberE120b
                0x000000002400002a        0x1 /home/badr/hackinvent/Ada_Drivers_Library/boards/stm32h743_nucleo/obj/sfp_lib_Debug/libada_drivers_library.a(stm32-gpio.o)
                0x000000002400002a                stm32__gpio__interrupt_line_numberE120b
 .data.stm32__gpio__configure_triggerE122b
                0x000000002400002b        0x1 /home/badr/hackinvent/Ada_Drivers_Library/boards/stm32h743_nucleo/obj/sfp_lib_Debug/libada_drivers_library.a(stm32-gpio.o)
                0x000000002400002b                stm32__gpio__configure_triggerE122b
 .data.stm32__gpio__configure_alternate_functionE114b
                0x000000002400002c        0x1 /home/badr/hackinvent/Ada_Drivers_Library/boards/stm32h743_nucleo/obj/sfp_lib_Debug/libada_drivers_library.a(stm32-gpio.o)
                0x000000002400002c                stm32__gpio__configure_alternate_functionE114b
 .data          0x000000002400002d        0x0 /home/badr/hackinvent/Ada_Drivers_Library/boards/stm32h743_nucleo/obj/sfp_lib_Debug/libada_drivers_library.a(stm32-rcc.o)
 *fill*         0x000000002400002d        0x1 
 .data.stm32__rcc_E
                0x000000002400002e        0x2 /home/badr/hackinvent/Ada_Drivers_Library/boards/stm32h743_nucleo/obj/sfp_lib_Debug/libada_drivers_library.a(stm32-rcc.o)
                0x000000002400002e                stm32__rcc_E
 .data.stm32__rcc__unknown_device
                0x0000000024000030       0x18 /home/badr/hackinvent/Ada_Drivers_Library/boards/stm32h743_nucleo/obj/sfp_lib_Debug/libada_drivers_library.a(stm32-rcc.o)
                0x0000000024000030                stm32__rcc__unknown_device
 .data          0x0000000024000048        0x0 /home/badr/hackinvent/Ada_Drivers_Library/boards/stm32h743_nucleo/obj/sfp_lib_Debug/libada_drivers_library.a(stm32-spi.o)
 .data.stm32__spi_E
                0x0000000024000048        0x2 /home/badr/hackinvent/Ada_Drivers_Library/boards/stm32h743_nucleo/obj/sfp_lib_Debug/libada_drivers_library.a(stm32-spi.o)
                0x0000000024000048                stm32__spi_E
 .data.stm32__spi__testconfigureE1b
                0x000000002400004a        0x1 /home/badr/hackinvent/Ada_Drivers_Library/boards/stm32h743_nucleo/obj/sfp_lib_Debug/libada_drivers_library.a(stm32-spi.o)
                0x000000002400004a                stm32__spi__testconfigureE1b
 .data.stm32__spi__testtrasmitE2b
                0x000000002400004b        0x1 /home/badr/hackinvent/Ada_Drivers_Library/boards/stm32h743_nucleo/obj/sfp_lib_Debug/libada_drivers_library.a(stm32-spi.o)
                0x000000002400004b                stm32__spi__testtrasmitE2b
 .data.stm32__spi__configureE3b
                0x000000002400004c        0x1 /home/badr/hackinvent/Ada_Drivers_Library/boards/stm32h743_nucleo/obj/sfp_lib_Debug/libada_drivers_library.a(stm32-spi.o)
                0x000000002400004c                stm32__spi__configureE3b
 .data.stm32__spi__enableE4b
                0x000000002400004d        0x1 /home/badr/hackinvent/Ada_Drivers_Library/boards/stm32h743_nucleo/obj/sfp_lib_Debug/libada_drivers_library.a(stm32-spi.o)
                0x000000002400004d                stm32__spi__enableE4b
 .data.stm32__spi__disableE5b
                0x000000002400004e        0x1 /home/badr/hackinvent/Ada_Drivers_Library/boards/stm32h743_nucleo/obj/sfp_lib_Debug/libada_drivers_library.a(stm32-spi.o)
                0x000000002400004e                stm32__spi__disableE5b
 .data.stm32__spi__enabledE9b
                0x000000002400004f        0x1 /home/badr/hackinvent/Ada_Drivers_Library/boards/stm32h743_nucleo/obj/sfp_lib_Debug/libada_drivers_library.a(stm32-spi.o)
                0x000000002400004f                stm32__spi__enabledE9b
 .data.stm32__spi__sendE10b
                0x0000000024000050        0x1 /home/badr/hackinvent/Ada_Drivers_Library/boards/stm32h743_nucleo/obj/sfp_lib_Debug/libada_drivers_library.a(stm32-spi.o)
                0x0000000024000050                stm32__spi__sendE10b
 .data.stm32__spi__sendE13b
                0x0000000024000051        0x1 /home/badr/hackinvent/Ada_Drivers_Library/boards/stm32h743_nucleo/obj/sfp_lib_Debug/libada_drivers_library.a(stm32-spi.o)
                0x0000000024000051                stm32__spi__sendE13b
 .data.stm32__spi__sendE17b
                0x0000000024000052        0x1 /home/badr/hackinvent/Ada_Drivers_Library/boards/stm32h743_nucleo/obj/sfp_lib_Debug/libada_drivers_library.a(stm32-spi.o)
                0x0000000024000052                stm32__spi__sendE17b
 .data.stm32__spi__clear_overrunE59b
                0x0000000024000053        0x1 /home/badr/hackinvent/Ada_Drivers_Library/boards/stm32h743_nucleo/obj/sfp_lib_Debug/libada_drivers_library.a(stm32-spi.o)
                0x0000000024000053                stm32__spi__clear_overrunE59b
 .data.stm32__spi__reset_crcE60b
                0x0000000024000054        0x1 /home/badr/hackinvent/Ada_Drivers_Library/boards/stm32h743_nucleo/obj/sfp_lib_Debug/libada_drivers_library.a(stm32-spi.o)
                0x0000000024000054                stm32__spi__reset_crcE60b
 .data.stm32__spi__is_data_frame_16bitE64b
                0x0000000024000055        0x1 /home/badr/hackinvent/Ada_Drivers_Library/boards/stm32h743_nucleo/obj/sfp_lib_Debug/libada_drivers_library.a(stm32-spi.o)
                0x0000000024000055                stm32__spi__is_data_frame_16bitE64b
 .data.stm32__spi__current_modeE36b
                0x0000000024000056        0x1 /home/badr/hackinvent/Ada_Drivers_Library/boards/stm32h743_nucleo/obj/sfp_lib_Debug/libada_drivers_library.a(stm32-spi.o)
                0x0000000024000056                stm32__spi__current_modeE36b
 .data.stm32__spi__current_data_directionE43b
                0x0000000024000057        0x1 /home/badr/hackinvent/Ada_Drivers_Library/boards/stm32h743_nucleo/obj/sfp_lib_Debug/libada_drivers_library.a(stm32-spi.o)
                0x0000000024000057                stm32__spi__current_data_directionE43b
 .data.stm32__spi__data_sizeE68b
                0x0000000024000058        0x1 /home/badr/hackinvent/Ada_Drivers_Library/boards/stm32h743_nucleo/obj/sfp_lib_Debug/libada_drivers_library.a(stm32-spi.o)
                0x0000000024000058                stm32__spi__data_sizeE68b
 .data.stm32__spi__transmitE74b
                0x0000000024000059        0x1 /home/badr/hackinvent/Ada_Drivers_Library/boards/stm32h743_nucleo/obj/sfp_lib_Debug/libada_drivers_library.a(stm32-spi.o)
                0x0000000024000059                stm32__spi__transmitE74b
 .data.stm32__spi__transmitE80b
                0x000000002400005a        0x1 /home/badr/hackinvent/Ada_Drivers_Library/boards/stm32h743_nucleo/obj/sfp_lib_Debug/libada_drivers_library.a(stm32-spi.o)
                0x000000002400005a                stm32__spi__transmitE80b
 .data.stm32__spi__transmitE82b
                0x000000002400005b        0x1 /home/badr/hackinvent/Ada_Drivers_Library/boards/stm32h743_nucleo/obj/sfp_lib_Debug/libada_drivers_library.a(stm32-spi.o)
                0x000000002400005b                stm32__spi__transmitE82b
 .data.stm32__spi__receiveE87b
                0x000000002400005c        0x1 /home/badr/hackinvent/Ada_Drivers_Library/boards/stm32h743_nucleo/obj/sfp_lib_Debug/libada_drivers_library.a(stm32-spi.o)
                0x000000002400005c                stm32__spi__receiveE87b
 .data.stm32__spi__receiveE92b
                0x000000002400005d        0x1 /home/badr/hackinvent/Ada_Drivers_Library/boards/stm32h743_nucleo/obj/sfp_lib_Debug/libada_drivers_library.a(stm32-spi.o)
                0x000000002400005d                stm32__spi__receiveE92b
 .data.stm32__spi__receiveE94b
                0x000000002400005e        0x1 /home/badr/hackinvent/Ada_Drivers_Library/boards/stm32h743_nucleo/obj/sfp_lib_Debug/libada_drivers_library.a(stm32-spi.o)
                0x000000002400005e                stm32__spi__receiveE94b
 .data.stm32__spi__transmit_receiveE97b
                0x000000002400005f        0x1 /home/badr/hackinvent/Ada_Drivers_Library/boards/stm32h743_nucleo/obj/sfp_lib_Debug/libada_drivers_library.a(stm32-spi.o)
                0x000000002400005f                stm32__spi__transmit_receiveE97b
 .data.stm32__spi__transmit_receiveE99b
                0x0000000024000060        0x1 /home/badr/hackinvent/Ada_Drivers_Library/boards/stm32h743_nucleo/obj/sfp_lib_Debug/libada_drivers_library.a(stm32-spi.o)
                0x0000000024000060                stm32__spi__transmit_receiveE99b
 .data.stm32__spi__data_rx_register_addressE102b
                0x0000000024000061        0x1 /home/badr/hackinvent/Ada_Drivers_Library/boards/stm32h743_nucleo/obj/sfp_lib_Debug/libada_drivers_library.a(stm32-spi.o)
                0x0000000024000061                stm32__spi__data_rx_register_addressE102b
 .data.stm32__spi__data_tx_register_addressE105b
                0x0000000024000062        0x1 /home/badr/hackinvent/Ada_Drivers_Library/boards/stm32h743_nucleo/obj/sfp_lib_Debug/libada_drivers_library.a(stm32-spi.o)
                0x0000000024000062                stm32__spi__data_tx_register_addressE105b
 .data.stm32__spi__send_receive_16bit_modeE118b
                0x0000000024000063        0x1 /home/badr/hackinvent/Ada_Drivers_Library/boards/stm32h743_nucleo/obj/sfp_lib_Debug/libada_drivers_library.a(stm32-spi.o)
                0x0000000024000063                stm32__spi__send_receive_16bit_modeE118b
 .data.stm32__spi__send_receive_8bit_modeE130b
                0x0000000024000064        0x1 /home/badr/hackinvent/Ada_Drivers_Library/boards/stm32h743_nucleo/obj/sfp_lib_Debug/libada_drivers_library.a(stm32-spi.o)
                0x0000000024000064                stm32__spi__send_receive_8bit_modeE130b
 .data.stm32__spi__send_16bit_modeE135b
                0x0000000024000065        0x1 /home/badr/hackinvent/Ada_Drivers_Library/boards/stm32h743_nucleo/obj/sfp_lib_Debug/libada_drivers_library.a(stm32-spi.o)
                0x0000000024000065                stm32__spi__send_16bit_modeE135b
 .data.stm32__spi__send_8bit_modeE140b
                0x0000000024000066        0x1 /home/badr/hackinvent/Ada_Drivers_Library/boards/stm32h743_nucleo/obj/sfp_lib_Debug/libada_drivers_library.a(stm32-spi.o)
                0x0000000024000066                stm32__spi__send_8bit_modeE140b
 .data.stm32__spi__receive_16bit_modeE145b
                0x0000000024000067        0x1 /home/badr/hackinvent/Ada_Drivers_Library/boards/stm32h743_nucleo/obj/sfp_lib_Debug/libada_drivers_library.a(stm32-spi.o)
                0x0000000024000067                stm32__spi__receive_16bit_modeE145b
 .data.stm32__spi__receive_8bit_modeE150b
                0x0000000024000068        0x1 /home/badr/hackinvent/Ada_Drivers_Library/boards/stm32h743_nucleo/obj/sfp_lib_Debug/libada_drivers_library.a(stm32-spi.o)
                0x0000000024000068                stm32__spi__receive_8bit_modeE150b
 .data          0x0000000024000069        0x0 /home/badr/hackinvent/Ada_Drivers_Library/boards/stm32h743_nucleo/obj/sfp_lib_Debug/libada_drivers_library.a(stm32-syscfg.o)
 *fill*         0x0000000024000069        0x1 
 .data.stm32__syscfg_E
                0x000000002400006a        0x2 /home/badr/hackinvent/Ada_Drivers_Library/boards/stm32h743_nucleo/obj/sfp_lib_Debug/libada_drivers_library.a(stm32-syscfg.o)
                0x000000002400006a                stm32__syscfg_E
 .data          0x000000002400006c        0x0 /home/badr/hackinvent/Ada_Drivers_Library/boards/stm32h743_nucleo/obj/sfp_lib_Debug/libada_drivers_library.a(hal-gpio.o)
 .data.hal__gpio_E
                0x000000002400006c        0x2 /home/badr/hackinvent/Ada_Drivers_Library/boards/stm32h743_nucleo/obj/sfp_lib_Debug/libada_drivers_library.a(hal-gpio.o)
                0x000000002400006c                hal__gpio_E
 .data          0x000000002400006e        0x0 /home/badr/hackinvent/Ada_Drivers_Library/boards/stm32h743_nucleo/obj/sfp_lib_Debug/libada_drivers_library.a(hal-spi.o)
 .data.hal__spi_E
                0x000000002400006e        0x2 /home/badr/hackinvent/Ada_Drivers_Library/boards/stm32h743_nucleo/obj/sfp_lib_Debug/libada_drivers_library.a(hal-spi.o)
                0x000000002400006e                hal__spi_E
 .data          0x0000000024000070        0x0 /home/badr/GNAT/2018-arm-elf/arm-eabi/lib/gnat/ravenscar-sfp-stm32h743nucleo/adalib/libgnarl.a(a-reatim.o)
 .data.ada__real_time_E
                0x0000000024000070        0x2 /home/badr/GNAT/2018-arm-elf/arm-eabi/lib/gnat/ravenscar-sfp-stm32h743nucleo/adalib/libgnarl.a(a-reatim.o)
                0x0000000024000070                ada__real_time_E
 .data          0x0000000024000072        0x0 /home/badr/GNAT/2018-arm-elf/arm-eabi/lib/gnat/ravenscar-sfp-stm32h743nucleo/adalib/libgnarl.a(a-retide.o)
 .data.ada__real_time__delays_E
                0x0000000024000072        0x2 /home/badr/GNAT/2018-arm-elf/arm-eabi/lib/gnat/ravenscar-sfp-stm32h743nucleo/adalib/libgnarl.a(a-retide.o)
                0x0000000024000072                ada__real_time__delays_E
 .data          0x0000000024000074        0x0 /home/badr/GNAT/2018-arm-elf/arm-eabi/lib/gnat/ravenscar-sfp-stm32h743nucleo/adalib/libgnarl.a(s-bbtiev.o)
 .data.system__bb__timing_events_E
                0x0000000024000074        0x2 /home/badr/GNAT/2018-arm-elf/arm-eabi/lib/gnat/ravenscar-sfp-stm32h743nucleo/adalib/libgnarl.a(s-bbtiev.o)
                0x0000000024000074                system__bb__timing_events_E
 .data.system__bb__timing_events__set_handlerE32b
                0x0000000024000076        0x1 /home/badr/GNAT/2018-arm-elf/arm-eabi/lib/gnat/ravenscar-sfp-stm32h743nucleo/adalib/libgnarl.a(s-bbtiev.o)
                0x0000000024000076                system__bb__timing_events__set_handlerE32b
 .data.system__bb__timing_events__cancel_handlerE34b
                0x0000000024000077        0x1 /home/badr/GNAT/2018-arm-elf/arm-eabi/lib/gnat/ravenscar-sfp-stm32h743nucleo/adalib/libgnarl.a(s-bbtiev.o)
                0x0000000024000077                system__bb__timing_events__cancel_handlerE34b
 .data.system__bb__timing_events__time_of_eventE41b
                0x0000000024000078        0x1 /home/badr/GNAT/2018-arm-elf/arm-eabi/lib/gnat/ravenscar-sfp-stm32h743nucleo/adalib/libgnarl.a(s-bbtiev.o)
                0x0000000024000078                system__bb__timing_events__time_of_eventE41b
 *fill*         0x0000000024000079        0x3 
 .data.system__bb__timing_events__events_table
                0x000000002400007c        0x4 /home/badr/GNAT/2018-arm-elf/arm-eabi/lib/gnat/ravenscar-sfp-stm32h743nucleo/adalib/libgnarl.a(s-bbtiev.o)
                0x000000002400007c                system__bb__timing_events__events_table
 .data          0x0000000024000080        0x0 /home/badr/GNAT/2018-arm-elf/arm-eabi/lib/gnat/ravenscar-sfp-stm32h743nucleo/adalib/libgnarl.a(s-bbtime.o)
 .data.system__bb__time__scheduling_event_hook
                0x0000000024000080        0x4 /home/badr/GNAT/2018-arm-elf/arm-eabi/lib/gnat/ravenscar-sfp-stm32h743nucleo/adalib/libgnarl.a(s-bbtime.o)
                0x0000000024000080                system__bb__time__scheduling_event_hook
 .data.system__bb__time__alarm_lock
                0x0000000024000084        0x2 /home/badr/GNAT/2018-arm-elf/arm-eabi/lib/gnat/ravenscar-sfp-stm32h743nucleo/adalib/libgnarl.a(s-bbtime.o)
                0x0000000024000084                system__bb__time__alarm_lock
 *fill*         0x0000000024000086        0x2 
 .data.system__bb__time__software_clock
                0x0000000024000088        0x8 /home/badr/GNAT/2018-arm-elf/arm-eabi/lib/gnat/ravenscar-sfp-stm32h743nucleo/adalib/libgnarl.a(s-bbtime.o)
                0x0000000024000088                system__bb__time__software_clock
 .data.system__bb__time__pending_alarm
                0x0000000024000090        0x8 /home/badr/GNAT/2018-arm-elf/arm-eabi/lib/gnat/ravenscar-sfp-stm32h743nucleo/adalib/libgnarl.a(s-bbtime.o)
                0x0000000024000090                system__bb__time__pending_alarm
 .data.system__bb__time__max_sleep
                0x0000000024000098        0x8 /home/badr/GNAT/2018-arm-elf/arm-eabi/lib/gnat/ravenscar-sfp-stm32h743nucleo/adalib/libgnarl.a(s-bbtime.o)
                0x0000000024000098                system__bb__time__max_sleep
 .data          0x00000000240000a0        0x0 /home/badr/GNAT/2018-arm-elf/arm-eabi/lib/gnat/ravenscar-sfp-stm32h743nucleo/adalib/libgnarl.a(s-taprop.o)
 .data.system__task_primitives__operations__environment_task
                0x00000000240000a0        0x4 /home/badr/GNAT/2018-arm-elf/arm-eabi/lib/gnat/ravenscar-sfp-stm32h743nucleo/adalib/libgnarl.a(s-taprop.o)
                0x00000000240000a0                system__task_primitives__operations__environment_task
 .data          0x00000000240000a4        0x0 /home/badr/GNAT/2018-arm-elf/arm-eabi/lib/gnat/ravenscar-sfp-stm32h743nucleo/adalib/libgnarl.a(s-tasdeb.o)
 .data.system__tasking__debug_E
                0x00000000240000a4        0x2 /home/badr/GNAT/2018-arm-elf/arm-eabi/lib/gnat/ravenscar-sfp-stm32h743nucleo/adalib/libgnarl.a(s-tasdeb.o)
                0x00000000240000a4                system__tasking__debug_E
 *fill*         0x00000000240000a6        0x2 
 .data.system__tasking__debug__first_task
                0x00000000240000a8        0x4 /home/badr/GNAT/2018-arm-elf/arm-eabi/lib/gnat/ravenscar-sfp-stm32h743nucleo/adalib/libgnarl.a(s-tasdeb.o)
                0x00000000240000a8                system__tasking__debug__first_task
 .data.system__tasking__debug__last_task
                0x00000000240000ac        0x4 /home/badr/GNAT/2018-arm-elf/arm-eabi/lib/gnat/ravenscar-sfp-stm32h743nucleo/adalib/libgnarl.a(s-tasdeb.o)
                0x00000000240000ac                system__tasking__debug__last_task
 .data          0x00000000240000b0        0x0 /home/badr/GNAT/2018-arm-elf/arm-eabi/lib/gnat/ravenscar-sfp-stm32h743nucleo/adalib/libgnarl.a(s-taskin.o)
 .data.system__tasking__fall_back_handler
                0x00000000240000b0        0x8 /home/badr/GNAT/2018-arm-elf/arm-eabi/lib/gnat/ravenscar-sfp-stm32h743nucleo/adalib/libgnarl.a(s-taskin.o)
                0x00000000240000b0                system__tasking__fall_back_handler
 .data.__gl_main_priority
                0x00000000240000b8        0x4 /home/badr/GNAT/2018-arm-elf/arm-eabi/lib/gnat/ravenscar-sfp-stm32h743nucleo/adalib/libgnarl.a(s-taskin.o)
                0x00000000240000b8                __gl_main_priority
 .data.__gl_main_cpu
                0x00000000240000bc        0x4 /home/badr/GNAT/2018-arm-elf/arm-eabi/lib/gnat/ravenscar-sfp-stm32h743nucleo/adalib/libgnarl.a(s-taskin.o)
                0x00000000240000bc                __gl_main_cpu
 .data.system__tasking__initialized
                0x00000000240000c0        0x1 /home/badr/GNAT/2018-arm-elf/arm-eabi/lib/gnat/ravenscar-sfp-stm32h743nucleo/adalib/libgnarl.a(s-taskin.o)
 .data          0x00000000240000c1        0x0 /home/badr/GNAT/2018-arm-elf/arm-eabi/lib/gnat/ravenscar-sfp-stm32h743nucleo/adalib/libgnarl.a(s-bbbosu.o)
 .data          0x00000000240000c1        0x0 /home/badr/GNAT/2018-arm-elf/arm-eabi/lib/gnat/ravenscar-sfp-stm32h743nucleo/adalib/libgnarl.a(s-bbcppr.o)
 .data          0x00000000240000c1        0x0 /home/badr/GNAT/2018-arm-elf/arm-eabi/lib/gnat/ravenscar-sfp-stm32h743nucleo/adalib/libgnarl.a(s-bbinte.o)
 *fill*         0x00000000240000c1        0x3 
 .data.system__bb__interrupts__interrupt_being_handled
                0x00000000240000c4        0x4 /home/badr/GNAT/2018-arm-elf/arm-eabi/lib/gnat/ravenscar-sfp-stm32h743nucleo/adalib/libgnarl.a(s-bbinte.o)
                0x00000000240000c4                system__bb__interrupts__interrupt_being_handled
 .data          0x00000000240000c8        0x0 /home/badr/GNAT/2018-arm-elf/arm-eabi/lib/gnat/ravenscar-sfp-stm32h743nucleo/adalib/libgnarl.a(s-bbprot.o)
 .data.system__bb__protection__wakeup_served_entry_callback
                0x00000000240000c8        0x4 /home/badr/GNAT/2018-arm-elf/arm-eabi/lib/gnat/ravenscar-sfp-stm32h743nucleo/adalib/libgnarl.a(s-bbprot.o)
                0x00000000240000c8                system__bb__protection__wakeup_served_entry_callback
 .data          0x00000000240000cc        0x0 /home/badr/GNAT/2018-arm-elf/arm-eabi/lib/gnat/ravenscar-sfp-stm32h743nucleo/adalib/libgnarl.a(s-bbthqu.o)
 .data.__gnat_running_thread_table
                0x00000000240000cc        0x4 /home/badr/GNAT/2018-arm-elf/arm-eabi/lib/gnat/ravenscar-sfp-stm32h743nucleo/adalib/libgnarl.a(s-bbthqu.o)
                0x00000000240000cc                __gnat_running_thread_table
 .data.first_thread_table
                0x00000000240000d0        0x4 /home/badr/GNAT/2018-arm-elf/arm-eabi/lib/gnat/ravenscar-sfp-stm32h743nucleo/adalib/libgnarl.a(s-bbthqu.o)
                0x00000000240000d0                first_thread_table
 .data.system__bb__threads__queues__global_list
                0x00000000240000d4        0x4 /home/badr/GNAT/2018-arm-elf/arm-eabi/lib/gnat/ravenscar-sfp-stm32h743nucleo/adalib/libgnarl.a(s-bbthqu.o)
                0x00000000240000d4                system__bb__threads__queues__global_list
 .data.system__bb__threads__queues__alarms_table
                0x00000000240000d8        0x4 /home/badr/GNAT/2018-arm-elf/arm-eabi/lib/gnat/ravenscar-sfp-stm32h743nucleo/adalib/libgnarl.a(s-bbthqu.o)
                0x00000000240000d8                system__bb__threads__queues__alarms_table
 .data          0x00000000240000dc        0x0 /home/badr/GNAT/2018-arm-elf/arm-eabi/lib/gnat/ravenscar-sfp-stm32h743nucleo/adalib/libgnarl.a(s-bbthre.o)
 .data.system__bb__threads__initialized
                0x00000000240000dc        0x1 /home/badr/GNAT/2018-arm-elf/arm-eabi/lib/gnat/ravenscar-sfp-stm32h743nucleo/adalib/libgnarl.a(s-bbthre.o)
                0x00000000240000dc                system__bb__threads__initialized
 .data          0x00000000240000dd        0x0 /home/badr/GNAT/2018-arm-elf/arm-eabi/lib/gnat/ravenscar-sfp-stm32h743nucleo/adalib/libgnarl.a(s-bcpcst.o)
 .data          0x00000000240000dd        0x0 /home/badr/GNAT/2018-arm-elf/arm-eabi/lib/gnat/ravenscar-sfp-stm32h743nucleo/adalib/libgnarl.a(handler.o)
 .data          0x00000000240000dd        0x0 /home/badr/GNAT/2018-arm-elf/arm-eabi/lib/gnat/ravenscar-sfp-stm32h743nucleo/adalib/libgnat.a(a-elchha.o)
 *fill*         0x00000000240000dd        0x1 
 .data.ada__exceptions__last_chance_handler_E
                0x00000000240000de        0x2 /home/badr/GNAT/2018-arm-elf/arm-eabi/lib/gnat/ravenscar-sfp-stm32h743nucleo/adalib/libgnat.a(a-elchha.o)
                0x00000000240000de                ada__exceptions__last_chance_handler_E
 .data          0x00000000240000e0        0x0 /home/badr/GNAT/2018-arm-elf/arm-eabi/lib/gnat/ravenscar-sfp-stm32h743nucleo/adalib/libgnat.a(a-except.o)
 .data.ada__exceptions_E
                0x00000000240000e0        0x2 /home/badr/GNAT/2018-arm-elf/arm-eabi/lib/gnat/ravenscar-sfp-stm32h743nucleo/adalib/libgnat.a(a-except.o)
                0x00000000240000e0                ada__exceptions_E
 .data          0x00000000240000e2        0x0 /home/badr/GNAT/2018-arm-elf/arm-eabi/lib/gnat/ravenscar-sfp-stm32h743nucleo/adalib/libgnat.a(breakpoint_handler-cortexm.o)
 .data          0x00000000240000e2        0x0 /home/badr/GNAT/2018-arm-elf/arm-eabi/lib/gnat/ravenscar-sfp-stm32h743nucleo/adalib/libgnat.a(g-io.o)
 .data.gnat__io_E
                0x00000000240000e2        0x2 /home/badr/GNAT/2018-arm-elf/arm-eabi/lib/gnat/ravenscar-sfp-stm32h743nucleo/adalib/libgnat.a(g-io.o)
                0x00000000240000e2                gnat__io_E
 .data          0x00000000240000e4        0x0 /home/badr/GNAT/2018-arm-elf/arm-eabi/lib/gnat/ravenscar-sfp-stm32h743nucleo/adalib/libgnat.a(s-assert.o)
 .data.system__assertions_E
                0x00000000240000e4        0x2 /home/badr/GNAT/2018-arm-elf/arm-eabi/lib/gnat/ravenscar-sfp-stm32h743nucleo/adalib/libgnat.a(s-assert.o)
                0x00000000240000e4                system__assertions_E
 *fill*         0x00000000240000e6        0x2 
 .data.system__assertions__assert_failure
                0x00000000240000e8       0x18 /home/badr/GNAT/2018-arm-elf/arm-eabi/lib/gnat/ravenscar-sfp-stm32h743nucleo/adalib/libgnat.a(s-assert.o)
                0x00000000240000e8                system__assertions__assert_failure
 .data          0x0000000024000100        0x0 /home/badr/GNAT/2018-arm-elf/arm-eabi/lib/gnat/ravenscar-sfp-stm32h743nucleo/adalib/libgnat.a(s-macres.o)
 .data.system__machine_reset_E
                0x0000000024000100        0x2 /home/badr/GNAT/2018-arm-elf/arm-eabi/lib/gnat/ravenscar-sfp-stm32h743nucleo/adalib/libgnat.a(s-macres.o)
                0x0000000024000100                system__machine_reset_E
 .data          0x0000000024000102        0x0 /home/badr/GNAT/2018-arm-elf/arm-eabi/lib/gnat/ravenscar-sfp-stm32h743nucleo/adalib/libgnat.a(s-memcop.o)
 .data.system__memory_copy_E
                0x0000000024000102        0x2 /home/badr/GNAT/2018-arm-elf/arm-eabi/lib/gnat/ravenscar-sfp-stm32h743nucleo/adalib/libgnat.a(s-memcop.o)
                0x0000000024000102                system__memory_copy_E
 .data          0x0000000024000104        0x0 /home/badr/GNAT/2018-arm-elf/arm-eabi/lib/gnat/ravenscar-sfp-stm32h743nucleo/adalib/libgnat.a(s-memset.o)
 .data.system__memory_set_E
                0x0000000024000104        0x2 /home/badr/GNAT/2018-arm-elf/arm-eabi/lib/gnat/ravenscar-sfp-stm32h743nucleo/adalib/libgnat.a(s-memset.o)
                0x0000000024000104                system__memory_set_E
 .data          0x0000000024000106        0x0 /home/badr/GNAT/2018-arm-elf/arm-eabi/lib/gnat/ravenscar-sfp-stm32h743nucleo/adalib/libgnat.a(s-parame.o)
 .data.system__parameters_E
                0x0000000024000106        0x2 /home/badr/GNAT/2018-arm-elf/arm-eabi/lib/gnat/ravenscar-sfp-stm32h743nucleo/adalib/libgnat.a(s-parame.o)
                0x0000000024000106                system__parameters_E
 .data          0x0000000024000108        0x0 /home/badr/GNAT/2018-arm-elf/arm-eabi/lib/gnat/ravenscar-sfp-stm32h743nucleo/adalib/libgnat.a(s-secsta.o)
 .data.system__secondary_stack_E
                0x0000000024000108        0x2 /home/badr/GNAT/2018-arm-elf/arm-eabi/lib/gnat/ravenscar-sfp-stm32h743nucleo/adalib/libgnat.a(s-secsta.o)
                0x0000000024000108                system__secondary_stack_E
 *fill*         0x000000002400010a        0x2 
 .data.system__secondary_stack__num_of_assigned_stacks
                0x000000002400010c        0x4 /home/badr/GNAT/2018-arm-elf/arm-eabi/lib/gnat/ravenscar-sfp-stm32h743nucleo/adalib/libgnat.a(s-secsta.o)
                0x000000002400010c                system__secondary_stack__num_of_assigned_stacks
 .data          0x0000000024000110        0x0 /home/badr/GNAT/2018-arm-elf/arm-eabi/lib/gnat/ravenscar-sfp-stm32h743nucleo/adalib/libgnat.a(s-textio.o)
 .data.system__text_io_E
                0x0000000024000110        0x2 /home/badr/GNAT/2018-arm-elf/arm-eabi/lib/gnat/ravenscar-sfp-stm32h743nucleo/adalib/libgnat.a(s-textio.o)
                0x0000000024000110                system__text_io_E
 .data.system__text_io__initialized
                0x0000000024000112        0x1 /home/badr/GNAT/2018-arm-elf/arm-eabi/lib/gnat/ravenscar-sfp-stm32h743nucleo/adalib/libgnat.a(s-textio.o)
                0x0000000024000112                system__text_io__initialized
 .data          0x0000000024000113        0x0 /home/badr/GNAT/2018-arm-elf/arm-eabi/lib/gnat/ravenscar-sfp-stm32h743nucleo/adalib/libgnat.a(start-rom.o)
 .data          0x0000000024000113        0x0 /home/badr/GNAT/2018-arm-elf/arm-eabi/lib/gnat/ravenscar-sfp-stm32h743nucleo/adalib/libgnat.a(s-semiho.o)
 *fill*         0x0000000024000113        0x1 
 .data.system__semihosting_E
                0x0000000024000114        0x2 /home/badr/GNAT/2018-arm-elf/arm-eabi/lib/gnat/ravenscar-sfp-stm32h743nucleo/adalib/libgnat.a(s-semiho.o)
                0x0000000024000114                system__semihosting_E
 .data.system__semihosting__buffer_index
                0x0000000024000116        0x2 /home/badr/GNAT/2018-arm-elf/arm-eabi/lib/gnat/ravenscar-sfp-stm32h743nucleo/adalib/libgnat.a(s-semiho.o)
 .data          0x0000000024000118        0x0 /home/badr/GNAT/2018-arm-elf/arm-eabi/lib/gnat/ravenscar-sfp-stm32h743nucleo/adalib/libgnat.a(start-common.o)
 .data          0x0000000024000118        0x0 /home/badr/GNAT/2018-arm-elf/bin/../lib/gcc/arm-eabi/7.3.1/thumb/v7e-m/fpv5/hard/libgcc.a(_aeabi_ldivmod.o)
 .data          0x0000000024000118        0x0 /home/badr/GNAT/2018-arm-elf/bin/../lib/gcc/arm-eabi/7.3.1/thumb/v7e-m/fpv5/hard/libgcc.a(_aeabi_uldivmod.o)
 .data          0x0000000024000118        0x0 /home/badr/GNAT/2018-arm-elf/bin/../lib/gcc/arm-eabi/7.3.1/thumb/v7e-m/fpv5/hard/libgcc.a(_udivmoddi4.o)
 .data          0x0000000024000118        0x0 /home/badr/GNAT/2018-arm-elf/bin/../lib/gcc/arm-eabi/7.3.1/thumb/v7e-m/fpv5/hard/libgcc.a(_dvmd_tls.o)
                0x0000000024000118                . = ALIGN (0x4)
                0x0000000024000118                __data_end = .
                0x0000000000000046                __data_words = ((__data_end - __data_start) >> 0x2)
                0x000000000800cde8                __ccmdata_load = (__rom_end + (__data_words << 0x2))

.igot.plt       0x0000000024000118        0x0 load address 0x000000000800cde8
 .igot.plt      0x0000000024000118        0x0 spi.o

.ccmdata        0x0000000020000000        0x0 load address 0x000000000800cde8
                0x0000000020000000                __ccmdata_start = .
 *(.ccmdata .ccmdata.*)
                0x0000000020000000                . = ALIGN (0x4)
                0x0000000020000000                __ccmdata_end = .
                0x0000000000000000                __ccmdata_words = ((__ccmdata_end - __ccmdata_start) >> 0x2)

.bss            0x0000000024000118     0x2fa0 load address 0x000000000800cde8
                0x0000000024000118                . = ALIGN (0x8)
                0x0000000024000118                __bss_start = .
 *(.bss .bss.*)
 .bss           0x0000000024000118        0x0 spi.o
 .bss           0x0000000024000118      0x210 b__spi.o
 .bss           0x0000000024000328        0x0 /home/badr/hackinvent/Ada_Drivers_Library/boards/stm32h743_nucleo/obj/sfp_lib_Debug/libada_drivers_library.a(stm32-board.o)
 .bss.stm32__board__all_leds
                0x0000000024000328       0x24 /home/badr/hackinvent/Ada_Drivers_Library/boards/stm32h743_nucleo/obj/sfp_lib_Debug/libada_drivers_library.a(stm32-board.o)
                0x0000000024000328                stm32__board__all_leds
 .bss.stm32__board__spi4_points
                0x000000002400034c       0x24 /home/badr/hackinvent/Ada_Drivers_Library/boards/stm32h743_nucleo/obj/sfp_lib_Debug/libada_drivers_library.a(stm32-board.o)
                0x000000002400034c                stm32__board__spi4_points
 .bss           0x0000000024000370        0x0 /home/badr/hackinvent/Ada_Drivers_Library/boards/stm32h743_nucleo/obj/sfp_lib_Debug/libada_drivers_library.a(stm32-device.o)
 .bss.stm32__device__pa0
                0x0000000024000370        0xc /home/badr/hackinvent/Ada_Drivers_Library/boards/stm32h743_nucleo/obj/sfp_lib_Debug/libada_drivers_library.a(stm32-device.o)
                0x0000000024000370                stm32__device__pa0
 .bss.stm32__device__pa1
                0x000000002400037c        0xc /home/badr/hackinvent/Ada_Drivers_Library/boards/stm32h743_nucleo/obj/sfp_lib_Debug/libada_drivers_library.a(stm32-device.o)
                0x000000002400037c                stm32__device__pa1
 .bss.stm32__device__pa2
                0x0000000024000388        0xc /home/badr/hackinvent/Ada_Drivers_Library/boards/stm32h743_nucleo/obj/sfp_lib_Debug/libada_drivers_library.a(stm32-device.o)
                0x0000000024000388                stm32__device__pa2
 .bss.stm32__device__pa3
                0x0000000024000394        0xc /home/badr/hackinvent/Ada_Drivers_Library/boards/stm32h743_nucleo/obj/sfp_lib_Debug/libada_drivers_library.a(stm32-device.o)
                0x0000000024000394                stm32__device__pa3
 .bss.stm32__device__pa4
                0x00000000240003a0        0xc /home/badr/hackinvent/Ada_Drivers_Library/boards/stm32h743_nucleo/obj/sfp_lib_Debug/libada_drivers_library.a(stm32-device.o)
                0x00000000240003a0                stm32__device__pa4
 .bss.stm32__device__pa5
                0x00000000240003ac        0xc /home/badr/hackinvent/Ada_Drivers_Library/boards/stm32h743_nucleo/obj/sfp_lib_Debug/libada_drivers_library.a(stm32-device.o)
                0x00000000240003ac                stm32__device__pa5
 .bss.stm32__device__pa6
                0x00000000240003b8        0xc /home/badr/hackinvent/Ada_Drivers_Library/boards/stm32h743_nucleo/obj/sfp_lib_Debug/libada_drivers_library.a(stm32-device.o)
                0x00000000240003b8                stm32__device__pa6
 .bss.stm32__device__pa7
                0x00000000240003c4        0xc /home/badr/hackinvent/Ada_Drivers_Library/boards/stm32h743_nucleo/obj/sfp_lib_Debug/libada_drivers_library.a(stm32-device.o)
                0x00000000240003c4                stm32__device__pa7
 .bss.stm32__device__pa8
                0x00000000240003d0        0xc /home/badr/hackinvent/Ada_Drivers_Library/boards/stm32h743_nucleo/obj/sfp_lib_Debug/libada_drivers_library.a(stm32-device.o)
                0x00000000240003d0                stm32__device__pa8
 .bss.stm32__device__pa9
                0x00000000240003dc        0xc /home/badr/hackinvent/Ada_Drivers_Library/boards/stm32h743_nucleo/obj/sfp_lib_Debug/libada_drivers_library.a(stm32-device.o)
                0x00000000240003dc                stm32__device__pa9
 .bss.stm32__device__pa10
                0x00000000240003e8        0xc /home/badr/hackinvent/Ada_Drivers_Library/boards/stm32h743_nucleo/obj/sfp_lib_Debug/libada_drivers_library.a(stm32-device.o)
                0x00000000240003e8                stm32__device__pa10
 .bss.stm32__device__pa11
                0x00000000240003f4        0xc /home/badr/hackinvent/Ada_Drivers_Library/boards/stm32h743_nucleo/obj/sfp_lib_Debug/libada_drivers_library.a(stm32-device.o)
                0x00000000240003f4                stm32__device__pa11
 .bss.stm32__device__pa12
                0x0000000024000400        0xc /home/badr/hackinvent/Ada_Drivers_Library/boards/stm32h743_nucleo/obj/sfp_lib_Debug/libada_drivers_library.a(stm32-device.o)
                0x0000000024000400                stm32__device__pa12
 .bss.stm32__device__pa13
                0x000000002400040c        0xc /home/badr/hackinvent/Ada_Drivers_Library/boards/stm32h743_nucleo/obj/sfp_lib_Debug/libada_drivers_library.a(stm32-device.o)
                0x000000002400040c                stm32__device__pa13
 .bss.stm32__device__pa14
                0x0000000024000418        0xc /home/badr/hackinvent/Ada_Drivers_Library/boards/stm32h743_nucleo/obj/sfp_lib_Debug/libada_drivers_library.a(stm32-device.o)
                0x0000000024000418                stm32__device__pa14
 .bss.stm32__device__pa15
                0x0000000024000424        0xc /home/badr/hackinvent/Ada_Drivers_Library/boards/stm32h743_nucleo/obj/sfp_lib_Debug/libada_drivers_library.a(stm32-device.o)
                0x0000000024000424                stm32__device__pa15
 .bss.stm32__device__pb0
                0x0000000024000430        0xc /home/badr/hackinvent/Ada_Drivers_Library/boards/stm32h743_nucleo/obj/sfp_lib_Debug/libada_drivers_library.a(stm32-device.o)
                0x0000000024000430                stm32__device(bool *, )
 .bss.stm32__device__pb1
                0x000000002400043c        0xc /home/badr/hackinvent/Ada_Drivers_Library/boards/stm32h743_nucleo/obj/sfp_lib_Debug/libada_drivers_library.a(stm32-device.o)
                0x000000002400043c                stm32__device__pb1
 .bss.stm32__device__pb2
                0x0000000024000448        0xc /home/badr/hackinvent/Ada_Drivers_Library/boards/stm32h743_nucleo/obj/sfp_lib_Debug/libada_drivers_library.a(stm32-device.o)
                0x0000000024000448                stm32__device__pb2
 .bss.stm32__device__pb3
                0x0000000024000454        0xc /home/badr/hackinvent/Ada_Drivers_Library/boards/stm32h743_nucleo/obj/sfp_lib_Debug/libada_drivers_library.a(stm32-device.o)
                0x0000000024000454                stm32__device__pb3
 .bss.stm32__device__pb4
                0x0000000024000460        0xc /home/badr/hackinvent/Ada_Drivers_Library/boards/stm32h743_nucleo/obj/sfp_lib_Debug/libada_drivers_library.a(stm32-device.o)
                0x0000000024000460                stm32__device__pb4
 .bss.stm32__device__pb5
                0x000000002400046c        0xc /home/badr/hackinvent/Ada_Drivers_Library/boards/stm32h743_nucleo/obj/sfp_lib_Debug/libada_drivers_library.a(stm32-device.o)
                0x000000002400046c                stm32__device__pb5
 .bss.stm32__device__pb6
                0x0000000024000478        0xc /home/badr/hackinvent/Ada_Drivers_Library/boards/stm32h743_nucleo/obj/sfp_lib_Debug/libada_drivers_library.a(stm32-device.o)
                0x0000000024000478                stm32__device__pb6
 .bss.stm32__device__pb7
                0x0000000024000484        0xc /home/badr/hackinvent/Ada_Drivers_Library/boards/stm32h743_nucleo/obj/sfp_lib_Debug/libada_drivers_library.a(stm32-device.o)
                0x0000000024000484                stm32__device__pb7
 .bss.stm32__device__pb8
                0x0000000024000490        0xc /home/badr/hackinvent/Ada_Drivers_Library/boards/stm32h743_nucleo/obj/sfp_lib_Debug/libada_drivers_library.a(stm32-device.o)
                0x0000000024000490                stm32__device__pb8
 .bss.stm32__device__pb9
                0x000000002400049c        0xc /home/badr/hackinvent/Ada_Drivers_Library/boards/stm32h743_nucleo/obj/sfp_lib_Debug/libada_drivers_library.a(stm32-device.o)
                0x000000002400049c                stm32__device__pb9
 .bss.stm32__device__pb10
                0x00000000240004a8        0xc /home/badr/hackinvent/Ada_Drivers_Library/boards/stm32h743_nucleo/obj/sfp_lib_Debug/libada_drivers_library.a(stm32-device.o)
                0x00000000240004a8                stm32__device__pb10
 .bss.stm32__device__pb11
                0x00000000240004b4        0xc /home/badr/hackinvent/Ada_Drivers_Library/boards/stm32h743_nucleo/obj/sfp_lib_Debug/libada_drivers_library.a(stm32-device.o)
                0x00000000240004b4                stm32__device__pb11
 .bss.stm32__device__pb12
                0x00000000240004c0        0xc /home/badr/hackinvent/Ada_Drivers_Library/boards/stm32h743_nucleo/obj/sfp_lib_Debug/libada_drivers_library.a(stm32-device.o)
                0x00000000240004c0                stm32__device__pb12
 .bss.stm32__device__pb13
                0x00000000240004cc        0xc /home/badr/hackinvent/Ada_Drivers_Library/boards/stm32h743_nucleo/obj/sfp_lib_Debug/libada_drivers_library.a(stm32-device.o)
                0x00000000240004cc                stm32__device__pb13
 .bss.stm32__device__pb14
                0x00000000240004d8        0xc /home/badr/hackinvent/Ada_Drivers_Library/boards/stm32h743_nucleo/obj/sfp_lib_Debug/libada_drivers_library.a(stm32-device.o)
                0x00000000240004d8                stm32__device__pb14
 .bss.stm32__device__pb15
                0x00000000240004e4        0xc /home/badr/hackinvent/Ada_Drivers_Library/boards/stm32h743_nucleo/obj/sfp_lib_Debug/libada_drivers_library.a(stm32-device.o)
                0x00000000240004e4                stm32__device__pb15
 .bss.stm32__device__pc0
                0x00000000240004f0        0xc /home/badr/hackinvent/Ada_Drivers_Library/boards/stm32h743_nucleo/obj/sfp_lib_Debug/libada_drivers_library.a(stm32-device.o)
                0x00000000240004f0                stm32__device(char *, )
 .bss.stm32__device__pc1
                0x00000000240004fc        0xc /home/badr/hackinvent/Ada_Drivers_Library/boards/stm32h743_nucleo/obj/sfp_lib_Debug/libada_drivers_library.a(stm32-device.o)
                0x00000000240004fc                stm32__device__pc1
 .bss.stm32__device__pc2
                0x0000000024000508        0xc /home/badr/hackinvent/Ada_Drivers_Library/boards/stm32h743_nucleo/obj/sfp_lib_Debug/libada_drivers_library.a(stm32-device.o)
                0x0000000024000508                stm32__device__pc2
 .bss.stm32__device__pc3
                0x0000000024000514        0xc /home/badr/hackinvent/Ada_Drivers_Library/boards/stm32h743_nucleo/obj/sfp_lib_Debug/libada_drivers_library.a(stm32-device.o)
                0x0000000024000514                stm32__device__pc3
 .bss.stm32__device__pc4
                0x0000000024000520        0xc /home/badr/hackinvent/Ada_Drivers_Library/boards/stm32h743_nucleo/obj/sfp_lib_Debug/libada_drivers_library.a(stm32-device.o)
                0x0000000024000520                stm32__device__pc4
 .bss.stm32__device__pc5
                0x000000002400052c        0xc /home/badr/hackinvent/Ada_Drivers_Library/boards/stm32h743_nucleo/obj/sfp_lib_Debug/libada_drivers_library.a(stm32-device.o)
                0x000000002400052c                stm32__device__pc5
 .bss.stm32__device__pc6
                0x0000000024000538        0xc /home/badr/hackinvent/Ada_Drivers_Library/boards/stm32h743_nucleo/obj/sfp_lib_Debug/libada_drivers_library.a(stm32-device.o)
                0x0000000024000538                stm32__device__pc6
 .bss.stm32__device__pc7
                0x0000000024000544        0xc /home/badr/hackinvent/Ada_Drivers_Library/boards/stm32h743_nucleo/obj/sfp_lib_Debug/libada_drivers_library.a(stm32-device.o)
                0x0000000024000544                stm32__device__pc7
 .bss.stm32__device__pc8
                0x0000000024000550        0xc /home/badr/hackinvent/Ada_Drivers_Library/boards/stm32h743_nucleo/obj/sfp_lib_Debug/libada_drivers_library.a(stm32-device.o)
                0x0000000024000550                stm32__device__pc8
 .bss.stm32__device__pc9
                0x000000002400055c        0xc /home/badr/hackinvent/Ada_Drivers_Library/boards/stm32h743_nucleo/obj/sfp_lib_Debug/libada_drivers_library.a(stm32-device.o)
                0x000000002400055c                stm32__device__pc9
 .bss.stm32__device__pc10
                0x0000000024000568        0xc /home/badr/hackinvent/Ada_Drivers_Library/boards/stm32h743_nucleo/obj/sfp_lib_Debug/libada_drivers_library.a(stm32-device.o)
                0x0000000024000568                stm32__device__pc10
 .bss.stm32__device__pc11
                0x0000000024000574        0xc /home/badr/hackinvent/Ada_Drivers_Library/boards/stm32h743_nucleo/obj/sfp_lib_Debug/libada_drivers_library.a(stm32-device.o)
                0x0000000024000574                stm32__device__pc11
 .bss.stm32__device__pc12
                0x0000000024000580        0xc /home/badr/hackinvent/Ada_Drivers_Library/boards/stm32h743_nucleo/obj/sfp_lib_Debug/libada_drivers_library.a(stm32-device.o)
                0x0000000024000580                stm32__device__pc12
 .bss.stm32__device__pc13
                0x000000002400058c        0xc /home/badr/hackinvent/Ada_Drivers_Library/boards/stm32h743_nucleo/obj/sfp_lib_Debug/libada_drivers_library.a(stm32-device.o)
                0x000000002400058c                stm32__device__pc13
 .bss.stm32__device__pc14
                0x0000000024000598        0xc /home/badr/hackinvent/Ada_Drivers_Library/boards/stm32h743_nucleo/obj/sfp_lib_Debug/libada_drivers_library.a(stm32-device.o)
                0x0000000024000598                stm32__device__pc14
 .bss.stm32__device__pc15
                0x00000000240005a4        0xc /home/badr/hackinvent/Ada_Drivers_Library/boards/stm32h743_nucleo/obj/sfp_lib_Debug/libada_drivers_library.a(stm32-device.o)
                0x00000000240005a4                stm32__device__pc15
 .bss.stm32__device__pd0
                0x00000000240005b0        0xc /home/badr/hackinvent/Ada_Drivers_Library/boards/stm32h743_nucleo/obj/sfp_lib_Debug/libada_drivers_library.a(stm32-device.o)
                0x00000000240005b0                stm32__device(double *, )
 .bss.stm32__device__pd1
                0x00000000240005bc        0xc /home/badr/hackinvent/Ada_Drivers_Library/boards/stm32h743_nucleo/obj/sfp_lib_Debug/libada_drivers_library.a(stm32-device.o)
                0x00000000240005bc                stm32__device__pd1
 .bss.stm32__device__pd2
                0x00000000240005c8        0xc /home/badr/hackinvent/Ada_Drivers_Library/boards/stm32h743_nucleo/obj/sfp_lib_Debug/libada_drivers_library.a(stm32-device.o)
                0x00000000240005c8                stm32__device__pd2
 .bss.stm32__device__pd3
                0x00000000240005d4        0xc /home/badr/hackinvent/Ada_Drivers_Library/boards/stm32h743_nucleo/obj/sfp_lib_Debug/libada_drivers_library.a(stm32-device.o)
                0x00000000240005d4                stm32__device__pd3
 .bss.stm32__device__pd4
                0x00000000240005e0        0xc /home/badr/hackinvent/Ada_Drivers_Library/boards/stm32h743_nucleo/obj/sfp_lib_Debug/libada_drivers_library.a(stm32-device.o)
                0x00000000240005e0                stm32__device__pd4
 .bss.stm32__device__pd5
                0x00000000240005ec        0xc /home/badr/hackinvent/Ada_Drivers_Library/boards/stm32h743_nucleo/obj/sfp_lib_Debug/libada_drivers_library.a(stm32-device.o)
                0x00000000240005ec                stm32__device__pd5
 .bss.stm32__device__pd6
                0x00000000240005f8        0xc /home/badr/hackinvent/Ada_Drivers_Library/boards/stm32h743_nucleo/obj/sfp_lib_Debug/libada_drivers_library.a(stm32-device.o)
                0x00000000240005f8                stm32__device__pd6
 .bss.stm32__device__pd7
                0x0000000024000604        0xc /home/badr/hackinvent/Ada_Drivers_Library/boards/stm32h743_nucleo/obj/sfp_lib_Debug/libada_drivers_library.a(stm32-device.o)
                0x0000000024000604                stm32__device__pd7
 .bss.stm32__device__pd8
                0x0000000024000610        0xc /home/badr/hackinvent/Ada_Drivers_Library/boards/stm32h743_nucleo/obj/sfp_lib_Debug/libada_drivers_library.a(stm32-device.o)
                0x0000000024000610                stm32__device__pd8
 .bss.stm32__device__pd9
                0x000000002400061c        0xc /home/badr/hackinvent/Ada_Drivers_Library/boards/stm32h743_nucleo/obj/sfp_lib_Debug/libada_drivers_library.a(stm32-device.o)
                0x000000002400061c                stm32__device__pd9
 .bss.stm32__device__pd10
                0x0000000024000628        0xc /home/badr/hackinvent/Ada_Drivers_Library/boards/stm32h743_nucleo/obj/sfp_lib_Debug/libada_drivers_library.a(stm32-device.o)
                0x0000000024000628                stm32__device__pd10
 .bss.stm32__device__pd11
                0x0000000024000634        0xc /home/badr/hackinvent/Ada_Drivers_Library/boards/stm32h743_nucleo/obj/sfp_lib_Debug/libada_drivers_library.a(stm32-device.o)
                0x0000000024000634                stm32__device__pd11
 .bss.stm32__device__pd12
                0x0000000024000640        0xc /home/badr/hackinvent/Ada_Drivers_Library/boards/stm32h743_nucleo/obj/sfp_lib_Debug/libada_drivers_library.a(stm32-device.o)
                0x0000000024000640                stm32__device__pd12
 .bss.stm32__device__pd13
                0x000000002400064c        0xc /home/badr/hackinvent/Ada_Drivers_Library/boards/stm32h743_nucleo/obj/sfp_lib_Debug/libada_drivers_library.a(stm32-device.o)
                0x000000002400064c                stm32__device__pd13
 .bss.stm32__device__pd14
                0x0000000024000658        0xc /home/badr/hackinvent/Ada_Drivers_Library/boards/stm32h743_nucleo/obj/sfp_lib_Debug/libada_drivers_library.a(stm32-device.o)
                0x0000000024000658                stm32__device__pd14
 .bss.stm32__device__pd15
                0x0000000024000664        0xc /home/badr/hackinvent/Ada_Drivers_Library/boards/stm32h743_nucleo/obj/sfp_lib_Debug/libada_drivers_library.a(stm32-device.o)
                0x0000000024000664                stm32__device__pd15
 .bss.stm32__device__pe0
                0x0000000024000670        0xc /home/badr/hackinvent/Ada_Drivers_Library/boards/stm32h743_nucleo/obj/sfp_lib_Debug/libada_drivers_library.a(stm32-device.o)
                0x0000000024000670                stm32__device__pe0
 .bss.stm32__device__pe1
                0x000000002400067c        0xc /home/badr/hackinvent/Ada_Drivers_Library/boards/stm32h743_nucleo/obj/sfp_lib_Debug/libada_drivers_library.a(stm32-device.o)
                0x000000002400067c                stm32__device__pe1
 .bss.stm32__device__pe2
                0x0000000024000688        0xc /home/badr/hackinvent/Ada_Drivers_Library/boards/stm32h743_nucleo/obj/sfp_lib_Debug/libada_drivers_library.a(stm32-device.o)
                0x0000000024000688                stm32__device__pe2
 .bss.stm32__device__pe3
                0x0000000024000694        0xc /home/badr/hackinvent/Ada_Drivers_Library/boards/stm32h743_nucleo/obj/sfp_lib_Debug/libada_drivers_library.a(stm32-device.o)
                0x0000000024000694                stm32__device__pe3
 .bss.stm32__device__pe4
                0x00000000240006a0        0xc /home/badr/hackinvent/Ada_Drivers_Library/boards/stm32h743_nucleo/obj/sfp_lib_Debug/libada_drivers_library.a(stm32-device.o)
                0x00000000240006a0                stm32__device__pe4
 .bss.stm32__device__pe5
                0x00000000240006ac        0xc /home/badr/hackinvent/Ada_Drivers_Library/boards/stm32h743_nucleo/obj/sfp_lib_Debug/libada_drivers_library.a(stm32-device.o)
                0x00000000240006ac                stm32__device__pe5
 .bss.stm32__device__pe6
                0x00000000240006b8        0xc /home/badr/hackinvent/Ada_Drivers_Library/boards/stm32h743_nucleo/obj/sfp_lib_Debug/libada_drivers_library.a(stm32-device.o)
                0x00000000240006b8                stm32__device__pe6
 .bss.stm32__device__pe7
                0x00000000240006c4        0xc /home/badr/hackinvent/Ada_Drivers_Library/boards/stm32h743_nucleo/obj/sfp_lib_Debug/libada_drivers_library.a(stm32-device.o)
                0x00000000240006c4                stm32__device__pe7
 .bss.stm32__device__pe8
                0x00000000240006d0        0xc /home/badr/hackinvent/Ada_Drivers_Library/boards/stm32h743_nucleo/obj/sfp_lib_Debug/libada_drivers_library.a(stm32-device.o)
                0x00000000240006d0                stm32__device__pe8
 .bss.stm32__device__pe9
                0x00000000240006dc        0xc /home/badr/hackinvent/Ada_Drivers_Library/boards/stm32h743_nucleo/obj/sfp_lib_Debug/libada_drivers_library.a(stm32-device.o)
                0x00000000240006dc                stm32__device__pe9
 .bss.stm32__device__pe10
                0x00000000240006e8        0xc /home/badr/hackinvent/Ada_Drivers_Library/boards/stm32h743_nucleo/obj/sfp_lib_Debug/libada_drivers_library.a(stm32-device.o)
                0x00000000240006e8                stm32__device__pe10
 .bss.stm32__device__pe11
                0x00000000240006f4        0xc /home/badr/hackinvent/Ada_Drivers_Library/boards/stm32h743_nucleo/obj/sfp_lib_Debug/libada_drivers_library.a(stm32-device.o)
                0x00000000240006f4                stm32__device__pe11
 .bss.stm32__device__pe12
                0x0000000024000700        0xc /home/badr/hackinvent/Ada_Drivers_Library/boards/stm32h743_nucleo/obj/sfp_lib_Debug/libada_drivers_library.a(stm32-device.o)
                0x0000000024000700                stm32__device__pe12
 .bss.stm32__device__pe13
                0x000000002400070c        0xc /home/badr/hackinvent/Ada_Drivers_Library/boards/stm32h743_nucleo/obj/sfp_lib_Debug/libada_drivers_library.a(stm32-device.o)
                0x000000002400070c                stm32__device__pe13
 .bss.stm32__device__pe14
                0x0000000024000718        0xc /home/badr/hackinvent/Ada_Drivers_Library/boards/stm32h743_nucleo/obj/sfp_lib_Debug/libada_drivers_library.a(stm32-device.o)
                0x0000000024000718                stm32__device__pe14
 .bss.stm32__device__pe15
                0x0000000024000724        0xc /home/badr/hackinvent/Ada_Drivers_Library/boards/stm32h743_nucleo/obj/sfp_lib_Debug/libada_drivers_library.a(stm32-device.o)
                0x0000000024000724                stm32__device__pe15
 .bss.stm32__device__pf0
                0x0000000024000730        0xc /home/badr/hackinvent/Ada_Drivers_Library/boards/stm32h743_nucleo/obj/sfp_lib_Debug/libada_drivers_library.a(stm32-device.o)
                0x0000000024000730                stm32__device(float *, )
 .bss.stm32__device__pf1
                0x000000002400073c        0xc /home/badr/hackinvent/Ada_Drivers_Library/boards/stm32h743_nucleo/obj/sfp_lib_Debug/libada_drivers_library.a(stm32-device.o)
                0x000000002400073c                stm32__device__pf1
 .bss.stm32__device__pf2
                0x0000000024000748        0xc /home/badr/hackinvent/Ada_Drivers_Library/boards/stm32h743_nucleo/obj/sfp_lib_Debug/libada_drivers_library.a(stm32-device.o)
                0x0000000024000748                stm32__device__pf2
 .bss.stm32__device__pf3
                0x0000000024000754        0xc /home/badr/hackinvent/Ada_Drivers_Library/boards/stm32h743_nucleo/obj/sfp_lib_Debug/libada_drivers_library.a(stm32-device.o)
                0x0000000024000754                stm32__device__pf3
 .bss.stm32__device__pf4
                0x0000000024000760        0xc /home/badr/hackinvent/Ada_Drivers_Library/boards/stm32h743_nucleo/obj/sfp_lib_Debug/libada_drivers_library.a(stm32-device.o)
                0x0000000024000760                stm32__device__pf4
 .bss.stm32__device__pf5
                0x000000002400076c        0xc /home/badr/hackinvent/Ada_Drivers_Library/boards/stm32h743_nucleo/obj/sfp_lib_Debug/libada_drivers_library.a(stm32-device.o)
                0x000000002400076c                stm32__device__pf5
 .bss.stm32__device__pf6
                0x0000000024000778        0xc /home/badr/hackinvent/Ada_Drivers_Library/boards/stm32h743_nucleo/obj/sfp_lib_Debug/libada_drivers_library.a(stm32-device.o)
                0x0000000024000778                stm32__device__pf6
 .bss.stm32__device__pf7
                0x0000000024000784        0xc /home/badr/hackinvent/Ada_Drivers_Library/boards/stm32h743_nucleo/obj/sfp_lib_Debug/libada_drivers_library.a(stm32-device.o)
                0x0000000024000784                stm32__device__pf7
 .bss.stm32__device__pf8
                0x0000000024000790        0xc /home/badr/hackinvent/Ada_Drivers_Library/boards/stm32h743_nucleo/obj/sfp_lib_Debug/libada_drivers_library.a(stm32-device.o)
                0x0000000024000790                stm32__device__pf8
 .bss.stm32__device__pf9
                0x000000002400079c        0xc /home/badr/hackinvent/Ada_Drivers_Library/boards/stm32h743_nucleo/obj/sfp_lib_Debug/libada_drivers_library.a(stm32-device.o)
                0x000000002400079c                stm32__device__pf9
 .bss.stm32__device__pf10
                0x00000000240007a8        0xc /home/badr/hackinvent/Ada_Drivers_Library/boards/stm32h743_nucleo/obj/sfp_lib_Debug/libada_drivers_library.a(stm32-device.o)
                0x00000000240007a8                stm32__device__pf10
 .bss.stm32__device__pf11
                0x00000000240007b4        0xc /home/badr/hackinvent/Ada_Drivers_Library/boards/stm32h743_nucleo/obj/sfp_lib_Debug/libada_drivers_library.a(stm32-device.o)
                0x00000000240007b4                stm32__device__pf11
 .bss.stm32__device__pf12
                0x00000000240007c0        0xc /home/badr/hackinvent/Ada_Drivers_Library/boards/stm32h743_nucleo/obj/sfp_lib_Debug/libada_drivers_library.a(stm32-device.o)
                0x00000000240007c0                stm32__device__pf12
 .bss.stm32__device__pf13
                0x00000000240007cc        0xc /home/badr/hackinvent/Ada_Drivers_Library/boards/stm32h743_nucleo/obj/sfp_lib_Debug/libada_drivers_library.a(stm32-device.o)
                0x00000000240007cc                stm32__device__pf13
 .bss.stm32__device__pf14
                0x00000000240007d8        0xc /home/badr/hackinvent/Ada_Drivers_Library/boards/stm32h743_nucleo/obj/sfp_lib_Debug/libada_drivers_library.a(stm32-device.o)
                0x00000000240007d8                stm32__device__pf14
 .bss.stm32__device__pf15
                0x00000000240007e4        0xc /home/badr/hackinvent/Ada_Drivers_Library/boards/stm32h743_nucleo/obj/sfp_lib_Debug/libada_drivers_library.a(stm32-device.o)
                0x00000000240007e4                stm32__device__pf15
 .bss.stm32__device__pg0
                0x00000000240007f0        0xc /home/badr/hackinvent/Ada_Drivers_Library/boards/stm32h743_nucleo/obj/sfp_lib_Debug/libada_drivers_library.a(stm32-device.o)
                0x00000000240007f0                stm32__device__pg0
 .bss.stm32__device__pg1
                0x00000000240007fc        0xc /home/badr/hackinvent/Ada_Drivers_Library/boards/stm32h743_nucleo/obj/sfp_lib_Debug/libada_drivers_library.a(stm32-device.o)
                0x00000000240007fc                stm32__device__pg1
 .bss.stm32__device__pg2
                0x0000000024000808        0xc /home/badr/hackinvent/Ada_Drivers_Library/boards/stm32h743_nucleo/obj/sfp_lib_Debug/libada_drivers_library.a(stm32-device.o)
                0x0000000024000808                stm32__device__pg2
 .bss.stm32__device__pg3
                0x0000000024000814        0xc /home/badr/hackinvent/Ada_Drivers_Library/boards/stm32h743_nucleo/obj/sfp_lib_Debug/libada_drivers_library.a(stm32-device.o)
                0x0000000024000814                stm32__device__pg3
 .bss.stm32__device__pg4
                0x0000000024000820        0xc /home/badr/hackinvent/Ada_Drivers_Library/boards/stm32h743_nucleo/obj/sfp_lib_Debug/libada_drivers_library.a(stm32-device.o)
                0x0000000024000820                stm32__device__pg4
 .bss.stm32__device__pg5
                0x000000002400082c        0xc /home/badr/hackinvent/Ada_Drivers_Library/boards/stm32h743_nucleo/obj/sfp_lib_Debug/libada_drivers_library.a(stm32-device.o)
                0x000000002400082c                stm32__device__pg5
 .bss.stm32__device__pg6
                0x0000000024000838        0xc /home/badr/hackinvent/Ada_Drivers_Library/boards/stm32h743_nucleo/obj/sfp_lib_Debug/libada_drivers_library.a(stm32-device.o)
                0x0000000024000838                stm32__device__pg6
 .bss.stm32__device__pg7
                0x0000000024000844        0xc /home/badr/hackinvent/Ada_Drivers_Library/boards/stm32h743_nucleo/obj/sfp_lib_Debug/libada_drivers_library.a(stm32-device.o)
                0x0000000024000844                stm32__device__pg7
 .bss.stm32__device__pg8
                0x0000000024000850        0xc /home/badr/hackinvent/Ada_Drivers_Library/boards/stm32h743_nucleo/obj/sfp_lib_Debug/libada_drivers_library.a(stm32-device.o)
                0x0000000024000850                stm32__device__pg8
 .bss.stm32__device__pg9
                0x000000002400085c        0xc /home/badr/hackinvent/Ada_Drivers_Library/boards/stm32h743_nucleo/obj/sfp_lib_Debug/libada_drivers_library.a(stm32-device.o)
                0x000000002400085c                stm32__device__pg9
 .bss.stm32__device__pg10
                0x0000000024000868        0xc /home/badr/hackinvent/Ada_Drivers_Library/boards/stm32h743_nucleo/obj/sfp_lib_Debug/libada_drivers_library.a(stm32-device.o)
                0x0000000024000868                stm32__device__pg10
 .bss.stm32__device__pg11
                0x0000000024000874        0xc /home/badr/hackinvent/Ada_Drivers_Library/boards/stm32h743_nucleo/obj/sfp_lib_Debug/libada_drivers_library.a(stm32-device.o)
                0x0000000024000874                stm32__device__pg11
 .bss.stm32__device__pg12
                0x0000000024000880        0xc /home/badr/hackinvent/Ada_Drivers_Library/boards/stm32h743_nucleo/obj/sfp_lib_Debug/libada_drivers_library.a(stm32-device.o)
                0x0000000024000880                stm32__device__pg12
 .bss.stm32__device__pg13
                0x000000002400088c        0xc /home/badr/hackinvent/Ada_Drivers_Library/boards/stm32h743_nucleo/obj/sfp_lib_Debug/libada_drivers_library.a(stm32-device.o)
                0x000000002400088c                stm32__device__pg13
 .bss.stm32__device__pg14
                0x0000000024000898        0xc /home/badr/hackinvent/Ada_Drivers_Library/boards/stm32h743_nucleo/obj/sfp_lib_Debug/libada_drivers_library.a(stm32-device.o)
                0x0000000024000898                stm32__device__pg14
 .bss.stm32__device__pg15
                0x00000000240008a4        0xc /home/badr/hackinvent/Ada_Drivers_Library/boards/stm32h743_nucleo/obj/sfp_lib_Debug/libada_drivers_library.a(stm32-device.o)
                0x00000000240008a4                stm32__device__pg15
 .bss.stm32__device__ph0
                0x00000000240008b0        0xc /home/badr/hackinvent/Ada_Drivers_Library/boards/stm32h743_nucleo/obj/sfp_lib_Debug/libada_drivers_library.a(stm32-device.o)
                0x00000000240008b0                stm32__device__ph0
 .bss.stm32__device__ph1
                0x00000000240008bc        0xc /home/badr/hackinvent/Ada_Drivers_Library/boards/stm32h743_nucleo/obj/sfp_lib_Debug/libada_drivers_library.a(stm32-device.o)
                0x00000000240008bc                stm32__device__ph1
 .bss.stm32__device__ph2
                0x00000000240008c8        0xc /home/badr/hackinvent/Ada_Drivers_Library/boards/stm32h743_nucleo/obj/sfp_lib_Debug/libada_drivers_library.a(stm32-device.o)
                0x00000000240008c8                stm32__device__ph2
 .bss.stm32__device__ph3
                0x00000000240008d4        0xc /home/badr/hackinvent/Ada_Drivers_Library/boards/stm32h743_nucleo/obj/sfp_lib_Debug/libada_drivers_library.a(stm32-device.o)
                0x00000000240008d4                stm32__device__ph3
 .bss.stm32__device__ph4
                0x00000000240008e0        0xc /home/badr/hackinvent/Ada_Drivers_Library/boards/stm32h743_nucleo/obj/sfp_lib_Debug/libada_drivers_library.a(stm32-device.o)
                0x00000000240008e0                stm32__device__ph4
 .bss.stm32__device__ph5
                0x00000000240008ec        0xc /home/badr/hackinvent/Ada_Drivers_Library/boards/stm32h743_nucleo/obj/sfp_lib_Debug/libada_drivers_library.a(stm32-device.o)
                0x00000000240008ec                stm32__device__ph5
 .bss.stm32__device__ph6
                0x00000000240008f8        0xc /home/badr/hackinvent/Ada_Drivers_Library/boards/stm32h743_nucleo/obj/sfp_lib_Debug/libada_drivers_library.a(stm32-device.o)
                0x00000000240008f8                stm32__device__ph6
 .bss.stm32__device__ph7
                0x0000000024000904        0xc /home/badr/hackinvent/Ada_Drivers_Library/boards/stm32h743_nucleo/obj/sfp_lib_Debug/libada_drivers_library.a(stm32-device.o)
                0x0000000024000904                stm32__device__ph7
 .bss.stm32__device__ph8
                0x0000000024000910        0xc /home/badr/hackinvent/Ada_Drivers_Library/boards/stm32h743_nucleo/obj/sfp_lib_Debug/libada_drivers_library.a(stm32-device.o)
                0x0000000024000910                stm32__device__ph8
 .bss.stm32__device__ph9
                0x000000002400091c        0xc /home/badr/hackinvent/Ada_Drivers_Library/boards/stm32h743_nucleo/obj/sfp_lib_Debug/libada_drivers_library.a(stm32-device.o)
                0x000000002400091c                stm32__device__ph9
 .bss.stm32__device__ph10
                0x0000000024000928        0xc /home/badr/hackinvent/Ada_Drivers_Library/boards/stm32h743_nucleo/obj/sfp_lib_Debug/libada_drivers_library.a(stm32-device.o)
                0x0000000024000928                stm32__device__ph10
 .bss.stm32__device__ph11
                0x0000000024000934        0xc /home/badr/hackinvent/Ada_Drivers_Library/boards/stm32h743_nucleo/obj/sfp_lib_Debug/libada_drivers_library.a(stm32-device.o)
                0x0000000024000934                stm32__device__ph11
 .bss.stm32__device__ph12
                0x0000000024000940        0xc /home/badr/hackinvent/Ada_Drivers_Library/boards/stm32h743_nucleo/obj/sfp_lib_Debug/libada_drivers_library.a(stm32-device.o)
                0x0000000024000940                stm32__device__ph12
 .bss.stm32__device__ph13
                0x000000002400094c        0xc /home/badr/hackinvent/Ada_Drivers_Library/boards/stm32h743_nucleo/obj/sfp_lib_Debug/libada_drivers_library.a(stm32-device.o)
                0x000000002400094c                stm32__device__ph13
 .bss.stm32__device__ph14
                0x0000000024000958        0xc /home/badr/hackinvent/Ada_Drivers_Library/boards/stm32h743_nucleo/obj/sfp_lib_Debug/libada_drivers_library.a(stm32-device.o)
                0x0000000024000958                stm32__device__ph14
 .bss.stm32__device__ph15
                0x0000000024000964        0xc /home/badr/hackinvent/Ada_Drivers_Library/boards/stm32h743_nucleo/obj/sfp_lib_Debug/libada_drivers_library.a(stm32-device.o)
                0x0000000024000964                stm32__device__ph15
 .bss.stm32__device__pi0
                0x0000000024000970        0xc /home/badr/hackinvent/Ada_Drivers_Library/boards/stm32h743_nucleo/obj/sfp_lib_Debug/libada_drivers_library.a(stm32-device.o)
                0x0000000024000970                stm32__device(int *, )
 .bss.stm32__device__pi1
                0x000000002400097c        0xc /home/badr/hackinvent/Ada_Drivers_Library/boards/stm32h743_nucleo/obj/sfp_lib_Debug/libada_drivers_library.a(stm32-device.o)
                0x000000002400097c                stm32__device__pi1
 .bss.stm32__device__pi2
                0x0000000024000988        0xc /home/badr/hackinvent/Ada_Drivers_Library/boards/stm32h743_nucleo/obj/sfp_lib_Debug/libada_drivers_library.a(stm32-device.o)
                0x0000000024000988                stm32__device__pi2
 .bss.stm32__device__pi3
                0x0000000024000994        0xc /home/badr/hackinvent/Ada_Drivers_Library/boards/stm32h743_nucleo/obj/sfp_lib_Debug/libada_drivers_library.a(stm32-device.o)
                0x0000000024000994                stm32__device__pi3
 .bss.stm32__device__pi4
                0x00000000240009a0        0xc /home/badr/hackinvent/Ada_Drivers_Library/boards/stm32h743_nucleo/obj/sfp_lib_Debug/libada_drivers_library.a(stm32-device.o)
                0x00000000240009a0                stm32__device__pi4
 .bss.stm32__device__pi5
                0x00000000240009ac        0xc /home/badr/hackinvent/Ada_Drivers_Library/boards/stm32h743_nucleo/obj/sfp_lib_Debug/libada_drivers_library.a(stm32-device.o)
                0x00000000240009ac                stm32__device__pi5
 .bss.stm32__device__pi6
                0x00000000240009b8        0xc /home/badr/hackinvent/Ada_Drivers_Library/boards/stm32h743_nucleo/obj/sfp_lib_Debug/libada_drivers_library.a(stm32-device.o)
                0x00000000240009b8                stm32__device__pi6
 .bss.stm32__device__pi7
                0x00000000240009c4        0xc /home/badr/hackinvent/Ada_Drivers_Library/boards/stm32h743_nucleo/obj/sfp_lib_Debug/libada_drivers_library.a(stm32-device.o)
                0x00000000240009c4                stm32__device__pi7
 .bss.stm32__device__pi8
                0x00000000240009d0        0xc /home/badr/hackinvent/Ada_Drivers_Library/boards/stm32h743_nucleo/obj/sfp_lib_Debug/libada_drivers_library.a(stm32-device.o)
                0x00000000240009d0                stm32__device__pi8
 .bss.stm32__device__pi9
                0x00000000240009dc        0xc /home/badr/hackinvent/Ada_Drivers_Library/boards/stm32h743_nucleo/obj/sfp_lib_Debug/libada_drivers_library.a(stm32-device.o)
                0x00000000240009dc                stm32__device__pi9
 .bss.stm32__device__pi10
                0x00000000240009e8        0xc /home/badr/hackinvent/Ada_Drivers_Library/boards/stm32h743_nucleo/obj/sfp_lib_Debug/libada_drivers_library.a(stm32-device.o)
                0x00000000240009e8                stm32__device__pi10
 .bss.stm32__device__pi11
                0x00000000240009f4        0xc /home/badr/hackinvent/Ada_Drivers_Library/boards/stm32h743_nucleo/obj/sfp_lib_Debug/libada_drivers_library.a(stm32-device.o)
                0x00000000240009f4                stm32__device__pi11
 .bss.stm32__device__pi12
                0x0000000024000a00        0xc /home/badr/hackinvent/Ada_Drivers_Library/boards/stm32h743_nucleo/obj/sfp_lib_Debug/libada_drivers_library.a(stm32-device.o)
                0x0000000024000a00                stm32__device__pi12
 .bss.stm32__device__pi13
                0x0000000024000a0c        0xc /home/badr/hackinvent/Ada_Drivers_Library/boards/stm32h743_nucleo/obj/sfp_lib_Debug/libada_drivers_library.a(stm32-device.o)
                0x0000000024000a0c                stm32__device__pi13
 .bss.stm32__device__pi14
                0x0000000024000a18        0xc /home/badr/hackinvent/Ada_Drivers_Library/boards/stm32h743_nucleo/obj/sfp_lib_Debug/libada_drivers_library.a(stm32-device.o)
                0x0000000024000a18                stm32__device__pi14
 .bss.stm32__device__pi15
                0x0000000024000a24        0xc /home/badr/hackinvent/Ada_Drivers_Library/boards/stm32h743_nucleo/obj/sfp_lib_Debug/libada_drivers_library.a(stm32-device.o)
                0x0000000024000a24                stm32__device__pi15
 .bss.stm32__device__pj0
                0x0000000024000a30        0xc /home/badr/hackinvent/Ada_Drivers_Library/boards/stm32h743_nucleo/obj/sfp_lib_Debug/libada_drivers_library.a(stm32-device.o)
                0x0000000024000a30                stm32__device__pj0
 .bss.stm32__device__pj1
                0x0000000024000a3c        0xc /home/badr/hackinvent/Ada_Drivers_Library/boards/stm32h743_nucleo/obj/sfp_lib_Debug/libada_drivers_library.a(stm32-device.o)
                0x0000000024000a3c                stm32__device__pj1
 .bss.stm32__device__pj2
                0x0000000024000a48        0xc /home/badr/hackinvent/Ada_Drivers_Library/boards/stm32h743_nucleo/obj/sfp_lib_Debug/libada_drivers_library.a(stm32-device.o)
                0x0000000024000a48                stm32__device__pj2
 .bss.stm32__device__pj3
                0x0000000024000a54        0xc /home/badr/hackinvent/Ada_Drivers_Library/boards/stm32h743_nucleo/obj/sfp_lib_Debug/libada_drivers_library.a(stm32-device.o)
                0x0000000024000a54                stm32__device__pj3
 .bss.stm32__device__pj4
                0x0000000024000a60        0xc /home/badr/hackinvent/Ada_Drivers_Library/boards/stm32h743_nucleo/obj/sfp_lib_Debug/libada_drivers_library.a(stm32-device.o)
                0x0000000024000a60                stm32__device__pj4
 .bss.stm32__device__pj5
                0x0000000024000a6c        0xc /home/badr/hackinvent/Ada_Drivers_Library/boards/stm32h743_nucleo/obj/sfp_lib_Debug/libada_drivers_library.a(stm32-device.o)
                0x0000000024000a6c                stm32__device__pj5
 .bss.stm32__device__pj6
                0x0000000024000a78        0xc /home/badr/hackinvent/Ada_Drivers_Library/boards/stm32h743_nucleo/obj/sfp_lib_Debug/libada_drivers_library.a(stm32-device.o)
                0x0000000024000a78                stm32__device__pj6
 .bss.stm32__device__pj7
                0x0000000024000a84        0xc /home/badr/hackinvent/Ada_Drivers_Library/boards/stm32h743_nucleo/obj/sfp_lib_Debug/libada_drivers_library.a(stm32-device.o)
                0x0000000024000a84                stm32__device__pj7
 .bss.stm32__device__pj8
                0x0000000024000a90        0xc /home/badr/hackinvent/Ada_Drivers_Library/boards/stm32h743_nucleo/obj/sfp_lib_Debug/libada_drivers_library.a(stm32-device.o)
                0x0000000024000a90                stm32__device__pj8
 .bss.stm32__device__pj9
                0x0000000024000a9c        0xc /home/badr/hackinvent/Ada_Drivers_Library/boards/stm32h743_nucleo/obj/sfp_lib_Debug/libada_drivers_library.a(stm32-device.o)
                0x0000000024000a9c                stm32__device__pj9
 .bss.stm32__device__pj10
                0x0000000024000aa8        0xc /home/badr/hackinvent/Ada_Drivers_Library/boards/stm32h743_nucleo/obj/sfp_lib_Debug/libada_drivers_library.a(stm32-device.o)
                0x0000000024000aa8                stm32__device__pj10
 .bss.stm32__device__pj11
                0x0000000024000ab4        0xc /home/badr/hackinvent/Ada_Drivers_Library/boards/stm32h743_nucleo/obj/sfp_lib_Debug/libada_drivers_library.a(stm32-device.o)
                0x0000000024000ab4                stm32__device__pj11
 .bss.stm32__device__pj12
                0x0000000024000ac0        0xc /home/badr/hackinvent/Ada_Drivers_Library/boards/stm32h743_nucleo/obj/sfp_lib_Debug/libada_drivers_library.a(stm32-device.o)
                0x0000000024000ac0                stm32__device__pj12
 .bss.stm32__device__pj13
                0x0000000024000acc        0xc /home/badr/hackinvent/Ada_Drivers_Library/boards/stm32h743_nucleo/obj/sfp_lib_Debug/libada_drivers_library.a(stm32-device.o)
                0x0000000024000acc                stm32__device__pj13
 .bss.stm32__device__pj14
                0x0000000024000ad8        0xc /home/badr/hackinvent/Ada_Drivers_Library/boards/stm32h743_nucleo/obj/sfp_lib_Debug/libada_drivers_library.a(stm32-device.o)
                0x0000000024000ad8                stm32__device__pj14
 .bss.stm32__device__pj15
                0x0000000024000ae4        0xc /home/badr/hackinvent/Ada_Drivers_Library/boards/stm32h743_nucleo/obj/sfp_lib_Debug/libada_drivers_library.a(stm32-device.o)
                0x0000000024000ae4                stm32__device__pj15
 .bss.stm32__device__pk0
                0x0000000024000af0        0xc /home/badr/hackinvent/Ada_Drivers_Library/boards/stm32h743_nucleo/obj/sfp_lib_Debug/libada_drivers_library.a(stm32-device.o)
                0x0000000024000af0                stm32__device__pk0
 .bss.stm32__device__pk1
                0x0000000024000afc        0xc /home/badr/hackinvent/Ada_Drivers_Library/boards/stm32h743_nucleo/obj/sfp_lib_Debug/libada_drivers_library.a(stm32-device.o)
                0x0000000024000afc                stm32__device__pk1
 .bss.stm32__device__pk2
                0x0000000024000b08        0xc /home/badr/hackinvent/Ada_Drivers_Library/boards/stm32h743_nucleo/obj/sfp_lib_Debug/libada_drivers_library.a(stm32-device.o)
                0x0000000024000b08                stm32__device__pk2
 .bss.stm32__device__pk3
                0x0000000024000b14        0xc /home/badr/hackinvent/Ada_Drivers_Library/boards/stm32h743_nucleo/obj/sfp_lib_Debug/libada_drivers_library.a(stm32-device.o)
                0x0000000024000b14                stm32__device__pk3
 .bss.stm32__device__pk4
                0x0000000024000b20        0xc /home/badr/hackinvent/Ada_Drivers_Library/boards/stm32h743_nucleo/obj/sfp_lib_Debug/libada_drivers_library.a(stm32-device.o)
                0x0000000024000b20                stm32__device__pk4
 .bss.stm32__device__pk5
                0x0000000024000b2c        0xc /home/badr/hackinvent/Ada_Drivers_Library/boards/stm32h743_nucleo/obj/sfp_lib_Debug/libada_drivers_library.a(stm32-device.o)
                0x0000000024000b2c                stm32__device__pk5
 .bss.stm32__device__pk6
                0x0000000024000b38        0xc /home/badr/hackinvent/Ada_Drivers_Library/boards/stm32h743_nucleo/obj/sfp_lib_Debug/libada_drivers_library.a(stm32-device.o)
                0x0000000024000b38                stm32__device__pk6
 .bss.stm32__device__pk7
                0x0000000024000b44        0xc /home/badr/hackinvent/Ada_Drivers_Library/boards/stm32h743_nucleo/obj/sfp_lib_Debug/libada_drivers_library.a(stm32-device.o)
                0x0000000024000b44                stm32__device__pk7
 .bss.stm32__device__pk8
                0x0000000024000b50        0xc /home/badr/hackinvent/Ada_Drivers_Library/boards/stm32h743_nucleo/obj/sfp_lib_Debug/libada_drivers_library.a(stm32-device.o)
                0x0000000024000b50                stm32__device__pk8
 .bss.stm32__device__pk9
                0x0000000024000b5c        0xc /home/badr/hackinvent/Ada_Drivers_Library/boards/stm32h743_nucleo/obj/sfp_lib_Debug/libada_drivers_library.a(stm32-device.o)
                0x0000000024000b5c                stm32__device__pk9
 .bss.stm32__device__pk10
                0x0000000024000b68        0xc /home/badr/hackinvent/Ada_Drivers_Library/boards/stm32h743_nucleo/obj/sfp_lib_Debug/libada_drivers_library.a(stm32-device.o)
                0x0000000024000b68                stm32__device__pk10
 .bss.stm32__device__pk11
                0x0000000024000b74        0xc /home/badr/hackinvent/Ada_Drivers_Library/boards/stm32h743_nucleo/obj/sfp_lib_Debug/libada_drivers_library.a(stm32-device.o)
                0x0000000024000b74                stm32__device__pk11
 .bss.stm32__device__pk12
                0x0000000024000b80        0xc /home/badr/hackinvent/Ada_Drivers_Library/boards/stm32h743_nucleo/obj/sfp_lib_Debug/libada_drivers_library.a(stm32-device.o)
                0x0000000024000b80                stm32__device__pk12
 .bss.stm32__device__pk13
                0x0000000024000b8c        0xc /home/badr/hackinvent/Ada_Drivers_Library/boards/stm32h743_nucleo/obj/sfp_lib_Debug/libada_drivers_library.a(stm32-device.o)
                0x0000000024000b8c                stm32__device__pk13
 .bss.stm32__device__pk14
                0x0000000024000b98        0xc /home/badr/hackinvent/Ada_Drivers_Library/boards/stm32h743_nucleo/obj/sfp_lib_Debug/libada_drivers_library.a(stm32-device.o)
                0x0000000024000b98                stm32__device__pk14
 .bss.stm32__device__pk15
                0x0000000024000ba4        0xc /home/badr/hackinvent/Ada_Drivers_Library/boards/stm32h743_nucleo/obj/sfp_lib_Debug/libada_drivers_library.a(stm32-device.o)
                0x0000000024000ba4                stm32__device__pk15
 .bss.stm32__device__spi_1
                0x0000000024000bb0        0x8 /home/badr/hackinvent/Ada_Drivers_Library/boards/stm32h743_nucleo/obj/sfp_lib_Debug/libada_drivers_library.a(stm32-device.o)
                0x0000000024000bb0                stm32__device__spi_1
 .bss.stm32__device__spi_2
                0x0000000024000bb8        0x8 /home/badr/hackinvent/Ada_Drivers_Library/boards/stm32h743_nucleo/obj/sfp_lib_Debug/libada_drivers_library.a(stm32-device.o)
                0x0000000024000bb8                stm32__device__spi_2
 .bss.stm32__device__spi_3
                0x0000000024000bc0        0x8 /home/badr/hackinvent/Ada_Drivers_Library/boards/stm32h743_nucleo/obj/sfp_lib_Debug/libada_drivers_library.a(stm32-device.o)
                0x0000000024000bc0                stm32__device__spi_3
 .bss.stm32__device__spi_4
                0x0000000024000bc8        0x8 /home/badr/hackinvent/Ada_Drivers_Library/boards/stm32h743_nucleo/obj/sfp_lib_Debug/libada_drivers_library.a(stm32-device.o)
                0x0000000024000bc8                stm32__device__spi_4
 .bss.stm32__device__spi_5
                0x0000000024000bd0        0x8 /home/badr/hackinvent/Ada_Drivers_Library/boards/stm32h743_nucleo/obj/sfp_lib_Debug/libada_drivers_library.a(stm32-device.o)
                0x0000000024000bd0                stm32__device__spi_5
 .bss.stm32__device__spi_6
                0x0000000024000bd8        0x8 /home/badr/hackinvent/Ada_Drivers_Library/boards/stm32h743_nucleo/obj/sfp_lib_Debug/libada_drivers_library.a(stm32-device.o)
                0x0000000024000bd8                stm32__device__spi_6
 .bss.stm32__device__sysfreq
                0x0000000024000be0       0x1c /home/badr/hackinvent/Ada_Drivers_Library/boards/stm32h743_nucleo/obj/sfp_lib_Debug/libada_drivers_library.a(stm32-device.o)
                0x0000000024000be0                stm32__device__sysfreq
 .bss           0x0000000024000bfc        0x0 /home/badr/hackinvent/Ada_Drivers_Library/boards/stm32h743_nucleo/obj/sfp_lib_Debug/libada_drivers_library.a(stm32-exti.o)
 .bss           0x0000000024000bfc        0x0 /home/badr/hackinvent/Ada_Drivers_Library/boards/stm32h743_nucleo/obj/sfp_lib_Debug/libada_drivers_library.a(stm32-gpio.o)
 .bss           0x0000000024000bfc        0x0 /home/badr/hackinvent/Ada_Drivers_Library/boards/stm32h743_nucleo/obj/sfp_lib_Debug/libada_drivers_library.a(stm32-rcc.o)
 .bss           0x0000000024000bfc        0x0 /home/badr/hackinvent/Ada_Drivers_Library/boards/stm32h743_nucleo/obj/sfp_lib_Debug/libada_drivers_library.a(stm32-spi.o)
 .bss           0x0000000024000bfc        0x0 /home/badr/hackinvent/Ada_Drivers_Library/boards/stm32h743_nucleo/obj/sfp_lib_Debug/libada_drivers_library.a(stm32-syscfg.o)
 .bss           0x0000000024000bfc        0x0 /home/badr/hackinvent/Ada_Drivers_Library/boards/stm32h743_nucleo/obj/sfp_lib_Debug/libada_drivers_library.a(hal-gpio.o)
 .bss           0x0000000024000bfc        0x0 /home/badr/hackinvent/Ada_Drivers_Library/boards/stm32h743_nucleo/obj/sfp_lib_Debug/libada_drivers_library.a(hal-spi.o)
 .bss           0x0000000024000bfc        0x0 /home/badr/GNAT/2018-arm-elf/arm-eabi/lib/gnat/ravenscar-sfp-stm32h743nucleo/adalib/libgnarl.a(a-reatim.o)
 .bss           0x0000000024000bfc        0x0 /home/badr/GNAT/2018-arm-elf/arm-eabi/lib/gnat/ravenscar-sfp-stm32h743nucleo/adalib/libgnarl.a(a-retide.o)
 .bss           0x0000000024000bfc        0x0 /home/badr/GNAT/2018-arm-elf/arm-eabi/lib/gnat/ravenscar-sfp-stm32h743nucleo/adalib/libgnarl.a(s-bbtiev.o)
 .bss           0x0000000024000bfc        0x0 /home/badr/GNAT/2018-arm-elf/arm-eabi/lib/gnat/ravenscar-sfp-stm32h743nucleo/adalib/libgnarl.a(s-bbtime.o)
 .bss           0x0000000024000bfc        0x0 /home/badr/GNAT/2018-arm-elf/arm-eabi/lib/gnat/ravenscar-sfp-stm32h743nucleo/adalib/libgnarl.a(s-taprop.o)
 *fill*         0x0000000024000bfc        0x4 
 .bss.system__task_primitives__operations__idle_stacks
                0x0000000024000c00      0x800 /home/badr/GNAT/2018-arm-elf/arm-eabi/lib/gnat/ravenscar-sfp-stm32h743nucleo/adalib/libgnarl.a(s-taprop.o)
                0x0000000024000c00                system__task_primitives__operations__idle_stacks
 .bss.__gnat_idle_stack_table
                0x0000000024001400        0x4 /home/badr/GNAT/2018-arm-elf/arm-eabi/lib/gnat/ravenscar-sfp-stm32h743nucleo/adalib/libgnarl.a(s-taprop.o)
                0x0000000024001400                __gnat_idle_stack_table
 *fill*         0x0000000024001404        0x4 
 .bss.system__task_primitives__operations__idle_tasks
                0x0000000024001408       0xb8 /home/badr/GNAT/2018-arm-elf/arm-eabi/lib/gnat/ravenscar-sfp-stm32h743nucleo/adalib/libgnarl.a(s-taprop.o)
                0x0000000024001408                system__task_primitives__operations__idle_tasks
 .bss           0x00000000240014c0        0x0 /home/badr/GNAT/2018-arm-elf/arm-eabi/lib/gnat/ravenscar-sfp-stm32h743nucleo/adalib/libgnarl.a(s-tasdeb.o)
 .bss           0x00000000240014c0        0x0 /home/badr/GNAT/2018-arm-elf/arm-eabi/lib/gnat/ravenscar-sfp-stm32h743nucleo/adalib/libgnarl.a(s-taskin.o)
 .bss.system__tasking__environment_task
                0x00000000240014c0       0xb8 /home/badr/GNAT/2018-arm-elf/arm-eabi/lib/gnat/ravenscar-sfp-stm32h743nucleo/adalib/libgnarl.a(s-taskin.o)
 .bss           0x0000000024001578        0x0 /home/badr/GNAT/2018-arm-elf/arm-eabi/lib/gnat/ravenscar-sfp-stm32h743nucleo/adalib/libgnarl.a(s-bbbosu.o)
 .bss.__gnat_alarm_time
                0x0000000024001578        0x4 /home/badr/GNAT/2018-arm-elf/arm-eabi/lib/gnat/ravenscar-sfp-stm32h743nucleo/adalib/libgnarl.a(s-bbbosu.o)
                0x0000000024001578                __gnat_alarm_time
 .bss.system__bb__board_support__next_tick_time
                0x000000002400157c        0x4 /home/badr/GNAT/2018-arm-elf/arm-eabi/lib/gnat/ravenscar-sfp-stm32h743nucleo/adalib/libgnarl.a(s-bbbosu.o)
                0x000000002400157c                system__bb__board_support__next_tick_time
 .bss           0x0000000024001580        0x0 /home/badr/GNAT/2018-arm-elf/arm-eabi/lib/gnat/ravenscar-sfp-stm32h743nucleo/adalib/libgnarl.a(s-bbcppr.o)
 .bss.__gnat_bb_exception_handlers
                0x0000000024001580       0x44 /home/badr/GNAT/2018-arm-elf/arm-eabi/lib/gnat/ravenscar-sfp-stm32h743nucleo/adalib/libgnarl.a(s-bbcppr.o)
                0x0000000024001580                __gnat_bb_exception_handlers
 .bss           0x00000000240015c4        0x0 /home/badr/GNAT/2018-arm-elf/arm-eabi/lib/gnat/ravenscar-sfp-stm32h743nucleo/adalib/libgnarl.a(s-bbinte.o)
 .bss.interrupt_stack_table
                0x00000000240015c4        0x4 /home/badr/GNAT/2018-arm-elf/arm-eabi/lib/gnat/ravenscar-sfp-stm32h743nucleo/adalib/libgnarl.a(s-bbinte.o)
                0x00000000240015c4                interrupt_stack_table
 .bss.system__bb__interrupts__interrupt_handlers_table
                0x00000000240015c8      0x25c /home/badr/GNAT/2018-arm-elf/arm-eabi/lib/gnat/ravenscar-sfp-stm32h743nucleo/adalib/libgnarl.a(s-bbinte.o)
                0x00000000240015c8                system__bb__interrupts__interrupt_handlers_table
 .bss           0x0000000024001824        0x0 /home/badr/GNAT/2018-arm-elf/arm-eabi/lib/gnat/ravenscar-sfp-stm32h743nucleo/adalib/libgnarl.a(s-bbprot.o)
 .bss           0x0000000024001824        0x0 /home/badr/GNAT/2018-arm-elf/arm-eabi/lib/gnat/ravenscar-sfp-stm32h743nucleo/adalib/libgnarl.a(s-bbthqu.o)
 .bss           0x0000000024001824        0x0 /home/badr/GNAT/2018-arm-elf/arm-eabi/lib/gnat/ravenscar-sfp-stm32h743nucleo/adalib/libgnarl.a(s-bbthre.o)
 .bss           0x0000000024001824        0x0 /home/badr/GNAT/2018-arm-elf/arm-eabi/lib/gnat/ravenscar-sfp-stm32h743nucleo/adalib/libgnarl.a(s-bcpcst.o)
 .bss           0x0000000024001824        0x0 /home/badr/GNAT/2018-arm-elf/arm-eabi/lib/gnat/ravenscar-sfp-stm32h743nucleo/adalib/libgnarl.a(handler.o)
 .bss           0x0000000024001824        0x0 /home/badr/GNAT/2018-arm-elf/arm-eabi/lib/gnat/ravenscar-sfp-stm32h743nucleo/adalib/libgnat.a(a-elchha.o)
 .bss           0x0000000024001824        0x0 /home/badr/GNAT/2018-arm-elf/arm-eabi/lib/gnat/ravenscar-sfp-stm32h743nucleo/adalib/libgnat.a(a-except.o)
 .bss           0x0000000024001824        0x0 /home/badr/GNAT/2018-arm-elf/arm-eabi/lib/gnat/ravenscar-sfp-stm32h743nucleo/adalib/libgnat.a(breakpoint_handler-cortexm.o)
 .bss           0x0000000024001824        0x0 /home/badr/GNAT/2018-arm-elf/arm-eabi/lib/gnat/ravenscar-sfp-stm32h743nucleo/adalib/libgnat.a(g-io.o)
 .bss           0x0000000024001824        0x0 /home/badr/GNAT/2018-arm-elf/arm-eabi/lib/gnat/ravenscar-sfp-stm32h743nucleo/adalib/libgnat.a(s-assert.o)
 .bss           0x0000000024001824        0x0 /home/badr/GNAT/2018-arm-elf/arm-eabi/lib/gnat/ravenscar-sfp-stm32h743nucleo/adalib/libgnat.a(s-macres.o)
 .bss           0x0000000024001824        0x0 /home/badr/GNAT/2018-arm-elf/arm-eabi/lib/gnat/ravenscar-sfp-stm32h743nucleo/adalib/libgnat.a(s-memcop.o)
 .bss           0x0000000024001824        0x0 /home/badr/GNAT/2018-arm-elf/arm-eabi/lib/gnat/ravenscar-sfp-stm32h743nucleo/adalib/libgnat.a(s-memset.o)
 .bss           0x0000000024001824        0x0 /home/badr/GNAT/2018-arm-elf/arm-eabi/lib/gnat/ravenscar-sfp-stm32h743nucleo/adalib/libgnat.a(s-parame.o)
 .bss           0x0000000024001824        0x0 /home/badr/GNAT/2018-arm-elf/arm-eabi/lib/gnat/ravenscar-sfp-stm32h743nucleo/adalib/libgnat.a(s-secsta.o)
 .bss.system__secondary_stack__ss_pool
                0x0000000024001824        0x4 /home/badr/GNAT/2018-arm-elf/arm-eabi/lib/gnat/ravenscar-sfp-stm32h743nucleo/adalib/libgnat.a(s-secsta.o)
                0x0000000024001824                system__secondary_stack__ss_pool
 .bss.__gnat_binder_ss_count
                0x0000000024001828        0x4 /home/badr/GNAT/2018-arm-elf/arm-eabi/lib/gnat/ravenscar-sfp-stm32h743nucleo/adalib/libgnat.a(s-secsta.o)
                0x0000000024001828                __gnat_binder_ss_count
 .bss.__gnat_default_ss_size
                0x000000002400182c        0x4 /home/badr/GNAT/2018-arm-elf/arm-eabi/lib/gnat/ravenscar-sfp-stm32h743nucleo/adalib/libgnat.a(s-secsta.o)
                0x000000002400182c                __gnat_default_ss_size
 .bss.__gnat_default_ss_pool
                0x0000000024001830        0x4 /home/badr/GNAT/2018-arm-elf/arm-eabi/lib/gnat/ravenscar-sfp-stm32h743nucleo/adalib/libgnat.a(s-secsta.o)
                0x0000000024001830                __gnat_default_ss_pool
 .bss           0x0000000024001834        0x0 /home/badr/GNAT/2018-arm-elf/arm-eabi/lib/gnat/ravenscar-sfp-stm32h743nucleo/adalib/libgnat.a(s-textio.o)
 .bss           0x0000000024001834        0x0 /home/badr/GNAT/2018-arm-elf/arm-eabi/lib/gnat/ravenscar-sfp-stm32h743nucleo/adalib/libgnat.a(start-rom.o)
 .bss           0x0000000024001834        0x0 /home/badr/GNAT/2018-arm-elf/arm-eabi/lib/gnat/ravenscar-sfp-stm32h743nucleo/adalib/libgnat.a(s-semiho.o)
 .bss.system__semihosting__buffer
                0x0000000024001834       0x80 /home/badr/GNAT/2018-arm-elf/arm-eabi/lib/gnat/ravenscar-sfp-stm32h743nucleo/adalib/libgnat.a(s-semiho.o)
 .bss           0x00000000240018b4        0x0 /home/badr/GNAT/2018-arm-elf/arm-eabi/lib/gnat/ravenscar-sfp-stm32h743nucleo/adalib/libgnat.a(start-common.o)
 .bss           0x00000000240018b4        0x0 /home/badr/GNAT/2018-arm-elf/bin/../lib/gcc/arm-eabi/7.3.1/thumb/v7e-m/fpv5/hard/libgcc.a(_aeabi_ldivmod.o)
 .bss           0x00000000240018b4        0x0 /home/badr/GNAT/2018-arm-elf/bin/../lib/gcc/arm-eabi/7.3.1/thumb/v7e-m/fpv5/hard/libgcc.a(_aeabi_uldivmod.o)
 .bss           0x00000000240018b4        0x0 /home/badr/GNAT/2018-arm-elf/bin/../lib/gcc/arm-eabi/7.3.1/thumb/v7e-m/fpv5/hard/libgcc.a(_udivmoddi4.o)
 .bss           0x00000000240018b4        0x0 /home/badr/GNAT/2018-arm-elf/bin/../lib/gcc/arm-eabi/7.3.1/thumb/v7e-m/fpv5/hard/libgcc.a(_dvmd_tls.o)
 *(COMMON)
                0x00000000240018b8                . = ALIGN (0x8)
 *fill*         0x00000000240018b4        0x4 
                0x00000000240018b8                __bss_end = .
                0x00000000240018b8                __interrupt_stack_start = .
 *(.interrupt_stacks)
 .interrupt_stacks
                0x00000000240018b8      0x800 /home/badr/GNAT/2018-arm-elf/arm-eabi/lib/gnat/ravenscar-sfp-stm32h743nucleo/adalib/libgnarl.a(s-bbinte.o)
                0x00000000240018b8                system__bb__interrupts__interrupt_stacks
                0x00000000240020b8                . = ALIGN (0x8)
                0x00000000240020b8                __interrupt_stack_end = .
                0x00000000240020b8                __stack_start = .
                0x00000000240030b8                . = (. + DEFINED (__stack_size)?__stack_size:_DEFAULT_STACK_SIZE)
 *fill*         0x00000000240020b8     0x1000 
                0x00000000240030b8                . = ALIGN (0x8)
                0x00000000240030b8                __stack_end = .
                0x00000000240030b8                _end = .
                0x00000000240030b8                __heap_start = .
                0x0000000024080000                __heap_end = (ORIGIN (sram_bs) + LENGTH (sram_bs))
                0x00000000000005e8                __bss_words = ((__bss_end - __bss_start) >> 0x2)

.debug
 *(.debug)

.line
 *(.line)

.debug_srcinfo
 *(.debug_srcinfo)

.debug_sfnames
 *(.debug_sfnames)

.debug_aranges  0x0000000000000000      0xca0
 *(.debug_aranges)
 .debug_aranges
                0x0000000000000000       0x48 /home/badr/hackinvent/Ada_Drivers_Library/boards/stm32h743_nucleo/obj/sfp_lib_Debug/libada_drivers_library.a(stm32-board.o)
 .debug_aranges
                0x0000000000000048       0x78 /home/badr/hackinvent/Ada_Drivers_Library/boards/stm32h743_nucleo/obj/sfp_lib_Debug/libada_drivers_library.a(stm32-device.o)
 .debug_aranges
                0x00000000000000c0       0x50 /home/badr/hackinvent/Ada_Drivers_Library/boards/stm32h743_nucleo/obj/sfp_lib_Debug/libada_drivers_library.a(stm32-exti.o)
 .debug_aranges
                0x0000000000000110       0xf8 /home/badr/hackinvent/Ada_Drivers_Library/boards/stm32h743_nucleo/obj/sfp_lib_Debug/libada_drivers_library.a(stm32-gpio.o)
 .debug_aranges
                0x0000000000000208       0x20 /home/badr/hackinvent/Ada_Drivers_Library/boards/stm32h743_nucleo/obj/sfp_lib_Debug/libada_drivers_library.a(stm32-rcc.o)
 .debug_aranges
                0x0000000000000228      0x188 /home/badr/hackinvent/Ada_Drivers_Library/boards/stm32h743_nucleo/obj/sfp_lib_Debug/libada_drivers_library.a(stm32-spi.o)
 .debug_aranges
                0x00000000000003b0       0x40 /home/badr/hackinvent/Ada_Drivers_Library/boards/stm32h743_nucleo/obj/sfp_lib_Debug/libada_drivers_library.a(stm32-syscfg.o)
 .debug_aranges
                0x00000000000003f0       0x18 /home/badr/hackinvent/Ada_Drivers_Library/boards/stm32h743_nucleo/obj/sfp_lib_Debug/libada_drivers_library.a(hal-gpio.o)
 .debug_aranges
                0x0000000000000408       0x18 /home/badr/hackinvent/Ada_Drivers_Library/boards/stm32h743_nucleo/obj/sfp_lib_Debug/libada_drivers_library.a(hal-spi.o)
 .debug_aranges
                0x0000000000000420       0xd8 /home/badr/GNAT/2018-arm-elf/arm-eabi/lib/gnat/ravenscar-sfp-stm32h743nucleo/adalib/libgnarl.a(a-reatim.o)
 .debug_aranges
                0x00000000000004f8       0x28 /home/badr/GNAT/2018-arm-elf/arm-eabi/lib/gnat/ravenscar-sfp-stm32h743nucleo/adalib/libgnarl.a(a-retide.o)
 .debug_aranges
                0x0000000000000520       0x58 /home/badr/GNAT/2018-arm-elf/arm-eabi/lib/gnat/ravenscar-sfp-stm32h743nucleo/adalib/libgnarl.a(s-bbtiev.o)
 .debug_aranges
                0x0000000000000578       0x60 /home/badr/GNAT/2018-arm-elf/arm-eabi/lib/gnat/ravenscar-sfp-stm32h743nucleo/adalib/libgnarl.a(s-bbtime.o)
 .debug_aranges
                0x00000000000005d8       0xa8 /home/badr/GNAT/2018-arm-elf/arm-eabi/lib/gnat/ravenscar-sfp-stm32h743nucleo/adalib/libgnarl.a(s-taprop.o)
 .debug_aranges
                0x0000000000000680       0x20 /home/badr/GNAT/2018-arm-elf/arm-eabi/lib/gnat/ravenscar-sfp-stm32h743nucleo/adalib/libgnarl.a(s-tasdeb.o)
 .debug_aranges
                0x00000000000006a0       0x40 /home/badr/GNAT/2018-arm-elf/arm-eabi/lib/gnat/ravenscar-sfp-stm32h743nucleo/adalib/libgnarl.a(s-taskin.o)
 .debug_aranges
                0x00000000000006e0       0xb0 /home/badr/GNAT/2018-arm-elf/arm-eabi/lib/gnat/ravenscar-sfp-stm32h743nucleo/adalib/libgnarl.a(s-bbbosu.o)
 .debug_aranges
                0x0000000000000790       0x88 /home/badr/GNAT/2018-arm-elf/arm-eabi/lib/gnat/ravenscar-sfp-stm32h743nucleo/adalib/libgnarl.a(s-bbcppr.o)
 .debug_aranges
                0x0000000000000818       0x40 /home/badr/GNAT/2018-arm-elf/arm-eabi/lib/gnat/ravenscar-sfp-stm32h743nucleo/adalib/libgnarl.a(s-bbinte.o)
 .debug_aranges
                0x0000000000000858       0x28 /home/badr/GNAT/2018-arm-elf/arm-eabi/lib/gnat/ravenscar-sfp-stm32h743nucleo/adalib/libgnarl.a(s-bbprot.o)
 .debug_aranges
                0x0000000000000880       0x78 /home/badr/GNAT/2018-arm-elf/arm-eabi/lib/gnat/ravenscar-sfp-stm32h743nucleo/adalib/libgnarl.a(s-bbthqu.o)
 .debug_aranges
                0x00000000000008f8       0x80 /home/badr/GNAT/2018-arm-elf/arm-eabi/lib/gnat/ravenscar-sfp-stm32h743nucleo/adalib/libgnarl.a(s-bbthre.o)
 .debug_aranges
                0x0000000000000978       0x30 /home/badr/GNAT/2018-arm-elf/arm-eabi/lib/gnat/ravenscar-sfp-stm32h743nucleo/adalib/libgnarl.a(s-bcpcst.o)
 .debug_aranges
                0x00000000000009a8       0x20 /home/badr/GNAT/2018-arm-elf/arm-eabi/lib/gnat/ravenscar-sfp-stm32h743nucleo/adalib/libgnarl.a(handler.o)
 .debug_aranges
                0x00000000000009c8       0x28 /home/badr/GNAT/2018-arm-elf/arm-eabi/lib/gnat/ravenscar-sfp-stm32h743nucleo/adalib/libgnat.a(a-elchha.o)
 .debug_aranges
                0x00000000000009f0       0x18 /home/badr/GNAT/2018-arm-elf/arm-eabi/lib/gnat/ravenscar-sfp-stm32h743nucleo/adalib/libgnat.a(a-except.o)
 .debug_aranges
                0x0000000000000a08       0x20 /home/badr/GNAT/2018-arm-elf/arm-eabi/lib/gnat/ravenscar-sfp-stm32h743nucleo/adalib/libgnat.a(breakpoint_handler-cortexm.o)
 .debug_aranges
                0x0000000000000a28       0x40 /home/badr/GNAT/2018-arm-elf/arm-eabi/lib/gnat/ravenscar-sfp-stm32h743nucleo/adalib/libgnat.a(g-io.o)
 .debug_aranges
                0x0000000000000a68       0x20 /home/badr/GNAT/2018-arm-elf/arm-eabi/lib/gnat/ravenscar-sfp-stm32h743nucleo/adalib/libgnat.a(s-assert.o)
 .debug_aranges
                0x0000000000000a88       0x30 /home/badr/GNAT/2018-arm-elf/arm-eabi/lib/gnat/ravenscar-sfp-stm32h743nucleo/adalib/libgnat.a(s-macres.o)
 .debug_aranges
                0x0000000000000ab8       0x20 /home/badr/GNAT/2018-arm-elf/arm-eabi/lib/gnat/ravenscar-sfp-stm32h743nucleo/adalib/libgnat.a(s-memcop.o)
 .debug_aranges
                0x0000000000000ad8       0x20 /home/badr/GNAT/2018-arm-elf/arm-eabi/lib/gnat/ravenscar-sfp-stm32h743nucleo/adalib/libgnat.a(s-memset.o)
 .debug_aranges
                0x0000000000000af8       0x20 /home/badr/GNAT/2018-arm-elf/arm-eabi/lib/gnat/ravenscar-sfp-stm32h743nucleo/adalib/libgnat.a(s-parame.o)
 .debug_aranges
                0x0000000000000b18       0x40 /home/badr/GNAT/2018-arm-elf/arm-eabi/lib/gnat/ravenscar-sfp-stm32h743nucleo/adalib/libgnat.a(s-secsta.o)
 .debug_aranges
                0x0000000000000b58       0x48 /home/badr/GNAT/2018-arm-elf/arm-eabi/lib/gnat/ravenscar-sfp-stm32h743nucleo/adalib/libgnat.a(s-textio.o)
 .debug_aranges
                0x0000000000000ba0       0x20 /home/badr/GNAT/2018-arm-elf/arm-eabi/lib/gnat/ravenscar-sfp-stm32h743nucleo/adalib/libgnat.a(start-rom.o)
 .debug_aranges
                0x0000000000000bc0       0x40 /home/badr/GNAT/2018-arm-elf/arm-eabi/lib/gnat/ravenscar-sfp-stm32h743nucleo/adalib/libgnat.a(s-semiho.o)
 .debug_aranges
                0x0000000000000c00       0x20 /home/badr/GNAT/2018-arm-elf/arm-eabi/lib/gnat/ravenscar-sfp-stm32h743nucleo/adalib/libgnat.a(start-common.o)
 .debug_aranges
                0x0000000000000c20       0x20 /home/badr/GNAT/2018-arm-elf/bin/../lib/gcc/arm-eabi/7.3.1/thumb/v7e-m/fpv5/hard/libgcc.a(_aeabi_ldivmod.o)
 .debug_aranges
                0x0000000000000c40       0x20 /home/badr/GNAT/2018-arm-elf/bin/../lib/gcc/arm-eabi/7.3.1/thumb/v7e-m/fpv5/hard/libgcc.a(_aeabi_uldivmod.o)
 .debug_aranges
                0x0000000000000c60       0x20 /home/badr/GNAT/2018-arm-elf/bin/../lib/gcc/arm-eabi/7.3.1/thumb/v7e-m/fpv5/hard/libgcc.a(_udivmoddi4.o)
 .debug_aranges
                0x0000000000000c80       0x20 /home/badr/GNAT/2018-arm-elf/bin/../lib/gcc/arm-eabi/7.3.1/thumb/v7e-m/fpv5/hard/libgcc.a(_dvmd_tls.o)

.debug_pubnames
 *(.debug_pubnames)

.debug_info     0x0000000000000000     0xf919
 *(.debug_info .gnu.linkonce.wi.*)
 .debug_info    0x0000000000000000     0x1954 /home/badr/hackinvent/Ada_Drivers_Library/boards/stm32h743_nucleo/obj/sfp_lib_Debug/libada_drivers_library.a(stm32-board.o)
 .debug_info    0x0000000000001954     0x2fb1 /home/badr/hackinvent/Ada_Drivers_Library/boards/stm32h743_nucleo/obj/sfp_lib_Debug/libada_drivers_library.a(stm32-device.o)
 .debug_info    0x0000000000004905      0x242 /home/badr/hackinvent/Ada_Drivers_Library/boards/stm32h743_nucleo/obj/sfp_lib_Debug/libada_drivers_library.a(stm32-exti.o)
 .debug_info    0x0000000000004b47     0x14cd /home/badr/hackinvent/Ada_Drivers_Library/boards/stm32h743_nucleo/obj/sfp_lib_Debug/libada_drivers_library.a(stm32-gpio.o)
 .debug_info    0x0000000000006014      0x19b /home/badr/hackinvent/Ada_Drivers_Library/boards/stm32h743_nucleo/obj/sfp_lib_Debug/libada_drivers_library.a(stm32-rcc.o)
 .debug_info    0x00000000000061af     0x1ca3 /home/badr/hackinvent/Ada_Drivers_Library/boards/stm32h743_nucleo/obj/sfp_lib_Debug/libada_drivers_library.a(stm32-spi.o)
 .debug_info    0x0000000000007e52      0xb31 /home/badr/hackinvent/Ada_Drivers_Library/boards/stm32h743_nucleo/obj/sfp_lib_Debug/libada_drivers_library.a(stm32-syscfg.o)
 .debug_info    0x0000000000008983       0x41 /home/badr/hackinvent/Ada_Drivers_Library/boards/stm32h743_nucleo/obj/sfp_lib_Debug/libada_drivers_library.a(hal-gpio.o)
 .debug_info    0x00000000000089c4       0x5d /home/badr/hackinvent/Ada_Drivers_Library/boards/stm32h743_nucleo/obj/sfp_lib_Debug/libada_drivers_library.a(hal-spi.o)
 .debug_info    0x0000000000008a21      0x8c9 /home/badr/GNAT/2018-arm-elf/arm-eabi/lib/gnat/ravenscar-sfp-stm32h743nucleo/adalib/libgnarl.a(a-reatim.o)
 .debug_info    0x00000000000092ea      0x103 /home/badr/GNAT/2018-arm-elf/arm-eabi/lib/gnat/ravenscar-sfp-stm32h743nucleo/adalib/libgnarl.a(a-retide.o)
 .debug_info    0x00000000000093ed      0x5d4 /home/badr/GNAT/2018-arm-elf/arm-eabi/lib/gnat/ravenscar-sfp-stm32h743nucleo/adalib/libgnarl.a(s-bbtiev.o)
 .debug_info    0x00000000000099c1      0x5b7 /home/badr/GNAT/2018-arm-elf/arm-eabi/lib/gnat/ravenscar-sfp-stm32h743nucleo/adalib/libgnarl.a(s-bbtime.o)
 .debug_info    0x0000000000009f78      0xbfd /home/badr/GNAT/2018-arm-elf/arm-eabi/lib/gnat/ravenscar-sfp-stm32h743nucleo/adalib/libgnarl.a(s-taprop.o)
 .debug_info    0x000000000000ab75      0x65b /home/badr/GNAT/2018-arm-elf/arm-eabi/lib/gnat/ravenscar-sfp-stm32h743nucleo/adalib/libgnarl.a(s-tasdeb.o)
 .debug_info    0x000000000000b1d0      0x8d0 /home/badr/GNAT/2018-arm-elf/arm-eabi/lib/gnat/ravenscar-sfp-stm32h743nucleo/adalib/libgnarl.a(s-taskin.o)
 .debug_info    0x000000000000baa0      0x52a /home/badr/GNAT/2018-arm-elf/arm-eabi/lib/gnat/ravenscar-sfp-stm32h743nucleo/adalib/libgnarl.a(s-bbbosu.o)
 .debug_info    0x000000000000bfca      0x677 /home/badr/GNAT/2018-arm-elf/arm-eabi/lib/gnat/ravenscar-sfp-stm32h743nucleo/adalib/libgnarl.a(s-bbcppr.o)
 .debug_info    0x000000000000c641      0x46c /home/badr/GNAT/2018-arm-elf/arm-eabi/lib/gnat/ravenscar-sfp-stm32h743nucleo/adalib/libgnarl.a(s-bbinte.o)
 .debug_info    0x000000000000caad       0x95 /home/badr/GNAT/2018-arm-elf/arm-eabi/lib/gnat/ravenscar-sfp-stm32h743nucleo/adalib/libgnarl.a(s-bbprot.o)
 .debug_info    0x000000000000cb42      0x546 /home/badr/GNAT/2018-arm-elf/arm-eabi/lib/gnat/ravenscar-sfp-stm32h743nucleo/adalib/libgnarl.a(s-bbthqu.o)
 .debug_info    0x000000000000d088      0x60c /home/badr/GNAT/2018-arm-elf/arm-eabi/lib/gnat/ravenscar-sfp-stm32h743nucleo/adalib/libgnarl.a(s-bbthre.o)
 .debug_info    0x000000000000d694      0x11a /home/badr/GNAT/2018-arm-elf/arm-eabi/lib/gnat/ravenscar-sfp-stm32h743nucleo/adalib/libgnarl.a(s-bcpcst.o)
 .debug_info    0x000000000000d7ae       0x26 /home/badr/GNAT/2018-arm-elf/arm-eabi/lib/gnat/ravenscar-sfp-stm32h743nucleo/adalib/libgnarl.a(handler.o)
 .debug_info    0x000000000000d7d4      0x145 /home/badr/GNAT/2018-arm-elf/arm-eabi/lib/gnat/ravenscar-sfp-stm32h743nucleo/adalib/libgnat.a(a-elchha.o)
 .debug_info    0x000000000000d919      0x149 /home/badr/GNAT/2018-arm-elf/arm-eabi/lib/gnat/ravenscar-sfp-stm32h743nucleo/adalib/libgnat.a(a-except.o)
 .debug_info    0x000000000000da62       0x26 /home/badr/GNAT/2018-arm-elf/arm-eabi/lib/gnat/ravenscar-sfp-stm32h743nucleo/adalib/libgnat.a(breakpoint_handler-cortexm.o)
 .debug_info    0x000000000000da88      0x256 /home/badr/GNAT/2018-arm-elf/arm-eabi/lib/gnat/ravenscar-sfp-stm32h743nucleo/adalib/libgnat.a(g-io.o)
 .debug_info    0x000000000000dcde      0x169 /home/badr/GNAT/2018-arm-elf/arm-eabi/lib/gnat/ravenscar-sfp-stm32h743nucleo/adalib/libgnat.a(s-assert.o)
 .debug_info    0x000000000000de47       0xb0 /home/badr/GNAT/2018-arm-elf/arm-eabi/lib/gnat/ravenscar-sfp-stm32h743nucleo/adalib/libgnat.a(s-macres.o)
 .debug_info    0x000000000000def7       0xbf /home/badr/GNAT/2018-arm-elf/arm-eabi/lib/gnat/ravenscar-sfp-stm32h743nucleo/adalib/libgnat.a(s-memcop.o)
 .debug_info    0x000000000000dfb6      0x11f /home/badr/GNAT/2018-arm-elf/arm-eabi/lib/gnat/ravenscar-sfp-stm32h743nucleo/adalib/libgnat.a(s-memset.o)
 .debug_info    0x000000000000e0d5      0x13c /home/badr/GNAT/2018-arm-elf/arm-eabi/lib/gnat/ravenscar-sfp-stm32h743nucleo/adalib/libgnat.a(s-parame.o)
 .debug_info    0x000000000000e211      0x5bf /home/badr/GNAT/2018-arm-elf/arm-eabi/lib/gnat/ravenscar-sfp-stm32h743nucleo/adalib/libgnat.a(s-secsta.o)
 .debug_info    0x000000000000e7d0       0xe4 /home/badr/GNAT/2018-arm-elf/arm-eabi/lib/gnat/ravenscar-sfp-stm32h743nucleo/adalib/libgnat.a(s-textio.o)
 .debug_info    0x000000000000e8b4       0x26 /home/badr/GNAT/2018-arm-elf/arm-eabi/lib/gnat/ravenscar-sfp-stm32h743nucleo/adalib/libgnat.a(start-rom.o)
 .debug_info    0x000000000000e8da      0x2a8 /home/badr/GNAT/2018-arm-elf/arm-eabi/lib/gnat/ravenscar-sfp-stm32h743nucleo/adalib/libgnat.a(s-semiho.o)
 .debug_info    0x000000000000eb82       0x26 /home/badr/GNAT/2018-arm-elf/arm-eabi/lib/gnat/ravenscar-sfp-stm32h743nucleo/adalib/libgnat.a(start-common.o)
 .debug_info    0x000000000000eba8       0x26 /home/badr/GNAT/2018-arm-elf/bin/../lib/gcc/arm-eabi/7.3.1/thumb/v7e-m/fpv5/hard/libgcc.a(_aeabi_ldivmod.o)
 .debug_info    0x000000000000ebce       0x26 /home/badr/GNAT/2018-arm-elf/bin/../lib/gcc/arm-eabi/7.3.1/thumb/v7e-m/fpv5/hard/libgcc.a(_aeabi_uldivmod.o)
 .debug_info    0x000000000000ebf4      0xcff /home/badr/GNAT/2018-arm-elf/bin/../lib/gcc/arm-eabi/7.3.1/thumb/v7e-m/fpv5/hard/libgcc.a(_udivmoddi4.o)
 .debug_info    0x000000000000f8f3       0x26 /home/badr/GNAT/2018-arm-elf/bin/../lib/gcc/arm-eabi/7.3.1/thumb/v7e-m/fpv5/hard/libgcc.a(_dvmd_tls.o)

.debug_abbrev   0x0000000000000000     0x3d71
 *(.debug_abbrev)
 .debug_abbrev  0x0000000000000000      0x395 /home/badr/hackinvent/Ada_Drivers_Library/boards/stm32h743_nucleo/obj/sfp_lib_Debug/libada_drivers_library.a(stm32-board.o)
 .debug_abbrev  0x0000000000000395      0x42f /home/badr/hackinvent/Ada_Drivers_Library/boards/stm32h743_nucleo/obj/sfp_lib_Debug/libada_drivers_library.a(stm32-device.o)
 .debug_abbrev  0x00000000000007c4       0xb1 /home/badr/hackinvent/Ada_Drivers_Library/boards/stm32h743_nucleo/obj/sfp_lib_Debug/libada_drivers_library.a(stm32-exti.o)
 .debug_abbrev  0x0000000000000875      0x425 /home/badr/hackinvent/Ada_Drivers_Library/boards/stm32h743_nucleo/obj/sfp_lib_Debug/libada_drivers_library.a(stm32-gpio.o)
 .debug_abbrev  0x0000000000000c9a       0x8f /home/badr/hackinvent/Ada_Drivers_Library/boards/stm32h743_nucleo/obj/sfp_lib_Debug/libada_drivers_library.a(stm32-rcc.o)
 .debug_abbrev  0x0000000000000d29      0x31a /home/badr/hackinvent/Ada_Drivers_Library/boards/stm32h743_nucleo/obj/sfp_lib_Debug/libada_drivers_library.a(stm32-spi.o)
 .debug_abbrev  0x0000000000001043      0x2d7 /home/badr/hackinvent/Ada_Drivers_Library/boards/stm32h743_nucleo/obj/sfp_lib_Debug/libada_drivers_library.a(stm32-syscfg.o)
 .debug_abbrev  0x000000000000131a       0x28 /home/badr/hackinvent/Ada_Drivers_Library/boards/stm32h743_nucleo/obj/sfp_lib_Debug/libada_drivers_library.a(hal-gpio.o)
 .debug_abbrev  0x0000000000001342       0x28 /home/badr/hackinvent/Ada_Drivers_Library/boards/stm32h743_nucleo/obj/sfp_lib_Debug/libada_drivers_library.a(hal-spi.o)
 .debug_abbrev  0x000000000000136a      0x1ce /home/badr/GNAT/2018-arm-elf/arm-eabi/lib/gnat/ravenscar-sfp-stm32h743nucleo/adalib/libgnarl.a(a-reatim.o)
 .debug_abbrev  0x0000000000001538       0x9d /home/badr/GNAT/2018-arm-elf/arm-eabi/lib/gnat/ravenscar-sfp-stm32h743nucleo/adalib/libgnarl.a(a-retide.o)
 .debug_abbrev  0x00000000000015d5      0x23b /home/badr/GNAT/2018-arm-elf/arm-eabi/lib/gnat/ravenscar-sfp-stm32h743nucleo/adalib/libgnarl.a(s-bbtiev.o)
 .debug_abbrev  0x0000000000001810      0x24c /home/badr/GNAT/2018-arm-elf/arm-eabi/lib/gnat/ravenscar-sfp-stm32h743nucleo/adalib/libgnarl.a(s-bbtime.o)
 .debug_abbrev  0x0000000000001a5c      0x402 /home/badr/GNAT/2018-arm-elf/arm-eabi/lib/gnat/ravenscar-sfp-stm32h743nucleo/adalib/libgnarl.a(s-taprop.o)
 .debug_abbrev  0x0000000000001e5e      0x232 /home/badr/GNAT/2018-arm-elf/arm-eabi/lib/gnat/ravenscar-sfp-stm32h743nucleo/adalib/libgnarl.a(s-tasdeb.o)
 .debug_abbrev  0x0000000000002090      0x2e1 /home/badr/GNAT/2018-arm-elf/arm-eabi/lib/gnat/ravenscar-sfp-stm32h743nucleo/adalib/libgnarl.a(s-taskin.o)
 .debug_abbrev  0x0000000000002371      0x240 /home/badr/GNAT/2018-arm-elf/arm-eabi/lib/gnat/ravenscar-sfp-stm32h743nucleo/adalib/libgnarl.a(s-bbbosu.o)
 .debug_abbrev  0x00000000000025b1      0x26c /home/badr/GNAT/2018-arm-elf/arm-eabi/lib/gnat/ravenscar-sfp-stm32h743nucleo/adalib/libgnarl.a(s-bbcppr.o)
 .debug_abbrev  0x000000000000281d      0x1fb /home/badr/GNAT/2018-arm-elf/arm-eabi/lib/gnat/ravenscar-sfp-stm32h743nucleo/adalib/libgnarl.a(s-bbinte.o)
 .debug_abbrev  0x0000000000002a18       0x65 /home/badr/GNAT/2018-arm-elf/arm-eabi/lib/gnat/ravenscar-sfp-stm32h743nucleo/adalib/libgnarl.a(s-bbprot.o)
 .debug_abbrev  0x0000000000002a7d      0x289 /home/badr/GNAT/2018-arm-elf/arm-eabi/lib/gnat/ravenscar-sfp-stm32h743nucleo/adalib/libgnarl.a(s-bbthqu.o)
 .debug_abbrev  0x0000000000002d06      0x26d /home/badr/GNAT/2018-arm-elf/arm-eabi/lib/gnat/ravenscar-sfp-stm32h743nucleo/adalib/libgnarl.a(s-bbthre.o)
 .debug_abbrev  0x0000000000002f73       0xb0 /home/badr/GNAT/2018-arm-elf/arm-eabi/lib/gnat/ravenscar-sfp-stm32h743nucleo/adalib/libgnarl.a(s-bcpcst.o)
 .debug_abbrev  0x0000000000003023       0x14 /home/badr/GNAT/2018-arm-elf/arm-eabi/lib/gnat/ravenscar-sfp-stm32h743nucleo/adalib/libgnarl.a(handler.o)
 .debug_abbrev  0x0000000000003037      0x113 /home/badr/GNAT/2018-arm-elf/arm-eabi/lib/gnat/ravenscar-sfp-stm32h743nucleo/adalib/libgnat.a(a-elchha.o)
 .debug_abbrev  0x000000000000314a       0xc6 /home/badr/GNAT/2018-arm-elf/arm-eabi/lib/gnat/ravenscar-sfp-stm32h743nucleo/adalib/libgnat.a(a-except.o)
 .debug_abbrev  0x0000000000003210       0x14 /home/badr/GNAT/2018-arm-elf/arm-eabi/lib/gnat/ravenscar-sfp-stm32h743nucleo/adalib/libgnat.a(breakpoint_handler-cortexm.o)
 .debug_abbrev  0x0000000000003224      0x134 /home/badr/GNAT/2018-arm-elf/arm-eabi/lib/gnat/ravenscar-sfp-stm32h743nucleo/adalib/libgnat.a(g-io.o)
 .debug_abbrev  0x0000000000003358       0xd2 /home/badr/GNAT/2018-arm-elf/arm-eabi/lib/gnat/ravenscar-sfp-stm32h743nucleo/adalib/libgnat.a(s-assert.o)
 .debug_abbrev  0x000000000000342a       0xbd /home/badr/GNAT/2018-arm-elf/arm-eabi/lib/gnat/ravenscar-sfp-stm32h743nucleo/adalib/libgnat.a(s-macres.o)
 .debug_abbrev  0x00000000000034e7       0x76 /home/badr/GNAT/2018-arm-elf/arm-eabi/lib/gnat/ravenscar-sfp-stm32h743nucleo/adalib/libgnat.a(s-memcop.o)
 .debug_abbrev  0x000000000000355d       0xc6 /home/badr/GNAT/2018-arm-elf/arm-eabi/lib/gnat/ravenscar-sfp-stm32h743nucleo/adalib/libgnat.a(s-memset.o)
 .debug_abbrev  0x0000000000003623       0x95 /home/badr/GNAT/2018-arm-elf/arm-eabi/lib/gnat/ravenscar-sfp-stm32h743nucleo/adalib/libgnat.a(s-parame.o)
 .debug_abbrev  0x00000000000036b8      0x2a9 /home/badr/GNAT/2018-arm-elf/arm-eabi/lib/gnat/ravenscar-sfp-stm32h743nucleo/adalib/libgnat.a(s-secsta.o)
 .debug_abbrev  0x0000000000003961       0xb5 /home/badr/GNAT/2018-arm-elf/arm-eabi/lib/gnat/ravenscar-sfp-stm32h743nucleo/adalib/libgnat.a(s-textio.o)
 .debug_abbrev  0x0000000000003a16       0x14 /home/badr/GNAT/2018-arm-elf/arm-eabi/lib/gnat/ravenscar-sfp-stm32h743nucleo/adalib/libgnat.a(start-rom.o)
 .debug_abbrev  0x0000000000003a2a      0x15e /home/badr/GNAT/2018-arm-elf/arm-eabi/lib/gnat/ravenscar-sfp-stm32h743nucleo/adalib/libgnat.a(s-semiho.o)
 .debug_abbrev  0x0000000000003b88       0x14 /home/badr/GNAT/2018-arm-elf/arm-eabi/lib/gnat/ravenscar-sfp-stm32h743nucleo/adalib/libgnat.a(start-common.o)
 .debug_abbrev  0x0000000000003b9c       0x14 /home/badr/GNAT/2018-arm-elf/bin/../lib/gcc/arm-eabi/7.3.1/thumb/v7e-m/fpv5/hard/libgcc.a(_aeabi_ldivmod.o)
 .debug_abbrev  0x0000000000003bb0       0x14 /home/badr/GNAT/2018-arm-elf/bin/../lib/gcc/arm-eabi/7.3.1/thumb/v7e-m/fpv5/hard/libgcc.a(_aeabi_uldivmod.o)
 .debug_abbrev  0x0000000000003bc4      0x199 /home/badr/GNAT/2018-arm-elf/bin/../lib/gcc/arm-eabi/7.3.1/thumb/v7e-m/fpv5/hard/libgcc.a(_udivmoddi4.o)
 .debug_abbrev  0x0000000000003d5d       0x14 /home/badr/GNAT/2018-arm-elf/bin/../lib/gcc/arm-eabi/7.3.1/thumb/v7e-m/fpv5/hard/libgcc.a(_dvmd_tls.o)

.debug_line     0x0000000000000000     0x62f9
 *(.debug_line)
 .debug_line    0x0000000000000000      0x328 /home/badr/hackinvent/Ada_Drivers_Library/boards/stm32h743_nucleo/obj/sfp_lib_Debug/libada_drivers_library.a(stm32-board.o)
 .debug_line    0x0000000000000328      0x6fc /home/badr/hackinvent/Ada_Drivers_Library/boards/stm32h743_nucleo/obj/sfp_lib_Debug/libada_drivers_library.a(stm32-device.o)
 .debug_line    0x0000000000000a24      0x115 /home/badr/hackinvent/Ada_Drivers_Library/boards/stm32h743_nucleo/obj/sfp_lib_Debug/libada_drivers_library.a(stm32-exti.o)
 .debug_line    0x0000000000000b39      0x886 /home/badr/hackinvent/Ada_Drivers_Library/boards/stm32h743_nucleo/obj/sfp_lib_Debug/libada_drivers_library.a(stm32-gpio.o)
 .debug_line    0x00000000000013bf       0xa9 /home/badr/hackinvent/Ada_Drivers_Library/boards/stm32h743_nucleo/obj/sfp_lib_Debug/libada_drivers_library.a(stm32-rcc.o)
 .debug_line    0x0000000000001468      0xd1a /home/badr/hackinvent/Ada_Drivers_Library/boards/stm32h743_nucleo/obj/sfp_lib_Debug/libada_drivers_library.a(stm32-spi.o)
 .debug_line    0x0000000000002182      0x2fa /home/badr/hackinvent/Ada_Drivers_Library/boards/stm32h743_nucleo/obj/sfp_lib_Debug/libada_drivers_library.a(stm32-syscfg.o)
 .debug_line    0x000000000000247c       0x1d /home/badr/hackinvent/Ada_Drivers_Library/boards/stm32h743_nucleo/obj/sfp_lib_Debug/libada_drivers_library.a(hal-gpio.o)
 .debug_line    0x0000000000002499       0x1d /home/badr/hackinvent/Ada_Drivers_Library/boards/stm32h743_nucleo/obj/sfp_lib_Debug/libada_drivers_library.a(hal-spi.o)
 .debug_line    0x00000000000024b6      0x3fb /home/badr/GNAT/2018-arm-elf/arm-eabi/lib/gnat/ravenscar-sfp-stm32h743nucleo/adalib/libgnarl.a(a-reatim.o)
 .debug_line    0x00000000000028b1       0xb5 /home/badr/GNAT/2018-arm-elf/arm-eabi/lib/gnat/ravenscar-sfp-stm32h743nucleo/adalib/libgnarl.a(a-retide.o)
 .debug_line    0x0000000000002966      0x33e /home/badr/GNAT/2018-arm-elf/arm-eabi/lib/gnat/ravenscar-sfp-stm32h743nucleo/adalib/libgnarl.a(s-bbtiev.o)
 .debug_line    0x0000000000002ca4      0x2ea /home/badr/GNAT/2018-arm-elf/arm-eabi/lib/gnat/ravenscar-sfp-stm32h743nucleo/adalib/libgnarl.a(s-bbtime.o)
 .debug_line    0x0000000000002f8e      0x498 /home/badr/GNAT/2018-arm-elf/arm-eabi/lib/gnat/ravenscar-sfp-stm32h743nucleo/adalib/libgnarl.a(s-taprop.o)
 .debug_line    0x0000000000003426      0x1f3 /home/badr/GNAT/2018-arm-elf/arm-eabi/lib/gnat/ravenscar-sfp-stm32h743nucleo/adalib/libgnarl.a(s-tasdeb.o)
 .debug_line    0x0000000000003619      0x37b /home/badr/GNAT/2018-arm-elf/arm-eabi/lib/gnat/ravenscar-sfp-stm32h743nucleo/adalib/libgnarl.a(s-taskin.o)
 .debug_line    0x0000000000003994      0x413 /home/badr/GNAT/2018-arm-elf/arm-eabi/lib/gnat/ravenscar-sfp-stm32h743nucleo/adalib/libgnarl.a(s-bbbosu.o)
 .debug_line    0x0000000000003da7      0x50b /home/badr/GNAT/2018-arm-elf/arm-eabi/lib/gnat/ravenscar-sfp-stm32h743nucleo/adalib/libgnarl.a(s-bbcppr.o)
 .debug_line    0x00000000000042b2      0x238 /home/badr/GNAT/2018-arm-elf/arm-eabi/lib/gnat/ravenscar-sfp-stm32h743nucleo/adalib/libgnarl.a(s-bbinte.o)
 .debug_line    0x00000000000044ea       0xc3 /home/badr/GNAT/2018-arm-elf/arm-eabi/lib/gnat/ravenscar-sfp-stm32h743nucleo/adalib/libgnarl.a(s-bbprot.o)
 .debug_line    0x00000000000045ad      0x602 /home/badr/GNAT/2018-arm-elf/arm-eabi/lib/gnat/ravenscar-sfp-stm32h743nucleo/adalib/libgnarl.a(s-bbthqu.o)
 .debug_line    0x0000000000004baf      0x455 /home/badr/GNAT/2018-arm-elf/arm-eabi/lib/gnat/ravenscar-sfp-stm32h743nucleo/adalib/libgnarl.a(s-bbthre.o)
 .debug_line    0x0000000000005004       0xb2 /home/badr/GNAT/2018-arm-elf/arm-eabi/lib/gnat/ravenscar-sfp-stm32h743nucleo/adalib/libgnarl.a(s-bcpcst.o)
 .debug_line    0x00000000000050b6       0xa6 /home/badr/GNAT/2018-arm-elf/arm-eabi/lib/gnat/ravenscar-sfp-stm32h743nucleo/adalib/libgnarl.a(handler.o)
 .debug_line    0x000000000000515c       0xc5 /home/badr/GNAT/2018-arm-elf/arm-eabi/lib/gnat/ravenscar-sfp-stm32h743nucleo/adalib/libgnat.a(a-elchha.o)
 .debug_line    0x0000000000005221       0x89 /home/badr/GNAT/2018-arm-elf/arm-eabi/lib/gnat/ravenscar-sfp-stm32h743nucleo/adalib/libgnat.a(a-except.o)
 .debug_line    0x00000000000052aa       0x9f /home/badr/GNAT/2018-arm-elf/arm-eabi/lib/gnat/ravenscar-sfp-stm32h743nucleo/adalib/libgnat.a(breakpoint_handler-cortexm.o)
 .debug_line    0x0000000000005349      0x1c6 /home/badr/GNAT/2018-arm-elf/arm-eabi/lib/gnat/ravenscar-sfp-stm32h743nucleo/adalib/libgnat.a(g-io.o)
 .debug_line    0x000000000000550f      0x14d /home/badr/GNAT/2018-arm-elf/arm-eabi/lib/gnat/ravenscar-sfp-stm32h743nucleo/adalib/libgnat.a(s-assert.o)
 .debug_line    0x000000000000565c       0xaa /home/badr/GNAT/2018-arm-elf/arm-eabi/lib/gnat/ravenscar-sfp-stm32h743nucleo/adalib/libgnat.a(s-macres.o)
 .debug_line    0x0000000000005706       0xe8 /home/badr/GNAT/2018-arm-elf/arm-eabi/lib/gnat/ravenscar-sfp-stm32h743nucleo/adalib/libgnat.a(s-memcop.o)
 .debug_line    0x00000000000057ee       0xcf /home/badr/GNAT/2018-arm-elf/arm-eabi/lib/gnat/ravenscar-sfp-stm32h743nucleo/adalib/libgnat.a(s-memset.o)
 .debug_line    0x00000000000058bd       0xa0 /home/badr/GNAT/2018-arm-elf/arm-eabi/lib/gnat/ravenscar-sfp-stm32h743nucleo/adalib/libgnat.a(s-parame.o)
 .debug_line    0x000000000000595d      0x1b0 /home/badr/GNAT/2018-arm-elf/arm-eabi/lib/gnat/ravenscar-sfp-stm32h743nucleo/adalib/libgnat.a(s-secsta.o)
 .debug_line    0x0000000000005b0d      0x127 /home/badr/GNAT/2018-arm-elf/arm-eabi/lib/gnat/ravenscar-sfp-stm32h743nucleo/adalib/libgnat.a(s-textio.o)
 .debug_line    0x0000000000005c34       0xc1 /home/badr/GNAT/2018-arm-elf/arm-eabi/lib/gnat/ravenscar-sfp-stm32h743nucleo/adalib/libgnat.a(start-rom.o)
 .debug_line    0x0000000000005cf5      0x159 /home/badr/GNAT/2018-arm-elf/arm-eabi/lib/gnat/ravenscar-sfp-stm32h743nucleo/adalib/libgnat.a(s-semiho.o)
 .debug_line    0x0000000000005e4e       0xf1 /home/badr/GNAT/2018-arm-elf/arm-eabi/lib/gnat/ravenscar-sfp-stm32h743nucleo/adalib/libgnat.a(start-common.o)
 .debug_line    0x0000000000005f3f       0x85 /home/badr/GNAT/2018-arm-elf/bin/../lib/gcc/arm-eabi/7.3.1/thumb/v7e-m/fpv5/hard/libgcc.a(_aeabi_ldivmod.o)
 .debug_line    0x0000000000005fc4       0x67 /home/badr/GNAT/2018-arm-elf/bin/../lib/gcc/arm-eabi/7.3.1/thumb/v7e-m/fpv5/hard/libgcc.a(_aeabi_uldivmod.o)
 .debug_line    0x000000000000602b      0x267 /home/badr/GNAT/2018-arm-elf/bin/../lib/gcc/arm-eabi/7.3.1/thumb/v7e-m/fpv5/hard/libgcc.a(_udivmoddi4.o)
 .debug_line    0x0000000000006292       0x67 /home/badr/GNAT/2018-arm-elf/bin/../lib/gcc/arm-eabi/7.3.1/thumb/v7e-m/fpv5/hard/libgcc.a(_dvmd_tls.o)

.debug_frame    0x0000000000000000     0x3018
 *(.debug_frame)
 .debug_frame   0x0000000000000000       0xe0 /home/badr/hackinvent/Ada_Drivers_Library/boards/stm32h743_nucleo/obj/sfp_lib_Debug/libada_drivers_library.a(stm32-board.o)
 .debug_frame   0x00000000000000e0      0x20c /home/badr/hackinvent/Ada_Drivers_Library/boards/stm32h743_nucleo/obj/sfp_lib_Debug/libada_drivers_library.a(stm32-device.o)
 .debug_frame   0x00000000000002ec      0x128 /home/badr/hackinvent/Ada_Drivers_Library/boards/stm32h743_nucleo/obj/sfp_lib_Debug/libada_drivers_library.a(stm32-exti.o)
 .debug_frame   0x0000000000000414      0x670 /home/badr/hackinvent/Ada_Drivers_Library/boards/stm32h743_nucleo/obj/sfp_lib_Debug/libada_drivers_library.a(stm32-gpio.o)
 .debug_frame   0x0000000000000a84       0x30 /home/badr/hackinvent/Ada_Drivers_Library/boards/stm32h743_nucleo/obj/sfp_lib_Debug/libada_drivers_library.a(stm32-rcc.o)
 .debug_frame   0x0000000000000ab4      0x7cc /home/badr/hackinvent/Ada_Drivers_Library/boards/stm32h743_nucleo/obj/sfp_lib_Debug/libada_drivers_library.a(stm32-spi.o)
 .debug_frame   0x0000000000001280       0xd4 /home/badr/hackinvent/Ada_Drivers_Library/boards/stm32h743_nucleo/obj/sfp_lib_Debug/libada_drivers_library.a(stm32-syscfg.o)
 .debug_frame   0x0000000000001354       0x60 /home/badr/hackinvent/Ada_Drivers_Library/boards/stm32h743_nucleo/obj/sfp_lib_Debug/libada_drivers_library.a(hal-spi.o)
 .debug_frame   0x00000000000013b4      0x3e0 /home/badr/GNAT/2018-arm-elf/arm-eabi/lib/gnat/ravenscar-sfp-stm32h743nucleo/adalib/libgnarl.a(a-reatim.o)
 .debug_frame   0x0000000000001794       0x5c /home/badr/GNAT/2018-arm-elf/arm-eabi/lib/gnat/ravenscar-sfp-stm32h743nucleo/adalib/libgnarl.a(a-retide.o)
 .debug_frame   0x00000000000017f0      0x190 /home/badr/GNAT/2018-arm-elf/arm-eabi/lib/gnat/ravenscar-sfp-stm32h743nucleo/adalib/libgnarl.a(s-bbtiev.o)
 .debug_frame   0x0000000000001980      0x1bc /home/badr/GNAT/2018-arm-elf/arm-eabi/lib/gnat/ravenscar-sfp-stm32h743nucleo/adalib/libgnarl.a(s-bbtime.o)
 .debug_frame   0x0000000000001b3c      0x30c /home/badr/GNAT/2018-arm-elf/arm-eabi/lib/gnat/ravenscar-sfp-stm32h743nucleo/adalib/libgnarl.a(s-taprop.o)
 .debug_frame   0x0000000000001e48       0x34 /home/badr/GNAT/2018-arm-elf/arm-eabi/lib/gnat/ravenscar-sfp-stm32h743nucleo/adalib/libgnarl.a(s-tasdeb.o)
 .debug_frame   0x0000000000001e7c      0x10c /home/badr/GNAT/2018-arm-elf/arm-eabi/lib/gnat/ravenscar-sfp-stm32h743nucleo/adalib/libgnarl.a(s-taskin.o)
 .debug_frame   0x0000000000001f88      0x2f4 /home/badr/GNAT/2018-arm-elf/arm-eabi/lib/gnat/ravenscar-sfp-stm32h743nucleo/adalib/libgnarl.a(s-bbbosu.o)
 .debug_frame   0x000000000000227c      0x244 /home/badr/GNAT/2018-arm-elf/arm-eabi/lib/gnat/ravenscar-sfp-stm32h743nucleo/adalib/libgnarl.a(s-bbcppr.o)
 .debug_frame   0x00000000000024c0      0x118 /home/badr/GNAT/2018-arm-elf/arm-eabi/lib/gnat/ravenscar-sfp-stm32h743nucleo/adalib/libgnarl.a(s-bbinte.o)
 .debug_frame   0x00000000000025d8       0x48 /home/badr/GNAT/2018-arm-elf/arm-eabi/lib/gnat/ravenscar-sfp-stm32h743nucleo/adalib/libgnarl.a(s-bbprot.o)
 .debug_frame   0x0000000000002620      0x1c4 /home/badr/GNAT/2018-arm-elf/arm-eabi/lib/gnat/ravenscar-sfp-stm32h743nucleo/adalib/libgnarl.a(s-bbthqu.o)
 .debug_frame   0x00000000000027e4      0x200 /home/badr/GNAT/2018-arm-elf/arm-eabi/lib/gnat/ravenscar-sfp-stm32h743nucleo/adalib/libgnarl.a(s-bbthre.o)
 .debug_frame   0x00000000000029e4       0x60 /home/badr/GNAT/2018-arm-elf/arm-eabi/lib/gnat/ravenscar-sfp-stm32h743nucleo/adalib/libgnarl.a(s-bcpcst.o)
 .debug_frame   0x0000000000002a44       0x58 /home/badr/GNAT/2018-arm-elf/arm-eabi/lib/gnat/ravenscar-sfp-stm32h743nucleo/adalib/libgnat.a(a-elchha.o)
 .debug_frame   0x0000000000002a9c       0xcc /home/badr/GNAT/2018-arm-elf/arm-eabi/lib/gnat/ravenscar-sfp-stm32h743nucleo/adalib/libgnat.a(g-io.o)
 .debug_frame   0x0000000000002b68       0x30 /home/badr/GNAT/2018-arm-elf/arm-eabi/lib/gnat/ravenscar-sfp-stm32h743nucleo/adalib/libgnat.a(s-assert.o)
 .debug_frame   0x0000000000002b98       0x64 /home/badr/GNAT/2018-arm-elf/arm-eabi/lib/gnat/ravenscar-sfp-stm32h743nucleo/adalib/libgnat.a(s-macres.o)
 .debug_frame   0x0000000000002bfc       0x34 /home/badr/GNAT/2018-arm-elf/arm-eabi/lib/gnat/ravenscar-sfp-stm32h743nucleo/adalib/libgnat.a(s-memcop.o)
 .debug_frame   0x0000000000002c30       0x34 /home/badr/GNAT/2018-arm-elf/arm-eabi/lib/gnat/ravenscar-sfp-stm32h743nucleo/adalib/libgnat.a(s-memset.o)
 .debug_frame   0x0000000000002c64       0x38 /home/badr/GNAT/2018-arm-elf/arm-eabi/lib/gnat/ravenscar-sfp-stm32h743nucleo/adalib/libgnat.a(s-parame.o)
 .debug_frame   0x0000000000002c9c      0x10c /home/badr/GNAT/2018-arm-elf/arm-eabi/lib/gnat/ravenscar-sfp-stm32h743nucleo/adalib/libgnat.a(s-secsta.o)
 .debug_frame   0x0000000000002da8       0xd8 /home/badr/GNAT/2018-arm-elf/arm-eabi/lib/gnat/ravenscar-sfp-stm32h743nucleo/adalib/libgnat.a(s-textio.o)
 .debug_frame   0x0000000000002e80       0xf4 /home/badr/GNAT/2018-arm-elf/arm-eabi/lib/gnat/ravenscar-sfp-stm32h743nucleo/adalib/libgnat.a(s-semiho.o)
 .debug_frame   0x0000000000002f74       0x44 /home/badr/GNAT/2018-arm-elf/bin/../lib/gcc/arm-eabi/7.3.1/thumb/v7e-m/fpv5/hard/libgcc.a(_aeabi_ldivmod.o)
 .debug_frame   0x0000000000002fb8       0x2c /home/badr/GNAT/2018-arm-elf/bin/../lib/gcc/arm-eabi/7.3.1/thumb/v7e-m/fpv5/hard/libgcc.a(_aeabi_uldivmod.o)
 .debug_frame   0x0000000000002fe4       0x34 /home/badr/GNAT/2018-arm-elf/bin/../lib/gcc/arm-eabi/7.3.1/thumb/v7e-m/fpv5/hard/libgcc.a(_udivmoddi4.o)

.debug_str      0x0000000000000000     0xd6e4
 *(.debug_str)
 .debug_str     0x0000000000000000     0x1e0f /home/badr/hackinvent/Ada_Drivers_Library/boards/stm32h743_nucleo/obj/sfp_lib_Debug/libada_drivers_library.a(stm32-board.o)
                                       0x1ec4 (size before relaxing)
 .debug_str     0x0000000000001e0f     0x22d9 /home/badr/hackinvent/Ada_Drivers_Library/boards/stm32h743_nucleo/obj/sfp_lib_Debug/libada_drivers_library.a(stm32-device.o)
                                       0x3709 (size before relaxing)
 .debug_str     0x00000000000040e8      0x524 /home/badr/hackinvent/Ada_Drivers_Library/boards/stm32h743_nucleo/obj/sfp_lib_Debug/libada_drivers_library.a(stm32-exti.o)
                                        0x724 (size before relaxing)
 .debug_str     0x000000000000460c      0x52d /home/badr/hackinvent/Ada_Drivers_Library/boards/stm32h743_nucleo/obj/sfp_lib_Debug/libada_drivers_library.a(stm32-gpio.o)
                                       0x1aea (size before relaxing)
 .debug_str     0x0000000000004b39       0x94 /home/badr/hackinvent/Ada_Drivers_Library/boards/stm32h743_nucleo/obj/sfp_lib_Debug/libada_drivers_library.a(stm32-rcc.o)
                                        0x5a0 (size before relaxing)
 .debug_str     0x0000000000004bcd      0x837 /home/badr/hackinvent/Ada_Drivers_Library/boards/stm32h743_nucleo/obj/sfp_lib_Debug/libada_drivers_library.a(stm32-spi.o)
                                       0x157f (size before relaxing)
 .debug_str     0x0000000000005404      0x170 /home/badr/hackinvent/Ada_Drivers_Library/boards/stm32h743_nucleo/obj/sfp_lib_Debug/libada_drivers_library.a(stm32-syscfg.o)
                                       0x1033 (size before relaxing)
 .debug_str     0x0000000000005574       0x3f /home/badr/hackinvent/Ada_Drivers_Library/boards/stm32h743_nucleo/obj/sfp_lib_Debug/libada_drivers_library.a(hal-gpio.o)
                                        0x256 (size before relaxing)
 .debug_str     0x00000000000055b3       0x3e /home/badr/hackinvent/Ada_Drivers_Library/boards/stm32h743_nucleo/obj/sfp_lib_Debug/libada_drivers_library.a(hal-spi.o)
                                        0x29f (size before relaxing)
 .debug_str     0x00000000000055f1      0x8c0 /home/badr/GNAT/2018-arm-elf/arm-eabi/lib/gnat/ravenscar-sfp-stm32h743nucleo/adalib/libgnarl.a(a-reatim.o)
                                        0x916 (size before relaxing)
 .debug_str     0x0000000000005eb1      0x364 /home/badr/GNAT/2018-arm-elf/arm-eabi/lib/gnat/ravenscar-sfp-stm32h743nucleo/adalib/libgnarl.a(a-retide.o)
                                        0x4c4 (size before relaxing)
 .debug_str     0x0000000000006215      0x684 /home/badr/GNAT/2018-arm-elf/arm-eabi/lib/gnat/ravenscar-sfp-stm32h743nucleo/adalib/libgnarl.a(s-bbtiev.o)
                                        0x8e1 (size before relaxing)
 .debug_str     0x0000000000006899      0x4ef /home/badr/GNAT/2018-arm-elf/arm-eabi/lib/gnat/ravenscar-sfp-stm32h743nucleo/adalib/libgnarl.a(s-bbtime.o)
                                        0xa26 (size before relaxing)
 .debug_str     0x0000000000006d88     0x1125 /home/badr/GNAT/2018-arm-elf/arm-eabi/lib/gnat/ravenscar-sfp-stm32h743nucleo/adalib/libgnarl.a(s-taprop.o)
                                       0x1641 (size before relaxing)
 .debug_str     0x0000000000007ead      0x26d /home/badr/GNAT/2018-arm-elf/arm-eabi/lib/gnat/ravenscar-sfp-stm32h743nucleo/adalib/libgnarl.a(s-tasdeb.o)
                                        0xe43 (size before relaxing)
 .debug_str     0x000000000000811a      0x30f /home/badr/GNAT/2018-arm-elf/arm-eabi/lib/gnat/ravenscar-sfp-stm32h743nucleo/adalib/libgnarl.a(s-taskin.o)
                                       0x10b6 (size before relaxing)
 .debug_str     0x0000000000008429      0x792 /home/badr/GNAT/2018-arm-elf/arm-eabi/lib/gnat/ravenscar-sfp-stm32h743nucleo/adalib/libgnarl.a(s-bbbosu.o)
                                        0xb0e (size before relaxing)
 .debug_str     0x0000000000008bbb      0x890 /home/badr/GNAT/2018-arm-elf/arm-eabi/lib/gnat/ravenscar-sfp-stm32h743nucleo/adalib/libgnarl.a(s-bbcppr.o)
                                        0xce9 (size before relaxing)
 .debug_str     0x000000000000944b      0x36f /home/badr/GNAT/2018-arm-elf/arm-eabi/lib/gnat/ravenscar-sfp-stm32h743nucleo/adalib/libgnarl.a(s-bbinte.o)
                                        0x9c7 (size before relaxing)
 .debug_str     0x00000000000097ba       0xef /home/badr/GNAT/2018-arm-elf/arm-eabi/lib/gnat/ravenscar-sfp-stm32h743nucleo/adalib/libgnarl.a(s-bbprot.o)
                                        0x3a4 (size before relaxing)
 .debug_str     0x00000000000098a9      0x46a /home/badr/GNAT/2018-arm-elf/arm-eabi/lib/gnat/ravenscar-sfp-stm32h743nucleo/adalib/libgnarl.a(s-bbthqu.o)
                                        0x9ee (size before relaxing)
 .debug_str     0x0000000000009d13      0x27f /home/badr/GNAT/2018-arm-elf/arm-eabi/lib/gnat/ravenscar-sfp-stm32h743nucleo/adalib/libgnarl.a(s-bbthre.o)
                                        0x8ff (size before relaxing)
 .debug_str     0x0000000000009f92      0x2ff /home/badr/GNAT/2018-arm-elf/arm-eabi/lib/gnat/ravenscar-sfp-stm32h743nucleo/adalib/libgnarl.a(s-bcpcst.o)
                                        0x563 (size before relaxing)
 .debug_str     0x000000000000a291       0x81 /home/badr/GNAT/2018-arm-elf/arm-eabi/lib/gnat/ravenscar-sfp-stm32h743nucleo/adalib/libgnarl.a(handler.o)
                                         0xf1 (size before relaxing)
 .debug_str     0x000000000000a312      0x371 /home/badr/GNAT/2018-arm-elf/arm-eabi/lib/gnat/ravenscar-sfp-stm32h743nucleo/adalib/libgnat.a(a-elchha.o)
                                        0x408 (size before relaxing)
 .debug_str     0x000000000000a683      0x2f5 /home/badr/GNAT/2018-arm-elf/arm-eabi/lib/gnat/ravenscar-sfp-stm32h743nucleo/adalib/libgnat.a(a-except.o)
                                        0x394 (size before relaxing)
 .debug_str     0x000000000000a978       0x66 /home/badr/GNAT/2018-arm-elf/arm-eabi/lib/gnat/ravenscar-sfp-stm32h743nucleo/adalib/libgnat.a(breakpoint_handler-cortexm.o)
                                         0xe5 (size before relaxing)
 .debug_str     0x000000000000a9de      0x2d2 /home/badr/GNAT/2018-arm-elf/arm-eabi/lib/gnat/ravenscar-sfp-stm32h743nucleo/adalib/libgnat.a(g-io.o)
                                        0x3d8 (size before relaxing)
 .debug_str     0x000000000000acb0      0x243 /home/badr/GNAT/2018-arm-elf/arm-eabi/lib/gnat/ravenscar-sfp-stm32h743nucleo/adalib/libgnat.a(s-assert.o)
                                        0x3a1 (size before relaxing)
 .debug_str     0x000000000000aef3       0xb1 /home/badr/GNAT/2018-arm-elf/arm-eabi/lib/gnat/ravenscar-sfp-stm32h743nucleo/adalib/libgnat.a(s-macres.o)
                                        0x313 (size before relaxing)
 .debug_str     0x000000000000afa4       0xd8 /home/badr/GNAT/2018-arm-elf/arm-eabi/lib/gnat/ravenscar-sfp-stm32h743nucleo/adalib/libgnat.a(s-memcop.o)
                                        0x308 (size before relaxing)
 .debug_str     0x000000000000b07c       0x8c /home/badr/GNAT/2018-arm-elf/arm-eabi/lib/gnat/ravenscar-sfp-stm32h743nucleo/adalib/libgnat.a(s-memset.o)
                                        0x352 (size before relaxing)
 .debug_str     0x000000000000b108      0x201 /home/badr/GNAT/2018-arm-elf/arm-eabi/lib/gnat/ravenscar-sfp-stm32h743nucleo/adalib/libgnat.a(s-parame.o)
                                        0x487 (size before relaxing)
 .debug_str     0x000000000000b309      0x964 /home/badr/GNAT/2018-arm-elf/arm-eabi/lib/gnat/ravenscar-sfp-stm32h743nucleo/adalib/libgnat.a(s-secsta.o)
                                        0xd5a (size before relaxing)
 .debug_str     0x000000000000bc6d      0x2c6 /home/badr/GNAT/2018-arm-elf/arm-eabi/lib/gnat/ravenscar-sfp-stm32h743nucleo/adalib/libgnat.a(s-textio.o)
                                        0x348 (size before relaxing)
 .debug_str     0x000000000000bf33       0x73 /home/badr/GNAT/2018-arm-elf/arm-eabi/lib/gnat/ravenscar-sfp-stm32h743nucleo/adalib/libgnat.a(start-rom.o)
                                         0xf2 (size before relaxing)
 .debug_str     0x000000000000bfa6      0x2a5 /home/badr/GNAT/2018-arm-elf/arm-eabi/lib/gnat/ravenscar-sfp-stm32h743nucleo/adalib/libgnat.a(s-semiho.o)
                                        0x552 (size before relaxing)
 .debug_str     0x000000000000c24b       0x66 /home/badr/GNAT/2018-arm-elf/arm-eabi/lib/gnat/ravenscar-sfp-stm32h743nucleo/adalib/libgnat.a(start-common.o)
                                         0xe5 (size before relaxing)
 .debug_str     0x000000000000c2b1       0xa1 /home/badr/GNAT/2018-arm-elf/bin/../lib/gcc/arm-eabi/7.3.1/thumb/v7e-m/fpv5/hard/libgcc.a(_aeabi_ldivmod.o)
                                         0xb0 (size before relaxing)
 .debug_str     0x000000000000c352       0xb0 /home/badr/GNAT/2018-arm-elf/bin/../lib/gcc/arm-eabi/7.3.1/thumb/v7e-m/fpv5/hard/libgcc.a(_aeabi_uldivmod.o)
 .debug_str     0x000000000000c352     0x135b /home/badr/GNAT/2018-arm-elf/bin/../lib/gcc/arm-eabi/7.3.1/thumb/v7e-m/fpv5/hard/libgcc.a(_udivmoddi4.o)
                                       0x140c (size before relaxing)
 .debug_str     0x000000000000d6ad       0x37 /home/badr/GNAT/2018-arm-elf/bin/../lib/gcc/arm-eabi/7.3.1/thumb/v7e-m/fpv5/hard/libgcc.a(_dvmd_tls.o)
                                         0xb4 (size before relaxing)

.debug_loc      0x0000000000000000      0xdaa
 *(.debug_loc)
 .debug_loc     0x0000000000000000      0xdaa /home/badr/GNAT/2018-arm-elf/bin/../lib/gcc/arm-eabi/7.3.1/thumb/v7e-m/fpv5/hard/libgcc.a(_udivmoddi4.o)

.debug_macinfo
 *(.debug_macinfo)

.debug_pubtypes
 *(.debug_pubtypes)

.debug_ranges   0x0000000000000000      0xa58
 *(.debug_ranges)
 .debug_ranges  0x0000000000000000       0x38 /home/badr/hackinvent/Ada_Drivers_Library/boards/stm32h743_nucleo/obj/sfp_lib_Debug/libada_drivers_library.a(stm32-board.o)
 .debug_ranges  0x0000000000000038       0x68 /home/badr/hackinvent/Ada_Drivers_Library/boards/stm32h743_nucleo/obj/sfp_lib_Debug/libada_drivers_library.a(stm32-device.o)
 .debug_ranges  0x00000000000000a0       0x40 /home/badr/hackinvent/Ada_Drivers_Library/boards/stm32h743_nucleo/obj/sfp_lib_Debug/libada_drivers_library.a(stm32-exti.o)
 .debug_ranges  0x00000000000000e0       0xe8 /home/badr/hackinvent/Ada_Drivers_Library/boards/stm32h743_nucleo/obj/sfp_lib_Debug/libada_drivers_library.a(stm32-gpio.o)
 .debug_ranges  0x00000000000001c8       0x10 /home/badr/hackinvent/Ada_Drivers_Library/boards/stm32h743_nucleo/obj/sfp_lib_Debug/libada_drivers_library.a(stm32-rcc.o)
 .debug_ranges  0x00000000000001d8      0x178 /home/badr/hackinvent/Ada_Drivers_Library/boards/stm32h743_nucleo/obj/sfp_lib_Debug/libada_drivers_library.a(stm32-spi.o)
 .debug_ranges  0x0000000000000350       0x30 /home/badr/hackinvent/Ada_Drivers_Library/boards/stm32h743_nucleo/obj/sfp_lib_Debug/libada_drivers_library.a(stm32-syscfg.o)
 .debug_ranges  0x0000000000000380       0xc8 /home/badr/GNAT/2018-arm-elf/arm-eabi/lib/gnat/ravenscar-sfp-stm32h743nucleo/adalib/libgnarl.a(a-reatim.o)
 .debug_ranges  0x0000000000000448       0x18 /home/badr/GNAT/2018-arm-elf/arm-eabi/lib/gnat/ravenscar-sfp-stm32h743nucleo/adalib/libgnarl.a(a-retide.o)
 .debug_ranges  0x0000000000000460       0x48 /home/badr/GNAT/2018-arm-elf/arm-eabi/lib/gnat/ravenscar-sfp-stm32h743nucleo/adalib/libgnarl.a(s-bbtiev.o)
 .debug_ranges  0x00000000000004a8       0x68 /home/badr/GNAT/2018-arm-elf/arm-eabi/lib/gnat/ravenscar-sfp-stm32h743nucleo/adalib/libgnarl.a(s-bbtime.o)
 .debug_ranges  0x0000000000000510       0x98 /home/badr/GNAT/2018-arm-elf/arm-eabi/lib/gnat/ravenscar-sfp-stm32h743nucleo/adalib/libgnarl.a(s-taprop.o)
 .debug_ranges  0x00000000000005a8       0x10 /home/badr/GNAT/2018-arm-elf/arm-eabi/lib/gnat/ravenscar-sfp-stm32h743nucleo/adalib/libgnarl.a(s-tasdeb.o)
 .debug_ranges  0x00000000000005b8       0x30 /home/badr/GNAT/2018-arm-elf/arm-eabi/lib/gnat/ravenscar-sfp-stm32h743nucleo/adalib/libgnarl.a(s-taskin.o)
 .debug_ranges  0x00000000000005e8       0xa0 /home/badr/GNAT/2018-arm-elf/arm-eabi/lib/gnat/ravenscar-sfp-stm32h743nucleo/adalib/libgnarl.a(s-bbbosu.o)
 .debug_ranges  0x0000000000000688       0x78 /home/badr/GNAT/2018-arm-elf/arm-eabi/lib/gnat/ravenscar-sfp-stm32h743nucleo/adalib/libgnarl.a(s-bbcppr.o)
 .debug_ranges  0x0000000000000700       0x30 /home/badr/GNAT/2018-arm-elf/arm-eabi/lib/gnat/ravenscar-sfp-stm32h743nucleo/adalib/libgnarl.a(s-bbinte.o)
 .debug_ranges  0x0000000000000730       0x18 /home/badr/GNAT/2018-arm-elf/arm-eabi/lib/gnat/ravenscar-sfp-stm32h743nucleo/adalib/libgnarl.a(s-bbprot.o)
 .debug_ranges  0x0000000000000748       0x68 /home/badr/GNAT/2018-arm-elf/arm-eabi/lib/gnat/ravenscar-sfp-stm32h743nucleo/adalib/libgnarl.a(s-bbthqu.o)
 .debug_ranges  0x00000000000007b0       0x70 /home/badr/GNAT/2018-arm-elf/arm-eabi/lib/gnat/ravenscar-sfp-stm32h743nucleo/adalib/libgnarl.a(s-bbthre.o)
 .debug_ranges  0x0000000000000820       0x20 /home/badr/GNAT/2018-arm-elf/arm-eabi/lib/gnat/ravenscar-sfp-stm32h743nucleo/adalib/libgnarl.a(s-bcpcst.o)
 .debug_ranges  0x0000000000000840       0x18 /home/badr/GNAT/2018-arm-elf/arm-eabi/lib/gnat/ravenscar-sfp-stm32h743nucleo/adalib/libgnat.a(a-elchha.o)
 .debug_ranges  0x0000000000000858       0x30 /home/badr/GNAT/2018-arm-elf/arm-eabi/lib/gnat/ravenscar-sfp-stm32h743nucleo/adalib/libgnat.a(g-io.o)
 .debug_ranges  0x0000000000000888       0x10 /home/badr/GNAT/2018-arm-elf/arm-eabi/lib/gnat/ravenscar-sfp-stm32h743nucleo/adalib/libgnat.a(s-assert.o)
 .debug_ranges  0x0000000000000898       0x20 /home/badr/GNAT/2018-arm-elf/arm-eabi/lib/gnat/ravenscar-sfp-stm32h743nucleo/adalib/libgnat.a(s-macres.o)
 .debug_ranges  0x00000000000008b8       0x10 /home/badr/GNAT/2018-arm-elf/arm-eabi/lib/gnat/ravenscar-sfp-stm32h743nucleo/adalib/libgnat.a(s-memcop.o)
 .debug_ranges  0x00000000000008c8       0x10 /home/badr/GNAT/2018-arm-elf/arm-eabi/lib/gnat/ravenscar-sfp-stm32h743nucleo/adalib/libgnat.a(s-memset.o)
 .debug_ranges  0x00000000000008d8       0x10 /home/badr/GNAT/2018-arm-elf/arm-eabi/lib/gnat/ravenscar-sfp-stm32h743nucleo/adalib/libgnat.a(s-parame.o)
 .debug_ranges  0x00000000000008e8       0x30 /home/badr/GNAT/2018-arm-elf/arm-eabi/lib/gnat/ravenscar-sfp-stm32h743nucleo/adalib/libgnat.a(s-secsta.o)
 .debug_ranges  0x0000000000000918       0x38 /home/badr/GNAT/2018-arm-elf/arm-eabi/lib/gnat/ravenscar-sfp-stm32h743nucleo/adalib/libgnat.a(s-textio.o)
 .debug_ranges  0x0000000000000950       0x30 /home/badr/GNAT/2018-arm-elf/arm-eabi/lib/gnat/ravenscar-sfp-stm32h743nucleo/adalib/libgnat.a(s-semiho.o)
 .debug_ranges  0x0000000000000980       0xd8 /home/badr/GNAT/2018-arm-elf/bin/../lib/gcc/arm-eabi/7.3.1/thumb/v7e-m/fpv5/hard/libgcc.a(_udivmoddi4.o)

.comment        0x0000000000000000       0x3d
 .comment       0x0000000000000000       0x3d spi.o
                                         0x3e (size before relaxing)
 .comment       0x000000000000003d       0x3e b__spi.o
 .comment       0x000000000000003d       0x3e /home/badr/hackinvent/Ada_Drivers_Library/boards/stm32h743_nucleo/obj/sfp_lib_Debug/libada_drivers_library.a(stm32-board.o)
 .comment       0x000000000000003d       0x3e /home/badr/hackinvent/Ada_Drivers_Library/boards/stm32h743_nucleo/obj/sfp_lib_Debug/libada_drivers_library.a(stm32-device.o)
 .comment       0x000000000000003d       0x3e /home/badr/hackinvent/Ada_Drivers_Library/boards/stm32h743_nucleo/obj/sfp_lib_Debug/libada_drivers_library.a(stm32-exti.o)
 .comment       0x000000000000003d       0x3e /home/badr/hackinvent/Ada_Drivers_Library/boards/stm32h743_nucleo/obj/sfp_lib_Debug/libada_drivers_library.a(stm32-gpio.o)
 .comment       0x000000000000003d       0x3e /home/badr/hackinvent/Ada_Drivers_Library/boards/stm32h743_nucleo/obj/sfp_lib_Debug/libada_drivers_library.a(stm32-rcc.o)
 .comment       0x000000000000003d       0x3e /home/badr/hackinvent/Ada_Drivers_Library/boards/stm32h743_nucleo/obj/sfp_lib_Debug/libada_drivers_library.a(stm32-spi.o)
 .comment       0x000000000000003d       0x3e /home/badr/hackinvent/Ada_Drivers_Library/boards/stm32h743_nucleo/obj/sfp_lib_Debug/libada_drivers_library.a(stm32-syscfg.o)
 .comment       0x000000000000003d       0x3e /home/badr/hackinvent/Ada_Drivers_Library/boards/stm32h743_nucleo/obj/sfp_lib_Debug/libada_drivers_library.a(hal-gpio.o)
 .comment       0x000000000000003d       0x3e /home/badr/hackinvent/Ada_Drivers_Library/boards/stm32h743_nucleo/obj/sfp_lib_Debug/libada_drivers_library.a(hal-spi.o)
 .comment       0x000000000000003d       0x3e /home/badr/GNAT/2018-arm-elf/arm-eabi/lib/gnat/ravenscar-sfp-stm32h743nucleo/adalib/libgnarl.a(a-reatim.o)
 .comment       0x000000000000003d       0x3e /home/badr/GNAT/2018-arm-elf/arm-eabi/lib/gnat/ravenscar-sfp-stm32h743nucleo/adalib/libgnarl.a(a-retide.o)
 .comment       0x000000000000003d       0x3e /home/badr/GNAT/2018-arm-elf/arm-eabi/lib/gnat/ravenscar-sfp-stm32h743nucleo/adalib/libgnarl.a(s-bbtiev.o)
 .comment       0x000000000000003d       0x3e /home/badr/GNAT/2018-arm-elf/arm-eabi/lib/gnat/ravenscar-sfp-stm32h743nucleo/adalib/libgnarl.a(s-bbtime.o)
 .comment       0x000000000000003d       0x3e /home/badr/GNAT/2018-arm-elf/arm-eabi/lib/gnat/ravenscar-sfp-stm32h743nucleo/adalib/libgnarl.a(s-taprop.o)
 .comment       0x000000000000003d       0x3e /home/badr/GNAT/2018-arm-elf/arm-eabi/lib/gnat/ravenscar-sfp-stm32h743nucleo/adalib/libgnarl.a(s-tasdeb.o)
 .comment       0x000000000000003d       0x3e /home/badr/GNAT/2018-arm-elf/arm-eabi/lib/gnat/ravenscar-sfp-stm32h743nucleo/adalib/libgnarl.a(s-taskin.o)
 .comment       0x000000000000003d       0x3e /home/badr/GNAT/2018-arm-elf/arm-eabi/lib/gnat/ravenscar-sfp-stm32h743nucleo/adalib/libgnarl.a(s-bbbosu.o)
 .comment       0x000000000000003d       0x3e /home/badr/GNAT/2018-arm-elf/arm-eabi/lib/gnat/ravenscar-sfp-stm32h743nucleo/adalib/libgnarl.a(s-bbcppr.o)
 .comment       0x000000000000003d       0x3e /home/badr/GNAT/2018-arm-elf/arm-eabi/lib/gnat/ravenscar-sfp-stm32h743nucleo/adalib/libgnarl.a(s-bbinte.o)
 .comment       0x000000000000003d       0x3e /home/badr/GNAT/2018-arm-elf/arm-eabi/lib/gnat/ravenscar-sfp-stm32h743nucleo/adalib/libgnarl.a(s-bbprot.o)
 .comment       0x000000000000003d       0x3e /home/badr/GNAT/2018-arm-elf/arm-eabi/lib/gnat/ravenscar-sfp-stm32h743nucleo/adalib/libgnarl.a(s-bbthqu.o)
 .comment       0x000000000000003d       0x3e /home/badr/GNAT/2018-arm-elf/arm-eabi/lib/gnat/ravenscar-sfp-stm32h743nucleo/adalib/libgnarl.a(s-bbthre.o)
 .comment       0x000000000000003d       0x3e /home/badr/GNAT/2018-arm-elf/arm-eabi/lib/gnat/ravenscar-sfp-stm32h743nucleo/adalib/libgnarl.a(s-bcpcst.o)
 .comment       0x000000000000003d       0x3e /home/badr/GNAT/2018-arm-elf/arm-eabi/lib/gnat/ravenscar-sfp-stm32h743nucleo/adalib/libgnat.a(a-elchha.o)
 .comment       0x000000000000003d       0x3e /home/badr/GNAT/2018-arm-elf/arm-eabi/lib/gnat/ravenscar-sfp-stm32h743nucleo/adalib/libgnat.a(a-except.o)
 .comment       0x000000000000003d       0x3e /home/badr/GNAT/2018-arm-elf/arm-eabi/lib/gnat/ravenscar-sfp-stm32h743nucleo/adalib/libgnat.a(g-io.o)
 .comment       0x000000000000003d       0x3e /home/badr/GNAT/2018-arm-elf/arm-eabi/lib/gnat/ravenscar-sfp-stm32h743nucleo/adalib/libgnat.a(s-assert.o)
 .comment       0x000000000000003d       0x3e /home/badr/GNAT/2018-arm-elf/arm-eabi/lib/gnat/ravenscar-sfp-stm32h743nucleo/adalib/libgnat.a(s-macres.o)
 .comment       0x000000000000003d       0x3e /home/badr/GNAT/2018-arm-elf/arm-eabi/lib/gnat/ravenscar-sfp-stm32h743nucleo/adalib/libgnat.a(s-memcop.o)
 .comment       0x000000000000003d       0x3e /home/badr/GNAT/2018-arm-elf/arm-eabi/lib/gnat/ravenscar-sfp-stm32h743nucleo/adalib/libgnat.a(s-memset.o)
 .comment       0x000000000000003d       0x3e /home/badr/GNAT/2018-arm-elf/arm-eabi/lib/gnat/ravenscar-sfp-stm32h743nucleo/adalib/libgnat.a(s-parame.o)
 .comment       0x000000000000003d       0x3e /home/badr/GNAT/2018-arm-elf/arm-eabi/lib/gnat/ravenscar-sfp-stm32h743nucleo/adalib/libgnat.a(s-secsta.o)
 .comment       0x000000000000003d       0x3e /home/badr/GNAT/2018-arm-elf/arm-eabi/lib/gnat/ravenscar-sfp-stm32h743nucleo/adalib/libgnat.a(s-textio.o)
 .comment       0x000000000000003d       0x3e /home/badr/GNAT/2018-arm-elf/arm-eabi/lib/gnat/ravenscar-sfp-stm32h743nucleo/adalib/libgnat.a(s-semiho.o)
 .comment       0x000000000000003d       0x3e /home/badr/GNAT/2018-arm-elf/bin/../lib/gcc/arm-eabi/7.3.1/thumb/v7e-m/fpv5/hard/libgcc.a(_udivmoddi4.o)

.ARM.attributes
                0x0000000000000000       0x35
 .ARM.attributes
                0x0000000000000000       0x35 spi.o
 .ARM.attributes
                0x0000000000000035       0x35 b__spi.o
 .ARM.attributes
                0x000000000000006a       0x35 /home/badr/hackinvent/Ada_Drivers_Library/boards/stm32h743_nucleo/obj/sfp_lib_Debug/libada_drivers_library.a(stm32-board.o)
 .ARM.attributes
                0x000000000000009f       0x35 /home/badr/hackinvent/Ada_Drivers_Library/boards/stm32h743_nucleo/obj/sfp_lib_Debug/libada_drivers_library.a(stm32-device.o)
 .ARM.attributes
                0x00000000000000d4       0x35 /home/badr/hackinvent/Ada_Drivers_Library/boards/stm32h743_nucleo/obj/sfp_lib_Debug/libada_drivers_library.a(stm32-exti.o)
 .ARM.attributes
                0x0000000000000109       0x35 /home/badr/hackinvent/Ada_Drivers_Library/boards/stm32h743_nucleo/obj/sfp_lib_Debug/libada_drivers_library.a(stm32-gpio.o)
 .ARM.attributes
                0x000000000000013e       0x35 /home/badr/hackinvent/Ada_Drivers_Library/boards/stm32h743_nucleo/obj/sfp_lib_Debug/libada_drivers_library.a(stm32-rcc.o)
 .ARM.attributes
                0x0000000000000173       0x35 /home/badr/hackinvent/Ada_Drivers_Library/boards/stm32h743_nucleo/obj/sfp_lib_Debug/libada_drivers_library.a(stm32-spi.o)
 .ARM.attributes
                0x00000000000001a8       0x35 /home/badr/hackinvent/Ada_Drivers_Library/boards/stm32h743_nucleo/obj/sfp_lib_Debug/libada_drivers_library.a(stm32-syscfg.o)
 .ARM.attributes
                0x00000000000001dd       0x35 /home/badr/hackinvent/Ada_Drivers_Library/boards/stm32h743_nucleo/obj/sfp_lib_Debug/libada_drivers_library.a(hal-gpio.o)
 .ARM.attributes
                0x0000000000000212       0x35 /home/badr/hackinvent/Ada_Drivers_Library/boards/stm32h743_nucleo/obj/sfp_lib_Debug/libada_drivers_library.a(hal-spi.o)
 .ARM.attributes
                0x0000000000000247       0x35 /home/badr/GNAT/2018-arm-elf/arm-eabi/lib/gnat/ravenscar-sfp-stm32h743nucleo/adalib/libgnarl.a(a-reatim.o)
 .ARM.attributes
                0x000000000000027c       0x35 /home/badr/GNAT/2018-arm-elf/arm-eabi/lib/gnat/ravenscar-sfp-stm32h743nucleo/adalib/libgnarl.a(a-retide.o)
 .ARM.attributes
                0x00000000000002b1       0x35 /home/badr/GNAT/2018-arm-elf/arm-eabi/lib/gnat/ravenscar-sfp-stm32h743nucleo/adalib/libgnarl.a(s-bbtiev.o)
 .ARM.attributes
                0x00000000000002e6       0x35 /home/badr/GNAT/2018-arm-elf/arm-eabi/lib/gnat/ravenscar-sfp-stm32h743nucleo/adalib/libgnarl.a(s-bbtime.o)
 .ARM.attributes
                0x000000000000031b       0x35 /home/badr/GNAT/2018-arm-elf/arm-eabi/lib/gnat/ravenscar-sfp-stm32h743nucleo/adalib/libgnarl.a(s-taprop.o)
 .ARM.attributes
                0x0000000000000350       0x35 /home/badr/GNAT/2018-arm-elf/arm-eabi/lib/gnat/ravenscar-sfp-stm32h743nucleo/adalib/libgnarl.a(s-tasdeb.o)
 .ARM.attributes
                0x0000000000000385       0x35 /home/badr/GNAT/2018-arm-elf/arm-eabi/lib/gnat/ravenscar-sfp-stm32h743nucleo/adalib/libgnarl.a(s-taskin.o)
 .ARM.attributes
                0x00000000000003ba       0x35 /home/badr/GNAT/2018-arm-elf/arm-eabi/lib/gnat/ravenscar-sfp-stm32h743nucleo/adalib/libgnarl.a(s-bbbosu.o)
 .ARM.attributes
                0x00000000000003ef       0x35 /home/badr/GNAT/2018-arm-elf/arm-eabi/lib/gnat/ravenscar-sfp-stm32h743nucleo/adalib/libgnarl.a(s-bbcppr.o)
 .ARM.attributes
                0x0000000000000424       0x35 /home/badr/GNAT/2018-arm-elf/arm-eabi/lib/gnat/ravenscar-sfp-stm32h743nucleo/adalib/libgnarl.a(s-bbinte.o)
 .ARM.attributes
                0x0000000000000459       0x35 /home/badr/GNAT/2018-arm-elf/arm-eabi/lib/gnat/ravenscar-sfp-stm32h743nucleo/adalib/libgnarl.a(s-bbprot.o)
 .ARM.attributes
                0x000000000000048e       0x35 /home/badr/GNAT/2018-arm-elf/arm-eabi/lib/gnat/ravenscar-sfp-stm32h743nucleo/adalib/libgnarl.a(s-bbthqu.o)
 .ARM.attributes
                0x00000000000004c3       0x35 /home/badr/GNAT/2018-arm-elf/arm-eabi/lib/gnat/ravenscar-sfp-stm32h743nucleo/adalib/libgnarl.a(s-bbthre.o)
 .ARM.attributes
                0x00000000000004f8       0x35 /home/badr/GNAT/2018-arm-elf/arm-eabi/lib/gnat/ravenscar-sfp-stm32h743nucleo/adalib/libgnarl.a(s-bcpcst.o)
 .ARM.attributes
                0x000000000000052d       0x23 /home/badr/GNAT/2018-arm-elf/arm-eabi/lib/gnat/ravenscar-sfp-stm32h743nucleo/adalib/libgnarl.a(handler.o)
 .ARM.attributes
                0x0000000000000550       0x35 /home/badr/GNAT/2018-arm-elf/arm-eabi/lib/gnat/ravenscar-sfp-stm32h743nucleo/adalib/libgnat.a(a-elchha.o)
 .ARM.attributes
                0x0000000000000585       0x35 /home/badr/GNAT/2018-arm-elf/arm-eabi/lib/gnat/ravenscar-sfp-stm32h743nucleo/adalib/libgnat.a(a-except.o)
 .ARM.attributes
                0x00000000000005ba       0x23 /home/badr/GNAT/2018-arm-elf/arm-eabi/lib/gnat/ravenscar-sfp-stm32h743nucleo/adalib/libgnat.a(breakpoint_handler-cortexm.o)
 .ARM.attributes
                0x00000000000005dd       0x35 /home/badr/GNAT/2018-arm-elf/arm-eabi/lib/gnat/ravenscar-sfp-stm32h743nucleo/adalib/libgnat.a(g-io.o)
 .ARM.attributes
                0x0000000000000612       0x35 /home/badr/GNAT/2018-arm-elf/arm-eabi/lib/gnat/ravenscar-sfp-stm32h743nucleo/adalib/libgnat.a(s-assert.o)
 .ARM.attributes
                0x0000000000000647       0x35 /home/badr/GNAT/2018-arm-elf/arm-eabi/lib/gnat/ravenscar-sfp-stm32h743nucleo/adalib/libgnat.a(s-macres.o)
 .ARM.attributes
                0x000000000000067c       0x35 /home/badr/GNAT/2018-arm-elf/arm-eabi/lib/gnat/ravenscar-sfp-stm32h743nucleo/adalib/libgnat.a(s-memcop.o)
 .ARM.attributes
                0x00000000000006b1       0x35 /home/badr/GNAT/2018-arm-elf/arm-eabi/lib/gnat/ravenscar-sfp-stm32h743nucleo/adalib/libgnat.a(s-memset.o)
 .ARM.attributes
                0x00000000000006e6       0x35 /home/badr/GNAT/2018-arm-elf/arm-eabi/lib/gnat/ravenscar-sfp-stm32h743nucleo/adalib/libgnat.a(s-parame.o)
 .ARM.attributes
                0x000000000000071b       0x35 /home/badr/GNAT/2018-arm-elf/arm-eabi/lib/gnat/ravenscar-sfp-stm32h743nucleo/adalib/libgnat.a(s-secsta.o)
 .ARM.attributes
                0x0000000000000750       0x35 /home/badr/GNAT/2018-arm-elf/arm-eabi/lib/gnat/ravenscar-sfp-stm32h743nucleo/adalib/libgnat.a(s-textio.o)
 .ARM.attributes
                0x0000000000000785       0x23 /home/badr/GNAT/2018-arm-elf/arm-eabi/lib/gnat/ravenscar-sfp-stm32h743nucleo/adalib/libgnat.a(start-rom.o)
 .ARM.attributes
                0x00000000000007a8       0x35 /home/badr/GNAT/2018-arm-elf/arm-eabi/lib/gnat/ravenscar-sfp-stm32h743nucleo/adalib/libgnat.a(s-semiho.o)
 .ARM.attributes
                0x00000000000007dd       0x23 /home/badr/GNAT/2018-arm-elf/arm-eabi/lib/gnat/ravenscar-sfp-stm32h743nucleo/adalib/libgnat.a(start-common.o)
 .ARM.attributes
                0x0000000000000800       0x20 /home/badr/GNAT/2018-arm-elf/bin/../lib/gcc/arm-eabi/7.3.1/thumb/v7e-m/fpv5/hard/libgcc.a(_aeabi_ldivmod.o)
 .ARM.attributes
                0x0000000000000820       0x20 /home/badr/GNAT/2018-arm-elf/bin/../lib/gcc/arm-eabi/7.3.1/thumb/v7e-m/fpv5/hard/libgcc.a(_aeabi_uldivmod.o)
 .ARM.attributes
                0x0000000000000840       0x32 /home/badr/GNAT/2018-arm-elf/bin/../lib/gcc/arm-eabi/7.3.1/thumb/v7e-m/fpv5/hard/libgcc.a(_udivmoddi4.o)
 .ARM.attributes
                0x0000000000000872       0x20 /home/badr/GNAT/2018-arm-elf/bin/../lib/gcc/arm-eabi/7.3.1/thumb/v7e-m/fpv5/hard/libgcc.a(_dvmd_tls.o)

.gnu.attributes
 *(.gnu.attributes)

/DISCARD/
 *(.note.GNU-stack)
 *(.gnu_debuglink)
 *(.gnu.lto_*)
OUTPUT(spi elf32-littlearm)
